

Microchip MPLAB XC8 Assembler V2.35 build 20211206165544 
                                                                                               Fri May 20 11:50:55 2022

Microchip MPLAB XC8 C Compiler v2.35 (Free license) build 20211206165544 Og1 
     1                           	processor	16F887
     2                           	pagewidth 120
     3                           	opt	flic
     4                           	psect	idataBANK1,global,class=CODE,delta=2,noexec
     5                           	psect	cinit,global,class=CODE,merge=1,delta=2
     6                           	psect	bssBANK0,global,class=BANK0,space=1,delta=1,noexec
     7                           	psect	bssBANK1,global,class=BANK1,space=1,delta=1,noexec
     8                           	psect	dataBANK1,global,class=BANK1,space=1,delta=1,noexec
     9                           	psect	inittext,global,class=CODE,delta=2
    10                           	psect	clrtext,global,class=CODE,delta=2
    11                           	psect	cstackBANK1,global,class=BANK1,space=1,delta=1,noexec
    12                           	psect	cstackCOMMON,global,class=COMMON,space=1,delta=1,noexec
    13                           	psect	cstackBANK0,global,class=BANK0,space=1,delta=1,noexec
    14                           	psect	maintext,global,class=CODE,split=1,delta=2
    15                           	psect	text1,local,class=CODE,merge=1,delta=2
    16                           	psect	text2,local,class=CODE,merge=1,delta=2
    17                           	psect	text3,local,class=CODE,merge=1,delta=2
    18                           	psect	text4,local,class=CODE,merge=1,delta=2
    19                           	psect	intentry,global,class=CODE,delta=2
    20                           	psect	text5,local,class=CODE,merge=1,delta=2
    21                           	psect	text6,local,class=CODE,merge=1,delta=2,group=1
    22                           	psect	text7,local,class=CODE,merge=1,delta=2,group=1
    23                           	psect	text8,local,class=CODE,merge=1,delta=2,group=1
    24                           	psect	text9,local,class=CODE,merge=1,delta=2,group=1
    25                           	psect	text10,local,class=CODE,merge=1,delta=2,group=1
    26                           	psect	text11,local,class=CODE,merge=1,delta=2,group=1
    27                           	psect	idloc,global,abs,ovrld,class=IDLOC,space=5,delta=2,noexec
    28                           	psect	config,global,abs,ovrld,class=CONFIG,space=4,delta=2,noexec
    29                           	dabs	1,0x7E,2
    30  0000                     
    31                           ; Version 2.40
    32                           ; Generated 17/11/2021 GMT
    33                           ; 
    34                           ; Copyright © 2021, Microchip Technology Inc. and its subsidiaries ("Microchip")
    35                           ; All rights reserved.
    36                           ; 
    37                           ; This software is developed by Microchip Technology Inc. and its subsidiaries ("Microch
      +                          ip").
    38                           ; 
    39                           ; Redistribution and use in source and binary forms, with or without modification, are
    40                           ; permitted provided that the following conditions are met:
    41                           ; 
    42                           ;     1. Redistributions of source code must retain the above copyright notice, this lis
      +                          t of
    43                           ;        conditions and the following disclaimer.
    44                           ; 
    45                           ;     2. Redistributions in binary form must reproduce the above copyright notice, this 
      +                          list
    46                           ;        of conditions and the following disclaimer in the documentation and/or other
    47                           ;        materials provided with the distribution. Publication is not required when
    48                           ;        this file is used in an embedded application.
    49                           ; 
    50                           ;     3. Microchip's name may not be used to endorse or promote products derived from th
      +                          is
    51                           ;        software without specific prior written permission.
    52                           ; 
    53                           ; THIS SOFTWARE IS PROVIDED BY MICROCHIP "AS IS" AND ANY EXPRESS OR IMPLIED WARRANTIES,
    54                           ; INCLUDING, BUT NOT LIMITED TO, THE IMPLIED WARRANTIES OF MERCHANTABILITY AND FITNESS F
      +                          OR
    55                           ; PURPOSE ARE DISCLAIMED.  IN NO EVENT SHALL MICROCHIP BE LIABLE FOR ANY DIRECT, INDIREC
      +                          T,
    56                           ; INCIDENTAL, SPECIAL, EXEMPLARY, OR CONSEQUENTIAL DAMAGES (INCLUDING BUT NOT LIMITED TO
    57                           ; PROCUREMENT OF SUBSTITUTE GOODS OR SERVICES; LOSS OF USE, DATA OR PROFITS; OR BUSINESS
    58                           ; INTERRUPTION) HOWSOEVER CAUSED AND ON ANY THEORY OF LIABILITY, WHETHER IN CONTRACT, ST
      +                          RICT
    59                           ; LIABILITY, OR TORT (INCLUDING NEGLIGENCE OR OTHERWISE) ARISING IN ANY WAY OUT OF THE U
      +                          SE OF
    60                           ; THIS SOFTWARE, EVEN IF ADVISED OF THE POSSIBILITY OF SUCH DAMAGE.
    61                           ; 
    62                           ; 
    63                           ; Code-generator required, PIC16F887 Definitions
    64                           ; 
    65                           ; SFR Addresses
    66  0000                     	;# 
    67  0001                     	;# 
    68  0002                     	;# 
    69  0003                     	;# 
    70  0004                     	;# 
    71  0005                     	;# 
    72  0006                     	;# 
    73  0007                     	;# 
    74  0008                     	;# 
    75  0009                     	;# 
    76  000A                     	;# 
    77  000B                     	;# 
    78  000C                     	;# 
    79  000D                     	;# 
    80  000E                     	;# 
    81  000E                     	;# 
    82  000F                     	;# 
    83  0010                     	;# 
    84  0011                     	;# 
    85  0012                     	;# 
    86  0013                     	;# 
    87  0014                     	;# 
    88  0015                     	;# 
    89  0015                     	;# 
    90  0016                     	;# 
    91  0017                     	;# 
    92  0018                     	;# 
    93  0019                     	;# 
    94  001A                     	;# 
    95  001B                     	;# 
    96  001B                     	;# 
    97  001C                     	;# 
    98  001D                     	;# 
    99  001E                     	;# 
   100  001F                     	;# 
   101  0081                     	;# 
   102  0085                     	;# 
   103  0086                     	;# 
   104  0087                     	;# 
   105  0088                     	;# 
   106  0089                     	;# 
   107  008C                     	;# 
   108  008D                     	;# 
   109  008E                     	;# 
   110  008F                     	;# 
   111  0090                     	;# 
   112  0091                     	;# 
   113  0092                     	;# 
   114  0093                     	;# 
   115  0093                     	;# 
   116  0093                     	;# 
   117  0094                     	;# 
   118  0095                     	;# 
   119  0096                     	;# 
   120  0097                     	;# 
   121  0098                     	;# 
   122  0099                     	;# 
   123  009A                     	;# 
   124  009B                     	;# 
   125  009C                     	;# 
   126  009D                     	;# 
   127  009E                     	;# 
   128  009F                     	;# 
   129  0105                     	;# 
   130  0107                     	;# 
   131  0108                     	;# 
   132  0109                     	;# 
   133  010C                     	;# 
   134  010C                     	;# 
   135  010D                     	;# 
   136  010E                     	;# 
   137  010F                     	;# 
   138  0185                     	;# 
   139  0187                     	;# 
   140  0188                     	;# 
   141  0189                     	;# 
   142  018C                     	;# 
   143  018D                     	;# 
   144  0000                     	;# 
   145  0001                     	;# 
   146  0002                     	;# 
   147  0003                     	;# 
   148  0004                     	;# 
   149  0005                     	;# 
   150  0006                     	;# 
   151  0007                     	;# 
   152  0008                     	;# 
   153  0009                     	;# 
   154  000A                     	;# 
   155  000B                     	;# 
   156  000C                     	;# 
   157  000D                     	;# 
   158  000E                     	;# 
   159  000E                     	;# 
   160  000F                     	;# 
   161  0010                     	;# 
   162  0011                     	;# 
   163  0012                     	;# 
   164  0013                     	;# 
   165  0014                     	;# 
   166  0015                     	;# 
   167  0015                     	;# 
   168  0016                     	;# 
   169  0017                     	;# 
   170  0018                     	;# 
   171  0019                     	;# 
   172  001A                     	;# 
   173  001B                     	;# 
   174  001B                     	;# 
   175  001C                     	;# 
   176  001D                     	;# 
   177  001E                     	;# 
   178  001F                     	;# 
   179  0081                     	;# 
   180  0085                     	;# 
   181  0086                     	;# 
   182  0087                     	;# 
   183  0088                     	;# 
   184  0089                     	;# 
   185  008C                     	;# 
   186  008D                     	;# 
   187  008E                     	;# 
   188  008F                     	;# 
   189  0090                     	;# 
   190  0091                     	;# 
   191  0092                     	;# 
   192  0093                     	;# 
   193  0093                     	;# 
   194  0093                     	;# 
   195  0094                     	;# 
   196  0095                     	;# 
   197  0096                     	;# 
   198  0097                     	;# 
   199  0098                     	;# 
   200  0099                     	;# 
   201  009A                     	;# 
   202  009B                     	;# 
   203  009C                     	;# 
   204  009D                     	;# 
   205  009E                     	;# 
   206  009F                     	;# 
   207  0105                     	;# 
   208  0107                     	;# 
   209  0108                     	;# 
   210  0109                     	;# 
   211  010C                     	;# 
   212  010C                     	;# 
   213  010D                     	;# 
   214  010E                     	;# 
   215  010F                     	;# 
   216  0185                     	;# 
   217  0187                     	;# 
   218  0188                     	;# 
   219  0189                     	;# 
   220  018C                     	;# 
   221  018D                     	;# 
   222                           
   223                           	psect	idataBANK1
   224  07F6                     __pidataBANK1:
   225                           
   226                           ;initializer for _addresPos2
   227  07F6  3404               	retlw	4
   228  07F7  3405               	retlw	5
   229  07F8  3406               	retlw	6
   230  07F9  3407               	retlw	7
   231                           
   232                           ;initializer for _addresPos1
   233  07FA  3400               	retlw	0
   234  07FB  3401               	retlw	1
   235  07FC  3402               	retlw	2
   236  07FD  3403               	retlw	3
   237  0014                     _SSPCONbits	set	20
   238  0007                     _PORTC	set	7
   239  0012                     _T2CONbits	set	18
   240  001D                     _CCP2CON	set	29
   241  0017                     _CCP1CON	set	23
   242  0005                     _PORTA	set	5
   243  0008                     _PORTD	set	8
   244  0006                     _PORTB	set	6
   245  0013                     _SSPBUF	set	19
   246  001F                     _ADCON0bits	set	31
   247  0009                     _PORTE	set	9
   248  0006                     _PORTBbits	set	6
   249  000B                     _INTCONbits	set	11
   250  001D                     _CCP2CONbits	set	29
   251  001B                     _CCPR2L	set	27
   252  0017                     _CCP1CONbits	set	23
   253  0015                     _CCPR1L	set	21
   254  001E                     _ADRESH	set	30
   255  000C                     _PIR1bits	set	12
   256  008C                     _PIE1bits	set	140
   257  0087                     _TRISC	set	135
   258  0092                     _PR2	set	146
   259  0087                     _TRISCbits	set	135
   260  009F                     _ADCON1bits	set	159
   261  008F                     _OSCCONbits	set	143
   262  0096                     _IOCB	set	150
   263  0095                     _WPUB	set	149
   264  0081                     _OPTION_REGbits	set	129
   265  0085                     _TRISA	set	133
   266  0089                     _TRISE	set	137
   267  0088                     _TRISD	set	136
   268  0086                     _TRISB	set	134
   269  0094                     _SSPSTATbits	set	148
   270  010C                     _EEDAT	set	268
   271  010D                     _EEADR	set	269
   272  018D                     _EECON2	set	397
   273  018C                     _EECON1bits	set	396
   274  0189                     _ANSELH	set	393
   275  0188                     _ANSEL	set	392
   276                           
   277                           	psect	cinit
   278  0015                     start_initialization:	
   279                           ; #config settings
   280                           
   281  0015                     __initialization:
   282                           
   283                           ; Initialize objects allocated to BANK1
   284  0015  1383               	bcf	3,7	;select IRP bank0
   285  0016  30D5               	movlw	low (__pdataBANK1+8)
   286  0017  00FD               	movwf	btemp+-1
   287  0018  3007               	movlw	high __pidataBANK1
   288  0019  00FE               	movwf	btemp
   289  001A  30F6               	movlw	low __pidataBANK1
   290  001B  00FF               	movwf	btemp+1
   291  001C  30CD               	movlw	low __pdataBANK1
   292  001D  0084               	movwf	4
   293  001E  120A  158A  2204  120A  118A  	fcall	init_ram0
   294                           
   295                           ; Clear objects allocated to BANK1
   296  0023  30BA               	movlw	low __pbssBANK1
   297  0024  0084               	movwf	4
   298  0025  30CD               	movlw	low (__pbssBANK1+19)
   299  0026  120A  158A  21E9  120A  118A  	fcall	clear_ram0
   300                           
   301                           ; Clear objects allocated to BANK0
   302  002B  01EF               	clrf	__pbssBANK0& (0+127)
   303  002C                     end_of_initialization:	
   304                           ;End of C runtime variable initialization code
   305                           
   306  002C                     __end_of__initialization:
   307  002C  0183               	clrf	3
   308  002D  120A  158A  2E42   	ljmp	_main	;jump to C main() function
   309                           
   310                           	psect	bssBANK0
   311  006F                     __pbssBANK0:
   312  006F                     _val_temp:
   313  006F                     	ds	1
   314                           
   315                           	psect	bssBANK1
   316  00BA                     __pbssBANK1:
   317  00BA                     _array:
   318  00BA                     	ds	4
   319  00BE                     _POT2:
   320  00BE                     	ds	2
   321  00C0                     _POT1:
   322  00C0                     	ds	2
   323  00C2                     _CCPR_2:
   324  00C2                     	ds	2
   325  00C4                     _CCPR:
   326  00C4                     	ds	2
   327  00C6                     _read_fg:
   328  00C6                     	ds	1
   329  00C7                     _write_fg:
   330  00C7                     	ds	1
   331  00C8                     _MODO:
   332  00C8                     	ds	1
   333  00C9                     _address:
   334  00C9                     	ds	1
   335  00CA                     _canal:
   336  00CA                     	ds	1
   337  00CB                     _POT2_slave:
   338  00CB                     	ds	1
   339  00CC                     _POT1_slave:
   340  00CC                     	ds	1
   341                           
   342                           	psect	dataBANK1
   343  00CD                     __pdataBANK1:
   344  00CD                     _addresPos2:
   345  00CD                     	ds	4
   346  00D1                     _addresPos1:
   347  00D1                     	ds	4
   348                           
   349                           	psect	inittext
   350  0A00                     init_fetch0:	
   351                           ;	Called with low address in FSR and high address in W
   352                           
   353  0A00  087E               	movf	btemp,w
   354  0A01  008A               	movwf	10
   355  0A02  087F               	movf	btemp+1,w
   356  0A03  0082               	movwf	2
   357  0A04                     init_ram0:	
   358                           ;Called with:
   359                           ;	high address of idata address in btemp 
   360                           ;	low address of idata address in btemp+1 
   361                           ;	low address of data in FSR
   362                           ;	high address + 1 of data in btemp-1
   363                           
   364  0A04  120A  158A  2200  120A  158A  	fcall	init_fetch0
   365  0A09  0080               	movwf	0
   366  0A0A  0A84               	incf	4,f
   367  0A0B  0804               	movf	4,w
   368  0A0C  067D               	xorwf	btemp+-1,w
   369  0A0D  1903               	btfsc	3,2
   370  0A0E  3400               	retlw	0
   371  0A0F  0AFF               	incf	btemp+1,f
   372  0A10  1903               	btfsc	3,2
   373  0A11  0AFE               	incf	btemp,f
   374  0A12  2A04               	goto	init_ram0
   375                           
   376                           	psect	clrtext
   377  09E9                     clear_ram0:	
   378                           ;	Called with FSR containing the base address, and
   379                           ;	W with the last address+1
   380                           
   381  09E9  0064               	clrwdt	;clear the watchdog before getting into this loop
   382  09EA                     clrloop0:
   383  09EA  0180               	clrf	0	;clear RAM location pointed to by FSR
   384  09EB  0A84               	incf	4,f	;increment pointer
   385  09EC  0604               	xorwf	4,w	;XOR with final address
   386  09ED  1903               	btfsc	3,2	;have we reached the end yet?
   387  09EE  3400               	retlw	0	;all done for this memory range, return
   388  09EF  0604               	xorwf	4,w	;XOR again to restore value
   389  09F0  29EA               	goto	clrloop0	;do the next byte
   390                           
   391                           	psect	cstackBANK1
   392  00A0                     __pcstackBANK1:
   393  00A0                     ??___fltol:
   394                           
   395                           ; 1 bytes @ 0x0
   396  00A0                     	ds	5
   397  00A5                     ?_map:
   398  00A5                     map@x0:	
   399                           ; 2 bytes @ 0x5
   400                           
   401                           
   402                           ; 1 bytes @ 0x5
   403  00A5                     	ds	1
   404  00A6                     map@x1:
   405                           
   406                           ; 1 bytes @ 0x6
   407  00A6                     	ds	1
   408  00A7                     map@y0:
   409                           
   410                           ; 2 bytes @ 0x7
   411  00A7                     	ds	2
   412  00A9                     map@y1:
   413                           
   414                           ; 2 bytes @ 0x9
   415  00A9                     	ds	2
   416  00AB                     ??_isr:
   417                           
   418                           ; 1 bytes @ 0xB
   419  00AB                     	ds	7
   420  00B2                     ??_setup:
   421  00B2                     ?_write_EEPROM:	
   422                           ; 1 bytes @ 0x12
   423                           
   424  00B2                     ??_read_EEPROM:	
   425                           ; 1 bytes @ 0x12
   426                           
   427  00B2                     read_EEPROM@address:	
   428                           ; 1 bytes @ 0x12
   429                           
   430  00B2                     write_EEPROM@data:	
   431                           ; 1 bytes @ 0x12
   432                           
   433                           
   434                           ; 1 bytes @ 0x12
   435  00B2                     	ds	1
   436  00B3                     ??_write_EEPROM:
   437  00B3                     write_EEPROM@address:	
   438                           ; 1 bytes @ 0x13
   439                           
   440                           
   441                           ; 1 bytes @ 0x13
   442  00B3                     	ds	1
   443  00B4                     ??_main:
   444                           
   445                           ; 1 bytes @ 0x14
   446  00B4                     	ds	2
   447  00B6                     main@i:
   448                           
   449                           ; 2 bytes @ 0x16
   450  00B6                     	ds	2
   451  00B8                     main@j:
   452                           
   453                           ; 2 bytes @ 0x18
   454  00B8                     	ds	2
   455                           
   456                           	psect	cstackCOMMON
   457  0070                     __pcstackCOMMON:
   458  0070                     ?_setup:
   459  0070                     ?_read_EEPROM:	
   460                           ; 1 bytes @ 0x0
   461                           
   462  0070                     ?_isr:	
   463                           ; 1 bytes @ 0x0
   464                           
   465  0070                     ?_main:	
   466                           ; 1 bytes @ 0x0
   467                           
   468  0070                     ?__Umul8_16:	
   469                           ; 1 bytes @ 0x0
   470                           
   471  0070                     ?___xxtofl:	
   472                           ; 2 bytes @ 0x0
   473                           
   474  0070                     __Umul8_16@multiplicand:	
   475                           ; 4 bytes @ 0x0
   476                           
   477  0070                     ___xxtofl@val:	
   478                           ; 1 bytes @ 0x0
   479                           
   480                           
   481                           ; 4 bytes @ 0x0
   482  0070                     	ds	2
   483  0072                     ??__Umul8_16:
   484                           
   485                           ; 1 bytes @ 0x2
   486  0072                     	ds	2
   487  0074                     ??___xxtofl:
   488  0074                     __Umul8_16@product:	
   489                           ; 1 bytes @ 0x4
   490                           
   491                           
   492                           ; 2 bytes @ 0x4
   493  0074                     	ds	2
   494  0076                     __Umul8_16@word_mpld:
   495                           
   496                           ; 2 bytes @ 0x6
   497  0076                     	ds	2
   498  0078                     __Umul8_16@multiplier:
   499  0078                     ___xxtofl@sign:	
   500                           ; 1 bytes @ 0x8
   501                           
   502                           
   503                           ; 1 bytes @ 0x8
   504  0078                     	ds	1
   505  0079                     ___xxtofl@exp:
   506                           
   507                           ; 1 bytes @ 0x9
   508  0079                     	ds	1
   509  007A                     ___xxtofl@arg:
   510                           
   511                           ; 4 bytes @ 0xA
   512  007A                     	ds	4
   513  007E                     ??_map:
   514                           
   515                           	psect	cstackBANK0
   516  0020                     __pcstackBANK0:	
   517                           ; 1 bytes @ 0xE
   518                           
   519  0020                     ?___fldiv:
   520  0020                     ___fldiv@a:	
   521                           ; 4 bytes @ 0x0
   522                           
   523                           
   524                           ; 4 bytes @ 0x0
   525  0020                     	ds	4
   526  0024                     ___fldiv@b:
   527                           
   528                           ; 4 bytes @ 0x4
   529  0024                     	ds	4
   530  0028                     ??___fldiv:
   531                           
   532                           ; 1 bytes @ 0x8
   533  0028                     	ds	5
   534  002D                     ___fldiv@rem:
   535                           
   536                           ; 4 bytes @ 0xD
   537  002D                     	ds	4
   538  0031                     ___fldiv@sign:
   539                           
   540                           ; 1 bytes @ 0x11
   541  0031                     	ds	1
   542  0032                     ___fldiv@new_exp:
   543                           
   544                           ; 2 bytes @ 0x12
   545  0032                     	ds	2
   546  0034                     ___fldiv@grs:
   547                           
   548                           ; 4 bytes @ 0x14
   549  0034                     	ds	4
   550  0038                     ___fldiv@bexp:
   551                           
   552                           ; 1 bytes @ 0x18
   553  0038                     	ds	1
   554  0039                     ___fldiv@aexp:
   555                           
   556                           ; 1 bytes @ 0x19
   557  0039                     	ds	1
   558  003A                     ?___flmul:
   559  003A                     ___flmul@b:	
   560                           ; 4 bytes @ 0x1A
   561                           
   562                           
   563                           ; 4 bytes @ 0x1A
   564  003A                     	ds	4
   565  003E                     ___flmul@a:
   566                           
   567                           ; 4 bytes @ 0x1E
   568  003E                     	ds	4
   569  0042                     ??___flmul:
   570                           
   571                           ; 1 bytes @ 0x22
   572  0042                     	ds	5
   573  0047                     ___flmul@sign:
   574                           
   575                           ; 1 bytes @ 0x27
   576  0047                     	ds	1
   577  0048                     ___flmul@grs:
   578                           
   579                           ; 4 bytes @ 0x28
   580  0048                     	ds	4
   581  004C                     ___flmul@aexp:
   582                           
   583                           ; 1 bytes @ 0x2C
   584  004C                     	ds	1
   585  004D                     ___flmul@bexp:
   586                           
   587                           ; 1 bytes @ 0x2D
   588  004D                     	ds	1
   589  004E                     ___flmul@prod:
   590                           
   591                           ; 4 bytes @ 0x2E
   592  004E                     	ds	4
   593  0052                     ___flmul@temp:
   594                           
   595                           ; 2 bytes @ 0x32
   596  0052                     	ds	2
   597  0054                     ?___fladd:
   598  0054                     ___fladd@b:	
   599                           ; 4 bytes @ 0x34
   600                           
   601                           
   602                           ; 4 bytes @ 0x34
   603  0054                     	ds	4
   604  0058                     ___fladd@a:
   605                           
   606                           ; 4 bytes @ 0x38
   607  0058                     	ds	4
   608  005C                     ??___fladd:
   609                           
   610                           ; 1 bytes @ 0x3C
   611  005C                     	ds	8
   612  0064                     ___fladd@signs:
   613                           
   614                           ; 1 bytes @ 0x44
   615  0064                     	ds	1
   616  0065                     ___fladd@aexp:
   617                           
   618                           ; 1 bytes @ 0x45
   619  0065                     	ds	1
   620  0066                     ___fladd@bexp:
   621                           
   622                           ; 1 bytes @ 0x46
   623  0066                     	ds	1
   624  0067                     ___fladd@grs:
   625                           
   626                           ; 1 bytes @ 0x47
   627  0067                     	ds	1
   628  0068                     ?___fltol:
   629  0068                     ___fltol@f1:	
   630                           ; 4 bytes @ 0x48
   631                           
   632                           
   633                           ; 4 bytes @ 0x48
   634  0068                     	ds	4
   635  006C                     ___fltol@sign1:
   636                           
   637                           ; 1 bytes @ 0x4C
   638  006C                     	ds	1
   639  006D                     ___fltol@exp1:
   640                           
   641                           ; 1 bytes @ 0x4D
   642  006D                     	ds	1
   643  006E                     map@x:
   644                           
   645                           ; 1 bytes @ 0x4E
   646  006E                     	ds	1
   647                           
   648                           	psect	maintext
   649  0E42                     __pmaintext:	
   650 ;;
   651 ;;Main: autosize = 0, tempsize = 2, incstack = 0, save=0
   652 ;;
   653 ;; *************** function _main *****************
   654 ;; Defined at:
   655 ;;		line 134 in file "main_master.c"
   656 ;; Parameters:    Size  Location     Type
   657 ;;		None
   658 ;; Auto vars:     Size  Location     Type
   659 ;;  j               2   24[BANK1 ] int 
   660 ;;  i               2   22[BANK1 ] int 
   661 ;; Return value:  Size  Location     Type
   662 ;;                  1    wreg      void 
   663 ;; Registers used:
   664 ;;		wreg, fsr0l, fsr0h, status,2, status,0, btemp+1, pclath, cstack
   665 ;; Tracked objects:
   666 ;;		On entry : B00/0
   667 ;;		On exit  : 0/0
   668 ;;		Unchanged: 0/0
   669 ;; Data sizes:     COMMON   BANK0   BANK1   BANK3   BANK2
   670 ;;      Params:         0       0       0       0       0
   671 ;;      Locals:         0       0       4       0       0
   672 ;;      Temps:          0       0       2       0       0
   673 ;;      Totals:         0       0       6       0       0
   674 ;;Total ram usage:        6 bytes
   675 ;; Hardware stack levels required when called: 5
   676 ;; This function calls:
   677 ;;		_read_EEPROM
   678 ;;		_setup
   679 ;;		_write_EEPROM
   680 ;; This function is called by:
   681 ;;		Startup code after reset
   682 ;; This function uses a non-reentrant model
   683 ;;
   684                           
   685  0E42                     _main:	
   686                           ;psect for function _main
   687                           
   688  0E42                     l2598:	
   689                           ;incstack = 0
   690                           ; Regs used in _main: [wreg-fsr0h+status,2+status,0+btemp+1+pclath+cstack]
   691                           
   692                           
   693                           ;main_master.c: 135:     setup();
   694  0E42  120A  158A  2255  120A  158A  	fcall	_setup
   695  0E47                     l2600:
   696                           
   697                           ;main_master.c: 138:         PORTE = MODO;
   698  0E47  1683               	bsf	3,5	;RP0=1, select bank1
   699  0E48  1303               	bcf	3,6	;RP1=0, select bank1
   700  0E49  0848               	movf	_MODO^(0+128),w
   701  0E4A  1283               	bcf	3,5	;RP0=0, select bank0
   702  0E4B  1303               	bcf	3,6	;RP1=0, select bank0
   703  0E4C  0089               	movwf	9	;volatile
   704  0E4D                     l2602:
   705                           
   706                           ;main_master.c: 140:         if(ADCON0bits.GO == 0){
   707  0E4D  189F               	btfsc	31,1	;volatile
   708  0E4E  2E50               	goto	u3181
   709  0E4F  2E51               	goto	u3180
   710  0E50                     u3181:
   711  0E50  2FE8               	goto	l2688
   712  0E51                     u3180:
   713  0E51                     l2604:
   714                           
   715                           ;main_master.c: 141:             if(ADCON0bits.CHS == 0){
   716  0E51  0C1F               	rrf	31,w	;volatile
   717  0E52  1683               	bsf	3,5	;RP0=1, select bank1
   718  0E53  1303               	bcf	3,6	;RP1=0, select bank1
   719  0E54  00B4               	movwf	??_main^(0+128)
   720  0E55  0C34               	rrf	??_main^(0+128),w
   721  0E56  390F               	andlw	15
   722  0E57  3A00               	xorlw	0
   723  0E58  1D03               	skipz
   724  0E59  2E5B               	goto	u3191
   725  0E5A  2E5C               	goto	u3190
   726  0E5B                     u3191:
   727  0E5B  2E67               	goto	l2610
   728  0E5C                     u3190:
   729  0E5C                     l2606:
   730                           
   731                           ;main_master.c: 142:                 ADCON0bits.CHS = 1;
   732  0E5C  1283               	bcf	3,5	;RP0=0, select bank0
   733  0E5D  1303               	bcf	3,6	;RP1=0, select bank0
   734  0E5E  081F               	movf	31,w	;volatile
   735  0E5F  39C3               	andlw	-61
   736  0E60  3804               	iorlw	4
   737  0E61  009F               	movwf	31	;volatile
   738  0E62                     l2608:
   739                           
   740                           ;main_master.c: 143:                 canal = 1;
   741  0E62  1683               	bsf	3,5	;RP0=1, select bank1
   742  0E63  1303               	bcf	3,6	;RP1=0, select bank1
   743  0E64  01CA               	clrf	_canal^(0+128)
   744  0E65  0ACA               	incf	_canal^(0+128),f
   745                           
   746                           ;main_master.c: 144:             }
   747  0E66  2EB0               	goto	l2628
   748  0E67                     l2610:
   749  0E67  1283               	bcf	3,5	;RP0=0, select bank0
   750  0E68  1303               	bcf	3,6	;RP1=0, select bank0
   751  0E69  0C1F               	rrf	31,w	;volatile
   752  0E6A  1683               	bsf	3,5	;RP0=1, select bank1
   753  0E6B  1303               	bcf	3,6	;RP1=0, select bank1
   754  0E6C  00B4               	movwf	??_main^(0+128)
   755  0E6D  0C34               	rrf	??_main^(0+128),w
   756  0E6E  390F               	andlw	15
   757  0E6F  3A01               	xorlw	1
   758  0E70  1D03               	skipz
   759  0E71  2E73               	goto	u3201
   760  0E72  2E74               	goto	u3200
   761  0E73                     u3201:
   762  0E73  2E81               	goto	l2616
   763  0E74                     u3200:
   764  0E74                     l2612:
   765                           
   766                           ;main_master.c: 146:                 ADCON0bits.CHS = 2;
   767  0E74  1283               	bcf	3,5	;RP0=0, select bank0
   768  0E75  1303               	bcf	3,6	;RP1=0, select bank0
   769  0E76  081F               	movf	31,w	;volatile
   770  0E77  39C3               	andlw	-61
   771  0E78  3808               	iorlw	8
   772  0E79  009F               	movwf	31	;volatile
   773  0E7A                     l2614:
   774                           
   775                           ;main_master.c: 147:                 canal = 2;
   776  0E7A  3002               	movlw	2
   777  0E7B  1683               	bsf	3,5	;RP0=1, select bank1
   778  0E7C  1303               	bcf	3,6	;RP1=0, select bank1
   779  0E7D  00B4               	movwf	??_main^(0+128)
   780  0E7E  0834               	movf	??_main^(0+128),w
   781  0E7F  00CA               	movwf	_canal^(0+128)
   782                           
   783                           ;main_master.c: 148:             }
   784  0E80  2EB0               	goto	l2628
   785  0E81                     l2616:
   786  0E81  1283               	bcf	3,5	;RP0=0, select bank0
   787  0E82  1303               	bcf	3,6	;RP1=0, select bank0
   788  0E83  0C1F               	rrf	31,w	;volatile
   789  0E84  1683               	bsf	3,5	;RP0=1, select bank1
   790  0E85  1303               	bcf	3,6	;RP1=0, select bank1
   791  0E86  00B4               	movwf	??_main^(0+128)
   792  0E87  0C34               	rrf	??_main^(0+128),w
   793  0E88  390F               	andlw	15
   794  0E89  3A02               	xorlw	2
   795  0E8A  1D03               	skipz
   796  0E8B  2E8D               	goto	u3211
   797  0E8C  2E8E               	goto	u3210
   798  0E8D                     u3211:
   799  0E8D  2E9B               	goto	l2622
   800  0E8E                     u3210:
   801  0E8E                     l2618:
   802                           
   803                           ;main_master.c: 150:                 ADCON0bits.CHS = 3;
   804  0E8E  1283               	bcf	3,5	;RP0=0, select bank0
   805  0E8F  1303               	bcf	3,6	;RP1=0, select bank0
   806  0E90  081F               	movf	31,w	;volatile
   807  0E91  39C3               	andlw	-61
   808  0E92  380C               	iorlw	12
   809  0E93  009F               	movwf	31	;volatile
   810  0E94                     l2620:
   811                           
   812                           ;main_master.c: 151:                 canal = 3;
   813  0E94  3003               	movlw	3
   814  0E95  1683               	bsf	3,5	;RP0=1, select bank1
   815  0E96  1303               	bcf	3,6	;RP1=0, select bank1
   816  0E97  00B4               	movwf	??_main^(0+128)
   817  0E98  0834               	movf	??_main^(0+128),w
   818  0E99  00CA               	movwf	_canal^(0+128)
   819                           
   820                           ;main_master.c: 152:             }
   821  0E9A  2EB0               	goto	l2628
   822  0E9B                     l2622:
   823  0E9B  1283               	bcf	3,5	;RP0=0, select bank0
   824  0E9C  1303               	bcf	3,6	;RP1=0, select bank0
   825  0E9D  0C1F               	rrf	31,w	;volatile
   826  0E9E  1683               	bsf	3,5	;RP0=1, select bank1
   827  0E9F  1303               	bcf	3,6	;RP1=0, select bank1
   828  0EA0  00B4               	movwf	??_main^(0+128)
   829  0EA1  0C34               	rrf	??_main^(0+128),w
   830  0EA2  390F               	andlw	15
   831  0EA3  3A03               	xorlw	3
   832  0EA4  1D03               	skipz
   833  0EA5  2EA7               	goto	u3221
   834  0EA6  2EA8               	goto	u3220
   835  0EA7                     u3221:
   836  0EA7  2EB0               	goto	l162
   837  0EA8                     u3220:
   838  0EA8                     l2624:
   839                           
   840                           ;main_master.c: 154:                 ADCON0bits.CHS = 0;
   841  0EA8  30C3               	movlw	-61
   842  0EA9  1283               	bcf	3,5	;RP0=0, select bank0
   843  0EAA  1303               	bcf	3,6	;RP1=0, select bank0
   844  0EAB  059F               	andwf	31,f	;volatile
   845  0EAC                     l2626:
   846                           
   847                           ;main_master.c: 155:                 canal = 0;
   848  0EAC  1683               	bsf	3,5	;RP0=1, select bank1
   849  0EAD  1303               	bcf	3,6	;RP1=0, select bank1
   850  0EAE  01CA               	clrf	_canal^(0+128)
   851  0EAF  2EB0               	goto	l2628
   852  0EB0                     l162:
   853  0EB0                     l2628:
   854                           
   855                           ;main_master.c: 157:                 _delay((unsigned long)((40)*(1000000/4000000.0)));
   856  0EB0  3002               	movlw	2
   857  0EB1  1683               	bsf	3,5	;RP0=1, select bank1
   858  0EB2  1303               	bcf	3,6	;RP1=0, select bank1
   859  0EB3  00B4               	movwf	??_main^(0+128)
   860  0EB4                     u3337:
   861  0EB4  0BB4               	decfsz	??_main^(0+128),f
   862  0EB5  2EB4               	goto	u3337
   863  0EB6  0000               	nop
   864  0EB7                     l2630:
   865                           
   866                           ;main_master.c: 158:             ADCON0bits.GO = 1;
   867  0EB7  1283               	bcf	3,5	;RP0=0, select bank0
   868  0EB8  1303               	bcf	3,6	;RP1=0, select bank0
   869  0EB9  149F               	bsf	31,1	;volatile
   870  0EBA  2FE8               	goto	l2688
   871  0EBB                     l2632:
   872                           
   873                           ;main_master.c: 164:                 SSPBUF = POT1_slave;
   874  0EBB  084C               	movf	_POT1_slave^(0+128),w
   875  0EBC  1283               	bcf	3,5	;RP0=0, select bank0
   876  0EBD  1303               	bcf	3,6	;RP1=0, select bank0
   877  0EBE  0093               	movwf	19	;volatile
   878  0EBF                     l168:	
   879                           ;main_master.c: 165:                 while(!SSPSTATbits.BF){}
   880                           
   881  0EBF  1683               	bsf	3,5	;RP0=1, select bank1
   882  0EC0  1303               	bcf	3,6	;RP1=0, select bank1
   883  0EC1  1C14               	btfss	20,0	;volatile
   884  0EC2  2EC4               	goto	u3231
   885  0EC3  2EC5               	goto	u3230
   886  0EC4                     u3231:
   887  0EC4  2EBF               	goto	l168
   888  0EC5                     u3230:
   889  0EC5                     l2634:
   890                           
   891                           ;main_master.c: 166:                 _delay((unsigned long)((50)*(1000000/4000.0)));
   892  0EC5  3011               	movlw	17
   893  0EC6  1683               	bsf	3,5	;RP0=1, select bank1
   894  0EC7  1303               	bcf	3,6	;RP1=0, select bank1
   895  0EC8  00B5               	movwf	(??_main^(0+128)+1)
   896  0EC9  3039               	movlw	57
   897  0ECA  00B4               	movwf	??_main^(0+128)
   898  0ECB                     u3347:
   899  0ECB  0BB4               	decfsz	??_main^(0+128),f
   900  0ECC  2ECB               	goto	u3347
   901  0ECD  0BB5               	decfsz	(??_main^(0+128)+1),f
   902  0ECE  2ECB               	goto	u3347
   903  0ECF  2ED0               	nop2
   904                           
   905                           ;main_master.c: 169:                 SSPBUF = POT2_slave;
   906  0ED0  1683               	bsf	3,5	;RP0=1, select bank1
   907  0ED1  1303               	bcf	3,6	;RP1=0, select bank1
   908  0ED2  084B               	movf	_POT2_slave^(0+128),w
   909  0ED3  1283               	bcf	3,5	;RP0=0, select bank0
   910  0ED4  1303               	bcf	3,6	;RP1=0, select bank0
   911  0ED5  0093               	movwf	19	;volatile
   912  0ED6                     l171:	
   913                           ;main_master.c: 170:                 while(!SSPSTATbits.BF){}
   914                           
   915  0ED6  1683               	bsf	3,5	;RP0=1, select bank1
   916  0ED7  1303               	bcf	3,6	;RP1=0, select bank1
   917  0ED8  1C14               	btfss	20,0	;volatile
   918  0ED9  2EDB               	goto	u3241
   919  0EDA  2EDC               	goto	u3240
   920  0EDB                     u3241:
   921  0EDB  2ED6               	goto	l171
   922  0EDC                     u3240:
   923  0EDC                     l2636:
   924                           
   925                           ;main_master.c: 171:                 _delay((unsigned long)((50)*(1000000/4000.0)));
   926  0EDC  3011               	movlw	17
   927  0EDD  1683               	bsf	3,5	;RP0=1, select bank1
   928  0EDE  1303               	bcf	3,6	;RP1=0, select bank1
   929  0EDF  00B5               	movwf	(??_main^(0+128)+1)
   930  0EE0  3039               	movlw	57
   931  0EE1  00B4               	movwf	??_main^(0+128)
   932  0EE2                     u3357:
   933  0EE2  0BB4               	decfsz	??_main^(0+128),f
   934  0EE3  2EE2               	goto	u3357
   935  0EE4  0BB5               	decfsz	(??_main^(0+128)+1),f
   936  0EE5  2EE2               	goto	u3357
   937  0EE6  2EE7               	nop2
   938  0EE7                     l2638:
   939                           
   940                           ;main_master.c: 173:                 if (write_fg){
   941  0EE7  1683               	bsf	3,5	;RP0=1, select bank1
   942  0EE8  1303               	bcf	3,6	;RP1=0, select bank1
   943  0EE9  0847               	movf	_write_fg^(0+128),w
   944  0EEA  1903               	btfsc	3,2
   945  0EEB  2EED               	goto	u3251
   946  0EEC  2EEE               	goto	u3250
   947  0EED                     u3251:
   948  0EED  2E47               	goto	l2600
   949  0EEE                     u3250:
   950  0EEE                     l2640:
   951                           
   952                           ;main_master.c: 174:                     for (int i=0; i<4; ++i){
   953  0EEE  01B6               	clrf	main@i^(0+128)
   954  0EEF  01B7               	clrf	(main@i+1)^(0+128)
   955  0EF0                     l2646:
   956                           
   957                           ;main_master.c: 175:                         write_EEPROM(address, (uint8_t)array[i]);
   958  0EF0  1683               	bsf	3,5	;RP0=1, select bank1
   959  0EF1  1303               	bcf	3,6	;RP1=0, select bank1
   960  0EF2  0836               	movf	main@i^(0+128),w
   961  0EF3  3EBA               	addlw	(low (_array| 0))& (0+255)
   962  0EF4  0084               	movwf	4
   963  0EF5  1383               	bcf	3,7	;select IRP bank1
   964  0EF6  0800               	movf	0,w
   965  0EF7  00B4               	movwf	??_main^(0+128)
   966  0EF8  0834               	movf	??_main^(0+128),w
   967  0EF9  00B2               	movwf	write_EEPROM@data^(0+128)
   968  0EFA  0849               	movf	_address^(0+128),w
   969  0EFB  120A  158A  2213  120A  158A  	fcall	_write_EEPROM
   970  0F00                     l2648:
   971                           
   972                           ;main_master.c: 176:                         _delay((unsigned long)((50)*(1000000/4000.0
      +                          )));
   973  0F00  3011               	movlw	17
   974  0F01  1683               	bsf	3,5	;RP0=1, select bank1
   975  0F02  1303               	bcf	3,6	;RP1=0, select bank1
   976  0F03  00B5               	movwf	(??_main^(0+128)+1)
   977  0F04  3039               	movlw	57
   978  0F05  00B4               	movwf	??_main^(0+128)
   979  0F06                     u3367:
   980  0F06  0BB4               	decfsz	??_main^(0+128),f
   981  0F07  2F06               	goto	u3367
   982  0F08  0BB5               	decfsz	(??_main^(0+128)+1),f
   983  0F09  2F06               	goto	u3367
   984  0F0A  2F0B               	nop2
   985  0F0B                     l2650:
   986                           
   987                           ;main_master.c: 177:                         address++;
   988  0F0B  3001               	movlw	1
   989  0F0C  1683               	bsf	3,5	;RP0=1, select bank1
   990  0F0D  1303               	bcf	3,6	;RP1=0, select bank1
   991  0F0E  00B4               	movwf	??_main^(0+128)
   992  0F0F  0834               	movf	??_main^(0+128),w
   993  0F10  07C9               	addwf	_address^(0+128),f
   994  0F11                     l2652:
   995                           
   996                           ;main_master.c: 178:                     }
   997  0F11  3001               	movlw	1
   998  0F12  07B6               	addwf	main@i^(0+128),f
   999  0F13  1803               	skipnc
  1000  0F14  0AB7               	incf	(main@i+1)^(0+128),f
  1001  0F15  3000               	movlw	0
  1002  0F16  07B7               	addwf	(main@i+1)^(0+128),f
  1003  0F17                     l2654:
  1004  0F17  0837               	movf	(main@i+1)^(0+128),w
  1005  0F18  3A80               	xorlw	128
  1006  0F19  00FF               	movwf	btemp+1
  1007  0F1A  3080               	movlw	128
  1008  0F1B  027F               	subwf	btemp+1,w
  1009  0F1C  1D03               	skipz
  1010  0F1D  2F20               	goto	u3265
  1011  0F1E  3004               	movlw	4
  1012  0F1F  0236               	subwf	main@i^(0+128),w
  1013  0F20                     u3265:
  1014  0F20  1C03               	skipc
  1015  0F21  2F23               	goto	u3261
  1016  0F22  2F24               	goto	u3260
  1017  0F23                     u3261:
  1018  0F23  2EF0               	goto	l2646
  1019  0F24                     u3260:
  1020  0F24                     l2656:
  1021                           
  1022                           ;main_master.c: 179:                     write_fg = 0;
  1023  0F24  1683               	bsf	3,5	;RP0=1, select bank1
  1024  0F25  1303               	bcf	3,6	;RP1=0, select bank1
  1025  0F26  01C7               	clrf	_write_fg^(0+128)
  1026  0F27  2E47               	goto	l2600
  1027  0F28                     l2658:
  1028                           
  1029                           ;main_master.c: 185:                 if (read_fg){
  1030  0F28  0846               	movf	_read_fg^(0+128),w
  1031  0F29  1903               	btfsc	3,2
  1032  0F2A  2F2C               	goto	u3271
  1033  0F2B  2F2D               	goto	u3270
  1034  0F2C                     u3271:
  1035  0F2C  2E47               	goto	l2600
  1036  0F2D                     u3270:
  1037  0F2D                     l2660:
  1038                           
  1039                           ;main_master.c: 186:                     for (int j=0; j<4; ++j){
  1040  0F2D  01B8               	clrf	main@j^(0+128)
  1041  0F2E  01B9               	clrf	(main@j+1)^(0+128)
  1042  0F2F                     l2666:
  1043                           
  1044                           ;main_master.c: 187:                         array[j] = read_EEPROM(address);
  1045  0F2F  1683               	bsf	3,5	;RP0=1, select bank1
  1046  0F30  1303               	bcf	3,6	;RP1=0, select bank1
  1047  0F31  0849               	movf	_address^(0+128),w
  1048  0F32  120A  158A  21F1  120A  158A  	fcall	_read_EEPROM
  1049  0F37  1683               	bsf	3,5	;RP0=1, select bank1
  1050  0F38  1303               	bcf	3,6	;RP1=0, select bank1
  1051  0F39  00B4               	movwf	??_main^(0+128)
  1052  0F3A  0838               	movf	main@j^(0+128),w
  1053  0F3B  3EBA               	addlw	(low (_array| 0))& (0+255)
  1054  0F3C  0084               	movwf	4
  1055  0F3D  0834               	movf	??_main^(0+128),w
  1056  0F3E  1383               	bcf	3,7	;select IRP bank1
  1057  0F3F  0080               	movwf	0
  1058  0F40                     l2668:
  1059                           
  1060                           ;main_master.c: 188:                         _delay((unsigned long)((50)*(1000000/4000.0
      +                          )));
  1061  0F40  3011               	movlw	17
  1062  0F41  1683               	bsf	3,5	;RP0=1, select bank1
  1063  0F42  1303               	bcf	3,6	;RP1=0, select bank1
  1064  0F43  00B5               	movwf	(??_main^(0+128)+1)
  1065  0F44  3039               	movlw	57
  1066  0F45  00B4               	movwf	??_main^(0+128)
  1067  0F46                     u3377:
  1068  0F46  0BB4               	decfsz	??_main^(0+128),f
  1069  0F47  2F46               	goto	u3377
  1070  0F48  0BB5               	decfsz	(??_main^(0+128)+1),f
  1071  0F49  2F46               	goto	u3377
  1072  0F4A  2F4B               	nop2
  1073  0F4B                     l2670:
  1074                           
  1075                           ;main_master.c: 189:                         address++;
  1076  0F4B  3001               	movlw	1
  1077  0F4C  1683               	bsf	3,5	;RP0=1, select bank1
  1078  0F4D  1303               	bcf	3,6	;RP1=0, select bank1
  1079  0F4E  00B4               	movwf	??_main^(0+128)
  1080  0F4F  0834               	movf	??_main^(0+128),w
  1081  0F50  07C9               	addwf	_address^(0+128),f
  1082  0F51                     l2672:
  1083                           
  1084                           ;main_master.c: 190:                     }
  1085  0F51  3001               	movlw	1
  1086  0F52  07B8               	addwf	main@j^(0+128),f
  1087  0F53  1803               	skipnc
  1088  0F54  0AB9               	incf	(main@j+1)^(0+128),f
  1089  0F55  3000               	movlw	0
  1090  0F56  07B9               	addwf	(main@j+1)^(0+128),f
  1091  0F57                     l2674:
  1092  0F57  0839               	movf	(main@j+1)^(0+128),w
  1093  0F58  3A80               	xorlw	128
  1094  0F59  00FF               	movwf	btemp+1
  1095  0F5A  3080               	movlw	128
  1096  0F5B  027F               	subwf	btemp+1,w
  1097  0F5C  1D03               	skipz
  1098  0F5D  2F60               	goto	u3285
  1099  0F5E  3004               	movlw	4
  1100  0F5F  0238               	subwf	main@j^(0+128),w
  1101  0F60                     u3285:
  1102  0F60  1C03               	skipc
  1103  0F61  2F63               	goto	u3281
  1104  0F62  2F64               	goto	u3280
  1105  0F63                     u3281:
  1106  0F63  2F2F               	goto	l2666
  1107  0F64                     u3280:
  1108  0F64                     l2676:
  1109                           
  1110                           ;main_master.c: 192:                     CCPR1L = (array[0]>>2);
  1111  0F64  1683               	bsf	3,5	;RP0=1, select bank1
  1112  0F65  1303               	bcf	3,6	;RP1=0, select bank1
  1113  0F66  083A               	movf	_array^(0+128),w
  1114  0F67  00B4               	movwf	??_main^(0+128)
  1115  0F68  3002               	movlw	2
  1116  0F69                     u3295:
  1117  0F69  1003               	clrc
  1118  0F6A  0CB4               	rrf	??_main^(0+128),f
  1119  0F6B  3EFF               	addlw	-1
  1120  0F6C  1D03               	skipz
  1121  0F6D  2F69               	goto	u3295
  1122  0F6E  0834               	movf	??_main^(0+128),w
  1123  0F6F  1283               	bcf	3,5	;RP0=0, select bank0
  1124  0F70  1303               	bcf	3,6	;RP1=0, select bank0
  1125  0F71  0095               	movwf	21	;volatile
  1126                           
  1127                           ;main_master.c: 193:                     CCP1CONbits.DC1B = array[0] & 0b11;
  1128  0F72  1683               	bsf	3,5	;RP0=1, select bank1
  1129  0F73  1303               	bcf	3,6	;RP1=0, select bank1
  1130  0F74  083A               	movf	_array^(0+128),w
  1131  0F75  3903               	andlw	3
  1132  0F76  00B4               	movwf	??_main^(0+128)
  1133  0F77  0EB4               	swapf	??_main^(0+128),f
  1134  0F78  1283               	bcf	3,5	;RP0=0, select bank0
  1135  0F79  1303               	bcf	3,6	;RP1=0, select bank0
  1136  0F7A  0817               	movf	23,w	;volatile
  1137  0F7B  1683               	bsf	3,5	;RP0=1, select bank1
  1138  0F7C  1303               	bcf	3,6	;RP1=0, select bank1
  1139  0F7D  0634               	xorwf	??_main^(0+128),w
  1140  0F7E  39CF               	andlw	-49
  1141  0F7F  0634               	xorwf	??_main^(0+128),w
  1142  0F80  1283               	bcf	3,5	;RP0=0, select bank0
  1143  0F81  1303               	bcf	3,6	;RP1=0, select bank0
  1144  0F82  0097               	movwf	23	;volatile
  1145                           
  1146                           ;main_master.c: 195:                     CCPR2L = (array[1]>>2);
  1147  0F83  1683               	bsf	3,5	;RP0=1, select bank1
  1148  0F84  1303               	bcf	3,6	;RP1=0, select bank1
  1149  0F85  083B               	movf	(_array^(0+128)+1),w
  1150  0F86  00B4               	movwf	??_main^(0+128)
  1151  0F87  3002               	movlw	2
  1152  0F88                     u3305:
  1153  0F88  1003               	clrc
  1154  0F89  0CB4               	rrf	??_main^(0+128),f
  1155  0F8A  3EFF               	addlw	-1
  1156  0F8B  1D03               	skipz
  1157  0F8C  2F88               	goto	u3305
  1158  0F8D  0834               	movf	??_main^(0+128),w
  1159  0F8E  1283               	bcf	3,5	;RP0=0, select bank0
  1160  0F8F  1303               	bcf	3,6	;RP1=0, select bank0
  1161  0F90  009B               	movwf	27	;volatile
  1162                           
  1163                           ;main_master.c: 196:                     CCP2CONbits.DC2B0 = array[1] & 0b01;
  1164  0F91  1683               	bsf	3,5	;RP0=1, select bank1
  1165  0F92  1303               	bcf	3,6	;RP1=0, select bank1
  1166  0F93  083B               	movf	(_array^(0+128)+1),w
  1167  0F94  3901               	andlw	1
  1168  0F95  00B4               	movwf	??_main^(0+128)
  1169  0F96  0EB4               	swapf	??_main^(0+128),f
  1170  0F97  1283               	bcf	3,5	;RP0=0, select bank0
  1171  0F98  1303               	bcf	3,6	;RP1=0, select bank0
  1172  0F99  081D               	movf	29,w	;volatile
  1173  0F9A  1683               	bsf	3,5	;RP0=1, select bank1
  1174  0F9B  1303               	bcf	3,6	;RP1=0, select bank1
  1175  0F9C  0634               	xorwf	??_main^(0+128),w
  1176  0F9D  39EF               	andlw	-17
  1177  0F9E  0634               	xorwf	??_main^(0+128),w
  1178  0F9F  1283               	bcf	3,5	;RP0=0, select bank0
  1179  0FA0  1303               	bcf	3,6	;RP1=0, select bank0
  1180  0FA1  009D               	movwf	29	;volatile
  1181                           
  1182                           ;main_master.c: 197:                     CCP2CONbits.DC2B0 = (array[1] & 0b10)>>1;
  1183  0FA2  1683               	bsf	3,5	;RP0=1, select bank1
  1184  0FA3  1303               	bcf	3,6	;RP1=0, select bank1
  1185  0FA4  083B               	movf	(_array^(0+128)+1),w
  1186  0FA5  00B4               	movwf	??_main^(0+128)
  1187  0FA6  1003               	clrc
  1188  0FA7  0C34               	rrf	??_main^(0+128),w
  1189  0FA8  3901               	andlw	1
  1190  0FA9  00B5               	movwf	(??_main+1)^(0+128)
  1191  0FAA  0EB5               	swapf	(??_main+1)^(0+128),f
  1192  0FAB  1283               	bcf	3,5	;RP0=0, select bank0
  1193  0FAC  1303               	bcf	3,6	;RP1=0, select bank0
  1194  0FAD  081D               	movf	29,w	;volatile
  1195  0FAE  1683               	bsf	3,5	;RP0=1, select bank1
  1196  0FAF  1303               	bcf	3,6	;RP1=0, select bank1
  1197  0FB0  0635               	xorwf	(??_main+1)^(0+128),w
  1198  0FB1  39EF               	andlw	-17
  1199  0FB2  0635               	xorwf	(??_main+1)^(0+128),w
  1200  0FB3  1283               	bcf	3,5	;RP0=0, select bank0
  1201  0FB4  1303               	bcf	3,6	;RP1=0, select bank0
  1202  0FB5  009D               	movwf	29	;volatile
  1203  0FB6                     l2678:
  1204                           
  1205                           ;main_master.c: 200:                     SSPBUF = array[2];
  1206  0FB6  1683               	bsf	3,5	;RP0=1, select bank1
  1207  0FB7  1303               	bcf	3,6	;RP1=0, select bank1
  1208  0FB8  083C               	movf	(_array^(0+128)+2),w
  1209  0FB9  1283               	bcf	3,5	;RP0=0, select bank0
  1210  0FBA  1303               	bcf	3,6	;RP1=0, select bank0
  1211  0FBB  0093               	movwf	19	;volatile
  1212  0FBC                     l182:	
  1213                           ;main_master.c: 201:                     while(!SSPSTATbits.BF){}
  1214                           
  1215  0FBC  1683               	bsf	3,5	;RP0=1, select bank1
  1216  0FBD  1303               	bcf	3,6	;RP1=0, select bank1
  1217  0FBE  1C14               	btfss	20,0	;volatile
  1218  0FBF  2FC1               	goto	u3311
  1219  0FC0  2FC2               	goto	u3310
  1220  0FC1                     u3311:
  1221  0FC1  2FBC               	goto	l182
  1222  0FC2                     u3310:
  1223  0FC2                     l2680:
  1224                           
  1225                           ;main_master.c: 202:                     _delay((unsigned long)((50)*(1000000/4000.0)));
  1226  0FC2  3011               	movlw	17
  1227  0FC3  1683               	bsf	3,5	;RP0=1, select bank1
  1228  0FC4  1303               	bcf	3,6	;RP1=0, select bank1
  1229  0FC5  00B5               	movwf	(??_main^(0+128)+1)
  1230  0FC6  3039               	movlw	57
  1231  0FC7  00B4               	movwf	??_main^(0+128)
  1232  0FC8                     u3387:
  1233  0FC8  0BB4               	decfsz	??_main^(0+128),f
  1234  0FC9  2FC8               	goto	u3387
  1235  0FCA  0BB5               	decfsz	(??_main^(0+128)+1),f
  1236  0FCB  2FC8               	goto	u3387
  1237  0FCC  2FCD               	nop2
  1238                           
  1239                           ;main_master.c: 205:                     SSPBUF = array[3];
  1240  0FCD  1683               	bsf	3,5	;RP0=1, select bank1
  1241  0FCE  1303               	bcf	3,6	;RP1=0, select bank1
  1242  0FCF  083D               	movf	(_array^(0+128)+3),w
  1243  0FD0  1283               	bcf	3,5	;RP0=0, select bank0
  1244  0FD1  1303               	bcf	3,6	;RP1=0, select bank0
  1245  0FD2  0093               	movwf	19	;volatile
  1246  0FD3                     l185:	
  1247                           ;main_master.c: 206:                     while(!SSPSTATbits.BF){}
  1248                           
  1249  0FD3  1683               	bsf	3,5	;RP0=1, select bank1
  1250  0FD4  1303               	bcf	3,6	;RP1=0, select bank1
  1251  0FD5  1C14               	btfss	20,0	;volatile
  1252  0FD6  2FD8               	goto	u3321
  1253  0FD7  2FD9               	goto	u3320
  1254  0FD8                     u3321:
  1255  0FD8  2FD3               	goto	l185
  1256  0FD9                     u3320:
  1257  0FD9                     l2682:
  1258                           
  1259                           ;main_master.c: 207:                     _delay((unsigned long)((50)*(1000000/4000.0)));
  1260  0FD9  3011               	movlw	17
  1261  0FDA  1683               	bsf	3,5	;RP0=1, select bank1
  1262  0FDB  1303               	bcf	3,6	;RP1=0, select bank1
  1263  0FDC  00B5               	movwf	(??_main^(0+128)+1)
  1264  0FDD  3039               	movlw	57
  1265  0FDE  00B4               	movwf	??_main^(0+128)
  1266  0FDF                     u3397:
  1267  0FDF  0BB4               	decfsz	??_main^(0+128),f
  1268  0FE0  2FDF               	goto	u3397
  1269  0FE1  0BB5               	decfsz	(??_main^(0+128)+1),f
  1270  0FE2  2FDF               	goto	u3397
  1271  0FE3  2FE4               	nop2
  1272  0FE4                     l2684:
  1273                           
  1274                           ;main_master.c: 209:                     read_fg = 0;
  1275  0FE4  1683               	bsf	3,5	;RP0=1, select bank1
  1276  0FE5  1303               	bcf	3,6	;RP1=0, select bank1
  1277  0FE6  01C6               	clrf	_read_fg^(0+128)
  1278  0FE7  2E47               	goto	l2600
  1279  0FE8                     l2688:
  1280  0FE8  1683               	bsf	3,5	;RP0=1, select bank1
  1281  0FE9  1303               	bcf	3,6	;RP1=0, select bank1
  1282  0FEA  0848               	movf	_MODO^(0+128),w
  1283  0FEB  00B4               	movwf	??_main^(0+128)
  1284  0FEC  01B5               	clrf	(??_main^(0+128)+1)
  1285                           
  1286                           ; Switch on 2 bytes has been partitioned into a top level switch of size 1, and 1 sub-sw
      +                          itches
  1287                           ; Switch size 1, requested type "simple"
  1288                           ; Number of cases is 1, Range of values is 0 to 0
  1289                           ; switch strategies available:
  1290                           ; Name         Instructions Cycles
  1291                           ; simple_byte            4     3 (average)
  1292                           ; direct_byte           11     8 (fixed)
  1293                           ; jumptable            260     6 (fixed)
  1294                           ;	Chosen strategy is simple_byte
  1295  0FED  0835               	movf	(??_main+1)^(0+128),w
  1296  0FEE  3A00               	xorlw	0	; case 0
  1297  0FEF  1903               	skipnz
  1298  0FF0  2FF2               	goto	l2774
  1299  0FF1  2E47               	goto	l2600
  1300  0FF2                     l2774:
  1301                           
  1302                           ; Switch size 1, requested type "simple"
  1303                           ; Number of cases is 3, Range of values is 0 to 2
  1304                           ; switch strategies available:
  1305                           ; Name         Instructions Cycles
  1306                           ; simple_byte           10     6 (average)
  1307                           ; direct_byte           17     8 (fixed)
  1308                           ; jumptable            260     6 (fixed)
  1309                           ;	Chosen strategy is simple_byte
  1310  0FF2  0834               	movf	??_main^(0+128),w
  1311  0FF3  3A00               	xorlw	0	; case 0
  1312  0FF4  1903               	skipnz
  1313  0FF5  2EBB               	goto	l2632
  1314  0FF6  3A01               	xorlw	1	; case 1
  1315  0FF7  1903               	skipnz
  1316  0FF8  2F28               	goto	l2658
  1317  0FF9  3A03               	xorlw	3	; case 2
  1318  0FFA  1903               	skipnz
  1319  0FFB  2E47               	goto	l2600
  1320  0FFC  2E47               	goto	l2600
  1321  0FFD  120A  118A  2812   	ljmp	start
  1322  1000                     __end_of_main:
  1323                           
  1324                           	psect	text1
  1325  0A13                     __ptext1:	
  1326 ;; *************** function _write_EEPROM *****************
  1327 ;; Defined at:
  1328 ;;		line 316 in file "main_master.c"
  1329 ;; Parameters:    Size  Location     Type
  1330 ;;  address         1    wreg     unsigned char 
  1331 ;;  data            1   18[BANK1 ] unsigned char 
  1332 ;; Auto vars:     Size  Location     Type
  1333 ;;  address         1   19[BANK1 ] unsigned char 
  1334 ;; Return value:  Size  Location     Type
  1335 ;;                  1    wreg      void 
  1336 ;; Registers used:
  1337 ;;		wreg
  1338 ;; Tracked objects:
  1339 ;;		On entry : 0/0
  1340 ;;		On exit  : 0/0
  1341 ;;		Unchanged: 0/0
  1342 ;; Data sizes:     COMMON   BANK0   BANK1   BANK3   BANK2
  1343 ;;      Params:         0       0       1       0       0
  1344 ;;      Locals:         0       0       1       0       0
  1345 ;;      Temps:          0       0       0       0       0
  1346 ;;      Totals:         0       0       2       0       0
  1347 ;;Total ram usage:        2 bytes
  1348 ;; Hardware stack levels used: 1
  1349 ;; Hardware stack levels required when called: 4
  1350 ;; This function calls:
  1351 ;;		Nothing
  1352 ;; This function is called by:
  1353 ;;		_main
  1354 ;; This function uses a non-reentrant model
  1355 ;;
  1356                           
  1357  0A13                     _write_EEPROM:	
  1358                           ;psect for function _write_EEPROM
  1359                           
  1360                           
  1361                           ;incstack = 0
  1362                           ; Regs used in _write_EEPROM: [wreg]
  1363                           ;write_EEPROM@address stored from wreg
  1364  0A13  1683               	bsf	3,5	;RP0=1, select bank1
  1365  0A14  1303               	bcf	3,6	;RP1=0, select bank1
  1366  0A15  00B3               	movwf	write_EEPROM@address^(0+128)
  1367  0A16                     l2490:
  1368                           
  1369                           ;main_master.c: 317:     EEADR = address;
  1370  0A16  0833               	movf	write_EEPROM@address^(0+128),w
  1371  0A17  1283               	bcf	3,5	;RP0=0, select bank2
  1372  0A18  1703               	bsf	3,6	;RP1=1, select bank2
  1373  0A19  008D               	movwf	13	;volatile
  1374                           
  1375                           ;main_master.c: 318:     EEDAT = data;
  1376  0A1A  1683               	bsf	3,5	;RP0=1, select bank1
  1377  0A1B  1303               	bcf	3,6	;RP1=0, select bank1
  1378  0A1C  0832               	movf	write_EEPROM@data^(0+128),w
  1379  0A1D  1283               	bcf	3,5	;RP0=0, select bank2
  1380  0A1E  1703               	bsf	3,6	;RP1=1, select bank2
  1381  0A1F  008C               	movwf	12	;volatile
  1382  0A20                     l2492:
  1383                           
  1384                           ;main_master.c: 319:     EECON1bits.EEPGD = 0;
  1385  0A20  1683               	bsf	3,5	;RP0=1, select bank3
  1386  0A21  1703               	bsf	3,6	;RP1=1, select bank3
  1387  0A22  138C               	bcf	12,7	;volsfr
  1388  0A23                     l2494:
  1389                           
  1390                           ;main_master.c: 320:     EECON1bits.WREN = 1;
  1391  0A23  150C               	bsf	12,2	;volsfr
  1392  0A24                     l2496:
  1393                           
  1394                           ;main_master.c: 322:     INTCONbits.GIE = 0;
  1395  0A24  138B               	bcf	11,7	;volatile
  1396                           
  1397                           ;main_master.c: 323:     EECON2 = 0x55;
  1398  0A25  3055               	movlw	85
  1399  0A26  008D               	movwf	13	;volsfr
  1400                           
  1401                           ;main_master.c: 324:     EECON2 = 0xAA;
  1402  0A27  30AA               	movlw	170
  1403  0A28  008D               	movwf	13	;volsfr
  1404  0A29                     l2498:
  1405                           
  1406                           ;main_master.c: 326:     EECON1bits.WR = 1;
  1407  0A29  148C               	bsf	12,1	;volsfr
  1408  0A2A                     l2500:
  1409                           
  1410                           ;main_master.c: 328:     EECON1bits.WREN = 0;
  1411  0A2A  110C               	bcf	12,2	;volsfr
  1412  0A2B                     l2502:
  1413                           
  1414                           ;main_master.c: 329:     INTCONbits.RBIF = 0;
  1415  0A2B  100B               	bcf	11,0	;volatile
  1416  0A2C                     l2504:
  1417                           
  1418                           ;main_master.c: 330:     INTCONbits.GIE = 1;
  1419  0A2C  178B               	bsf	11,7	;volatile
  1420  0A2D                     l206:
  1421  0A2D  0008               	return
  1422  0A2E                     __end_of_write_EEPROM:
  1423                           
  1424                           	psect	text2
  1425  0A55                     __ptext2:	
  1426 ;; *************** function _setup *****************
  1427 ;; Defined at:
  1428 ;;		line 220 in file "main_master.c"
  1429 ;; Parameters:    Size  Location     Type
  1430 ;;		None
  1431 ;; Auto vars:     Size  Location     Type
  1432 ;;		None
  1433 ;; Return value:  Size  Location     Type
  1434 ;;                  1    wreg      void 
  1435 ;; Registers used:
  1436 ;;		wreg, status,2, status,0
  1437 ;; Tracked objects:
  1438 ;;		On entry : 0/0
  1439 ;;		On exit  : 0/0
  1440 ;;		Unchanged: 0/0
  1441 ;; Data sizes:     COMMON   BANK0   BANK1   BANK3   BANK2
  1442 ;;      Params:         0       0       0       0       0
  1443 ;;      Locals:         0       0       0       0       0
  1444 ;;      Temps:          0       0       1       0       0
  1445 ;;      Totals:         0       0       1       0       0
  1446 ;;Total ram usage:        1 bytes
  1447 ;; Hardware stack levels used: 1
  1448 ;; Hardware stack levels required when called: 4
  1449 ;; This function calls:
  1450 ;;		Nothing
  1451 ;; This function is called by:
  1452 ;;		_main
  1453 ;; This function uses a non-reentrant model
  1454 ;;
  1455                           
  1456  0A55                     _setup:	
  1457                           ;psect for function _setup
  1458                           
  1459  0A55                     l2402:	
  1460                           ;incstack = 0
  1461                           ; Regs used in _setup: [wreg+status,2+status,0]
  1462                           
  1463                           
  1464                           ;main_master.c: 221:     ANSEL = 0b00001111;
  1465  0A55  300F               	movlw	15
  1466  0A56  1683               	bsf	3,5	;RP0=1, select bank3
  1467  0A57  1703               	bsf	3,6	;RP1=1, select bank3
  1468  0A58  0088               	movwf	8	;volatile
  1469  0A59                     l2404:
  1470                           
  1471                           ;main_master.c: 222:     ANSELH = 0;
  1472  0A59  0189               	clrf	9	;volatile
  1473  0A5A                     l2406:
  1474                           
  1475                           ;main_master.c: 224:     TRISB = 0b00000111;
  1476  0A5A  3007               	movlw	7
  1477  0A5B  1683               	bsf	3,5	;RP0=1, select bank1
  1478  0A5C  1303               	bcf	3,6	;RP1=0, select bank1
  1479  0A5D  0086               	movwf	6	;volatile
  1480                           
  1481                           ;main_master.c: 225:     PORTB = 0;
  1482  0A5E  1283               	bcf	3,5	;RP0=0, select bank0
  1483  0A5F  1303               	bcf	3,6	;RP1=0, select bank0
  1484  0A60  0186               	clrf	6	;volatile
  1485                           
  1486                           ;main_master.c: 226:     TRISD = 0;
  1487  0A61  1683               	bsf	3,5	;RP0=1, select bank1
  1488  0A62  1303               	bcf	3,6	;RP1=0, select bank1
  1489  0A63  0188               	clrf	8	;volatile
  1490                           
  1491                           ;main_master.c: 227:     PORTD = 0;
  1492  0A64  1283               	bcf	3,5	;RP0=0, select bank0
  1493  0A65  1303               	bcf	3,6	;RP1=0, select bank0
  1494  0A66  0188               	clrf	8	;volatile
  1495                           
  1496                           ;main_master.c: 228:     TRISE = 0;
  1497  0A67  1683               	bsf	3,5	;RP0=1, select bank1
  1498  0A68  1303               	bcf	3,6	;RP1=0, select bank1
  1499  0A69  0189               	clrf	9	;volatile
  1500                           
  1501                           ;main_master.c: 229:     PORTE = 0;
  1502  0A6A  1283               	bcf	3,5	;RP0=0, select bank0
  1503  0A6B  1303               	bcf	3,6	;RP1=0, select bank0
  1504  0A6C  0189               	clrf	9	;volatile
  1505  0A6D                     l2408:
  1506                           
  1507                           ;main_master.c: 231:     TRISA = 0b00001111;
  1508  0A6D  300F               	movlw	15
  1509  0A6E  1683               	bsf	3,5	;RP0=1, select bank1
  1510  0A6F  1303               	bcf	3,6	;RP1=0, select bank1
  1511  0A70  0085               	movwf	5	;volatile
  1512  0A71                     l2410:
  1513                           
  1514                           ;main_master.c: 232:     PORTA = 0;
  1515  0A71  1283               	bcf	3,5	;RP0=0, select bank0
  1516  0A72  1303               	bcf	3,6	;RP1=0, select bank0
  1517  0A73  0185               	clrf	5	;volatile
  1518  0A74                     l2412:
  1519                           
  1520                           ;main_master.c: 234:     OPTION_REGbits.nRBPU = 0;
  1521  0A74  1683               	bsf	3,5	;RP0=1, select bank1
  1522  0A75  1303               	bcf	3,6	;RP1=0, select bank1
  1523  0A76  1381               	bcf	1,7	;volatile
  1524                           
  1525                           ;main_master.c: 235:     WPUB = 0b00000111;
  1526  0A77  3007               	movlw	7
  1527  0A78  0095               	movwf	21	;volatile
  1528                           
  1529                           ;main_master.c: 236:     IOCB = 0b00000111;
  1530  0A79  3007               	movlw	7
  1531  0A7A  0096               	movwf	22	;volatile
  1532  0A7B                     l2414:
  1533                           
  1534                           ;main_master.c: 238:     OSCCONbits.IRCF = 0b100;
  1535  0A7B  080F               	movf	15,w	;volatile
  1536  0A7C  398F               	andlw	-113
  1537  0A7D  3840               	iorlw	64
  1538  0A7E  008F               	movwf	15	;volatile
  1539  0A7F                     l2416:
  1540                           
  1541                           ;main_master.c: 239:     OSCCONbits.SCS = 1;
  1542  0A7F  140F               	bsf	15,0	;volatile
  1543  0A80                     l2418:
  1544                           
  1545                           ;main_master.c: 242:     ADCON0bits.ADCS = 0b01;
  1546  0A80  1283               	bcf	3,5	;RP0=0, select bank0
  1547  0A81  1303               	bcf	3,6	;RP1=0, select bank0
  1548  0A82  081F               	movf	31,w	;volatile
  1549  0A83  393F               	andlw	-193
  1550  0A84  3840               	iorlw	64
  1551  0A85  009F               	movwf	31	;volatile
  1552  0A86                     l2420:
  1553                           
  1554                           ;main_master.c: 243:     ADCON1bits.VCFG0 = 0;
  1555  0A86  1683               	bsf	3,5	;RP0=1, select bank1
  1556  0A87  1303               	bcf	3,6	;RP1=0, select bank1
  1557  0A88  121F               	bcf	31,4	;volatile
  1558  0A89                     l2422:
  1559                           
  1560                           ;main_master.c: 244:     ADCON1bits.VCFG1 = 0;
  1561  0A89  129F               	bcf	31,5	;volatile
  1562  0A8A                     l2424:
  1563                           
  1564                           ;main_master.c: 245:     ADCON0bits.CHS = 0b0000;
  1565  0A8A  30C3               	movlw	-61
  1566  0A8B  1283               	bcf	3,5	;RP0=0, select bank0
  1567  0A8C  1303               	bcf	3,6	;RP1=0, select bank0
  1568  0A8D  059F               	andwf	31,f	;volatile
  1569  0A8E                     l2426:
  1570                           
  1571                           ;main_master.c: 246:     ADCON1bits.ADFM = 0;
  1572  0A8E  1683               	bsf	3,5	;RP0=1, select bank1
  1573  0A8F  1303               	bcf	3,6	;RP1=0, select bank1
  1574  0A90  139F               	bcf	31,7	;volatile
  1575  0A91                     l2428:
  1576                           
  1577                           ;main_master.c: 247:     ADCON0bits.ADON = 1;
  1578  0A91  1283               	bcf	3,5	;RP0=0, select bank0
  1579  0A92  1303               	bcf	3,6	;RP1=0, select bank0
  1580  0A93  141F               	bsf	31,0	;volatile
  1581  0A94                     l2430:
  1582                           
  1583                           ;main_master.c: 248:     _delay((unsigned long)((40)*(1000000/4000000.0)));
  1584  0A94  3002               	movlw	2
  1585  0A95  1683               	bsf	3,5	;RP0=1, select bank1
  1586  0A96  1303               	bcf	3,6	;RP1=0, select bank1
  1587  0A97  00B2               	movwf	??_setup^(0+128)
  1588  0A98                     u3407:
  1589  0A98  0BB2               	decfsz	??_setup^(0+128),f
  1590  0A99  2A98               	goto	u3407
  1591  0A9A  0000               	nop
  1592  0A9B                     l2432:
  1593                           
  1594                           ;main_master.c: 251:     TRISCbits.TRISC2 = 1;
  1595  0A9B  1683               	bsf	3,5	;RP0=1, select bank1
  1596  0A9C  1303               	bcf	3,6	;RP1=0, select bank1
  1597  0A9D  1507               	bsf	7,2	;volatile
  1598  0A9E                     l2434:
  1599                           
  1600                           ;main_master.c: 252:     TRISCbits.TRISC1 = 1;
  1601  0A9E  1487               	bsf	7,1	;volatile
  1602  0A9F                     l2436:
  1603                           
  1604                           ;main_master.c: 253:     PR2 = 61;
  1605  0A9F  303D               	movlw	61
  1606  0AA0  0092               	movwf	18	;volatile
  1607  0AA1                     l2438:
  1608                           
  1609                           ;main_master.c: 256:     CCP1CON = 0;
  1610  0AA1  1283               	bcf	3,5	;RP0=0, select bank0
  1611  0AA2  1303               	bcf	3,6	;RP1=0, select bank0
  1612  0AA3  0197               	clrf	23	;volatile
  1613  0AA4                     l2440:
  1614                           
  1615                           ;main_master.c: 257:     CCP1CONbits.P1M = 0;
  1616  0AA4  303F               	movlw	-193
  1617  0AA5  0597               	andwf	23,f	;volatile
  1618  0AA6                     l2442:
  1619                           
  1620                           ;main_master.c: 258:     CCP1CONbits.CCP1M = 0b1100;
  1621  0AA6  0817               	movf	23,w	;volatile
  1622  0AA7  39F0               	andlw	-16
  1623  0AA8  380C               	iorlw	12
  1624  0AA9  0097               	movwf	23	;volatile
  1625  0AAA                     l2444:
  1626                           
  1627                           ;main_master.c: 259:     CCPR1L = 61>>2;
  1628  0AAA  300F               	movlw	15
  1629  0AAB  0095               	movwf	21	;volatile
  1630  0AAC                     l2446:
  1631                           
  1632                           ;main_master.c: 260:     CCP1CONbits.DC1B = 61 & 0b11;
  1633  0AAC  0817               	movf	23,w	;volatile
  1634  0AAD  39CF               	andlw	-49
  1635  0AAE  3810               	iorlw	16
  1636  0AAF  0097               	movwf	23	;volatile
  1637                           
  1638                           ;main_master.c: 263:     CCP2CON = 0;
  1639  0AB0  019D               	clrf	29	;volatile
  1640  0AB1                     l2448:
  1641                           
  1642                           ;main_master.c: 264:     CCP2CONbits.CCP2M = 0b1100;
  1643  0AB1  081D               	movf	29,w	;volatile
  1644  0AB2  39F0               	andlw	-16
  1645  0AB3  380C               	iorlw	12
  1646  0AB4  009D               	movwf	29	;volatile
  1647  0AB5                     l2450:
  1648                           
  1649                           ;main_master.c: 265:     CCPR2L = 61>>2;
  1650  0AB5  300F               	movlw	15
  1651  0AB6  009B               	movwf	27	;volatile
  1652  0AB7                     l2452:
  1653                           
  1654                           ;main_master.c: 266:     CCP2CONbits.DC2B0 = 61 & 0b01;
  1655  0AB7  161D               	bsf	29,4	;volatile
  1656  0AB8                     l2454:
  1657                           
  1658                           ;main_master.c: 267:     CCP2CONbits.DC2B1 = (61 & 0b10)>>1;
  1659  0AB8  129D               	bcf	29,5	;volatile
  1660  0AB9                     l2456:
  1661                           
  1662                           ;main_master.c: 270:     PIR1bits.TMR2IF = 0;
  1663  0AB9  108C               	bcf	12,1	;volatile
  1664  0ABA                     l2458:
  1665                           
  1666                           ;main_master.c: 271:     T2CONbits.T2CKPS = 0b11;
  1667  0ABA  3003               	movlw	3
  1668  0ABB  0492               	iorwf	18,f	;volatile
  1669  0ABC                     l2460:
  1670                           
  1671                           ;main_master.c: 272:     T2CONbits.TMR2ON = 1;
  1672  0ABC  1512               	bsf	18,2	;volatile
  1673  0ABD                     l194:	
  1674                           ;main_master.c: 273:     while(!PIR1bits.TMR2IF);
  1675                           
  1676  0ABD  1C8C               	btfss	12,1	;volatile
  1677  0ABE  2AC0               	goto	u3061
  1678  0ABF  2AC1               	goto	u3060
  1679  0AC0                     u3061:
  1680  0AC0  2ABD               	goto	l194
  1681  0AC1                     u3060:
  1682  0AC1                     l196:
  1683                           
  1684                           ;main_master.c: 274:     PIR1bits.TMR2IF = 0;
  1685  0AC1  108C               	bcf	12,1	;volatile
  1686                           
  1687                           ;main_master.c: 276:     TRISCbits.TRISC2 = 0;
  1688  0AC2  1683               	bsf	3,5	;RP0=1, select bank1
  1689  0AC3  1303               	bcf	3,6	;RP1=0, select bank1
  1690  0AC4  1107               	bcf	7,2	;volatile
  1691                           
  1692                           ;main_master.c: 277:     TRISCbits.TRISC1 = 0;
  1693  0AC5  1087               	bcf	7,1	;volatile
  1694  0AC6                     l2462:
  1695                           
  1696                           ;main_master.c: 282:     TRISC = 0b00010000;
  1697  0AC6  3010               	movlw	16
  1698  0AC7  0087               	movwf	7	;volatile
  1699  0AC8                     l2464:
  1700                           
  1701                           ;main_master.c: 283:     PORTC = 0;
  1702  0AC8  1283               	bcf	3,5	;RP0=0, select bank0
  1703  0AC9  1303               	bcf	3,6	;RP1=0, select bank0
  1704  0ACA  0187               	clrf	7	;volatile
  1705  0ACB                     l2466:
  1706                           
  1707                           ;main_master.c: 286:     SSPCONbits.SSPM = 0b0000;
  1708  0ACB  30F0               	movlw	-16
  1709  0ACC  0594               	andwf	20,f	;volatile
  1710  0ACD                     l2468:
  1711                           
  1712                           ;main_master.c: 287:     SSPCONbits.CKP = 0;
  1713  0ACD  1214               	bcf	20,4	;volatile
  1714  0ACE                     l2470:
  1715                           
  1716                           ;main_master.c: 288:     SSPCONbits.SSPEN = 1;
  1717  0ACE  1694               	bsf	20,5	;volatile
  1718  0ACF                     l2472:
  1719                           
  1720                           ;main_master.c: 290:     SSPSTATbits.CKE = 1;
  1721  0ACF  1683               	bsf	3,5	;RP0=1, select bank1
  1722  0AD0  1303               	bcf	3,6	;RP1=0, select bank1
  1723  0AD1  1714               	bsf	20,6	;volatile
  1724  0AD2                     l2474:
  1725                           
  1726                           ;main_master.c: 291:     SSPSTATbits.SMP = 1;
  1727  0AD2  1794               	bsf	20,7	;volatile
  1728  0AD3                     l2476:
  1729                           
  1730                           ;main_master.c: 292:     SSPBUF = POT1_slave;
  1731  0AD3  084C               	movf	_POT1_slave^(0+128),w
  1732  0AD4  1283               	bcf	3,5	;RP0=0, select bank0
  1733  0AD5  1303               	bcf	3,6	;RP1=0, select bank0
  1734  0AD6  0093               	movwf	19	;volatile
  1735  0AD7                     l2478:
  1736                           
  1737                           ;main_master.c: 295:     INTCONbits.GIE = 1;
  1738  0AD7  178B               	bsf	11,7	;volatile
  1739  0AD8                     l2480:
  1740                           
  1741                           ;main_master.c: 296:     INTCONbits.PEIE = 1;
  1742  0AD8  170B               	bsf	11,6	;volatile
  1743  0AD9                     l2482:
  1744                           
  1745                           ;main_master.c: 297:     PIE1bits.ADIE = 1;
  1746  0AD9  1683               	bsf	3,5	;RP0=1, select bank1
  1747  0ADA  1303               	bcf	3,6	;RP1=0, select bank1
  1748  0ADB  170C               	bsf	12,6	;volatile
  1749  0ADC                     l2484:
  1750                           
  1751                           ;main_master.c: 298:     PIR1bits.ADIF = 0;
  1752  0ADC  1283               	bcf	3,5	;RP0=0, select bank0
  1753  0ADD  1303               	bcf	3,6	;RP1=0, select bank0
  1754  0ADE  130C               	bcf	12,6	;volatile
  1755  0ADF                     l2486:
  1756                           
  1757                           ;main_master.c: 299:     INTCONbits.RBIE = 1;
  1758  0ADF  158B               	bsf	11,3	;volatile
  1759  0AE0                     l2488:
  1760                           
  1761                           ;main_master.c: 300:     INTCONbits.RBIF = 0;
  1762  0AE0  100B               	bcf	11,0	;volatile
  1763  0AE1                     l197:
  1764  0AE1  0008               	return
  1765  0AE2                     __end_of_setup:
  1766                           
  1767                           	psect	text3
  1768  09F1                     __ptext3:	
  1769 ;; *************** function _read_EEPROM *****************
  1770 ;; Defined at:
  1771 ;;		line 309 in file "main_master.c"
  1772 ;; Parameters:    Size  Location     Type
  1773 ;;  address         1    wreg     unsigned char 
  1774 ;; Auto vars:     Size  Location     Type
  1775 ;;  address         1   18[BANK1 ] unsigned char 
  1776 ;; Return value:  Size  Location     Type
  1777 ;;                  1    wreg      unsigned char 
  1778 ;; Registers used:
  1779 ;;		wreg
  1780 ;; Tracked objects:
  1781 ;;		On entry : 0/0
  1782 ;;		On exit  : 0/0
  1783 ;;		Unchanged: 0/0
  1784 ;; Data sizes:     COMMON   BANK0   BANK1   BANK3   BANK2
  1785 ;;      Params:         0       0       0       0       0
  1786 ;;      Locals:         0       0       1       0       0
  1787 ;;      Temps:          0       0       0       0       0
  1788 ;;      Totals:         0       0       1       0       0
  1789 ;;Total ram usage:        1 bytes
  1790 ;; Hardware stack levels used: 1
  1791 ;; Hardware stack levels required when called: 4
  1792 ;; This function calls:
  1793 ;;		Nothing
  1794 ;; This function is called by:
  1795 ;;		_main
  1796 ;; This function uses a non-reentrant model
  1797 ;;
  1798                           
  1799  09F1                     _read_EEPROM:	
  1800                           ;psect for function _read_EEPROM
  1801                           
  1802                           
  1803                           ;incstack = 0
  1804                           ; Regs used in _read_EEPROM: [wreg]
  1805                           ;read_EEPROM@address stored from wreg
  1806  09F1  1683               	bsf	3,5	;RP0=1, select bank1
  1807  09F2  1303               	bcf	3,6	;RP1=0, select bank1
  1808  09F3  00B2               	movwf	read_EEPROM@address^(0+128)
  1809  09F4                     l2506:
  1810                           
  1811                           ;main_master.c: 310:     EEADR = address;
  1812  09F4  0832               	movf	read_EEPROM@address^(0+128),w
  1813  09F5  1283               	bcf	3,5	;RP0=0, select bank2
  1814  09F6  1703               	bsf	3,6	;RP1=1, select bank2
  1815  09F7  008D               	movwf	13	;volatile
  1816  09F8                     l2508:
  1817                           
  1818                           ;main_master.c: 311:     EECON1bits.EEPGD = 0;
  1819  09F8  1683               	bsf	3,5	;RP0=1, select bank3
  1820  09F9  1703               	bsf	3,6	;RP1=1, select bank3
  1821  09FA  138C               	bcf	12,7	;volsfr
  1822  09FB                     l2510:
  1823                           
  1824                           ;main_master.c: 312:     EECON1bits.RD = 1;
  1825  09FB  140C               	bsf	12,0	;volsfr
  1826                           
  1827                           ;main_master.c: 313:     return EEDAT;
  1828  09FC  1283               	bcf	3,5	;RP0=0, select bank2
  1829  09FD  1703               	bsf	3,6	;RP1=1, select bank2
  1830  09FE  080C               	movf	12,w	;volatile
  1831  09FF                     l203:
  1832  09FF  0008               	return
  1833  0A00                     __end_of_read_EEPROM:
  1834                           
  1835                           	psect	text4
  1836  0CEA                     __ptext4:	
  1837 ;; *************** function _isr *****************
  1838 ;; Defined at:
  1839 ;;		line 52 in file "main_master.c"
  1840 ;; Parameters:    Size  Location     Type
  1841 ;;		None
  1842 ;; Auto vars:     Size  Location     Type
  1843 ;;		None
  1844 ;; Return value:  Size  Location     Type
  1845 ;;                  1    wreg      void 
  1846 ;; Registers used:
  1847 ;;		wreg, fsr0l, fsr0h, status,2, status,0, btemp+1, pclath, cstack
  1848 ;; Tracked objects:
  1849 ;;		On entry : 0/0
  1850 ;;		On exit  : 0/0
  1851 ;;		Unchanged: 0/0
  1852 ;; Data sizes:     COMMON   BANK0   BANK1   BANK3   BANK2
  1853 ;;      Params:         0       0       0       0       0
  1854 ;;      Locals:         0       0       0       0       0
  1855 ;;      Temps:          0       0       7       0       0
  1856 ;;      Totals:         0       0       7       0       0
  1857 ;;Total ram usage:        7 bytes
  1858 ;; Hardware stack levels used: 1
  1859 ;; Hardware stack levels required when called: 3
  1860 ;; This function calls:
  1861 ;;		_map
  1862 ;; This function is called by:
  1863 ;;		Interrupt level 1
  1864 ;; This function uses a non-reentrant model
  1865 ;;
  1866                           
  1867  0CEA                     _isr:	
  1868                           ;psect for function _isr
  1869                           
  1870  0CEA                     i1l2514:
  1871                           
  1872                           ;main_master.c: 53:     if (PIR1bits.SSPIF){
  1873  0CEA  1283               	bcf	3,5	;RP0=0, select bank0
  1874  0CEB  1303               	bcf	3,6	;RP1=0, select bank0
  1875  0CEC  1D8C               	btfss	12,3	;volatile
  1876  0CED  2CEF               	goto	u307_21
  1877  0CEE  2CF0               	goto	u307_20
  1878  0CEF                     u307_21:
  1879  0CEF  2CF1               	goto	i1l123
  1880  0CF0                     u307_20:
  1881  0CF0                     i1l2516:
  1882                           
  1883                           ;main_master.c: 54:         PIR1bits.SSPIF = 0;
  1884  0CF0  118C               	bcf	12,3	;volatile
  1885  0CF1                     i1l123:	
  1886                           ;main_master.c: 55:     }
  1887                           
  1888                           
  1889                           ;main_master.c: 57:     if(PIR1bits.ADIF){
  1890  0CF1  1F0C               	btfss	12,6	;volatile
  1891  0CF2  2CF4               	goto	u308_21
  1892  0CF3  2CF5               	goto	u308_20
  1893  0CF4                     u308_21:
  1894  0CF4  2DD9               	goto	i1l124
  1895  0CF5                     u308_20:
  1896  0CF5  2DBE               	goto	i1l2556
  1897  0CF6                     i1l2520:
  1898                           
  1899                           ;main_master.c: 60:                 if (MODO == 0){
  1900  0CF6  0848               	movf	_MODO^(0+128),w
  1901  0CF7  1D03               	btfss	3,2
  1902  0CF8  2CFA               	goto	u309_21
  1903  0CF9  2CFB               	goto	u309_20
  1904  0CFA                     u309_21:
  1905  0CFA  2DD6               	goto	i1l128
  1906  0CFB                     u309_20:
  1907  0CFB                     i1l2522:
  1908                           
  1909                           ;main_master.c: 61:                     CCPR = map(ADRESH, 0, 255, 61, 126);
  1910  0CFB  01A5               	clrf	map@x0^(0+128)
  1911  0CFC  30FF               	movlw	255
  1912  0CFD  00AB               	movwf	??_isr^(0+128)
  1913  0CFE  082B               	movf	??_isr^(0+128),w
  1914  0CFF  00A6               	movwf	map@x1^(0+128)
  1915  0D00  303D               	movlw	61
  1916  0D01  00A7               	movwf	map@y0^(0+128)
  1917  0D02  3000               	movlw	0
  1918  0D03  00A8               	movwf	(map@y0^(0+128)+1)
  1919  0D04  307E               	movlw	126
  1920  0D05  00A9               	movwf	map@y1^(0+128)
  1921  0D06  3000               	movlw	0
  1922  0D07  00AA               	movwf	(map@y1^(0+128)+1)
  1923  0D08  1283               	bcf	3,5	;RP0=0, select bank0
  1924  0D09  1303               	bcf	3,6	;RP1=0, select bank0
  1925  0D0A  081E               	movf	30,w	;volatile
  1926  0D0B  120A  158A  237E  120A  158A  	fcall	_map
  1927  0D10  1683               	bsf	3,5	;RP0=1, select bank1
  1928  0D11  1303               	bcf	3,6	;RP1=0, select bank1
  1929  0D12  0826               	movf	(?_map+1)^(0+128),w
  1930  0D13  00C5               	movwf	(_CCPR+1)^(0+128)
  1931  0D14  0825               	movf	?_map^(0+128),w
  1932  0D15  00C4               	movwf	_CCPR^(0+128)
  1933  0D16                     i1l2524:
  1934                           
  1935                           ;main_master.c: 62:                     CCPR1L = (uint8_t)(CCPR>>2);
  1936  0D16  0845               	movf	(_CCPR+1)^(0+128),w
  1937  0D17  00AC               	movwf	(??_isr^(0+128)+1)
  1938  0D18  0844               	movf	_CCPR^(0+128),w
  1939  0D19  00AB               	movwf	??_isr^(0+128)
  1940  0D1A  1003               	clrc
  1941  0D1B  0CAC               	rrf	(??_isr^(0+128)+1),f
  1942  0D1C  0CAB               	rrf	??_isr^(0+128),f
  1943  0D1D  1003               	clrc
  1944  0D1E  0CAC               	rrf	(??_isr^(0+128)+1),f
  1945  0D1F  0CAB               	rrf	??_isr^(0+128),f
  1946  0D20  082B               	movf	??_isr^(0+128),w
  1947  0D21  1283               	bcf	3,5	;RP0=0, select bank0
  1948  0D22  1303               	bcf	3,6	;RP1=0, select bank0
  1949  0D23  0095               	movwf	21	;volatile
  1950  0D24                     i1l2526:
  1951                           
  1952                           ;main_master.c: 63:                     CCP1CONbits.DC1B = CCPR & 0b11;
  1953  0D24  1683               	bsf	3,5	;RP0=1, select bank1
  1954  0D25  1303               	bcf	3,6	;RP1=0, select bank1
  1955  0D26  0844               	movf	_CCPR^(0+128),w
  1956  0D27  3903               	andlw	3
  1957  0D28  00AB               	movwf	??_isr^(0+128)
  1958  0D29  0EAB               	swapf	??_isr^(0+128),f
  1959  0D2A  1283               	bcf	3,5	;RP0=0, select bank0
  1960  0D2B  1303               	bcf	3,6	;RP1=0, select bank0
  1961  0D2C  0817               	movf	23,w	;volatile
  1962  0D2D  1683               	bsf	3,5	;RP0=1, select bank1
  1963  0D2E  1303               	bcf	3,6	;RP1=0, select bank1
  1964  0D2F  062B               	xorwf	??_isr^(0+128),w
  1965  0D30  39CF               	andlw	-49
  1966  0D31  062B               	xorwf	??_isr^(0+128),w
  1967  0D32  1283               	bcf	3,5	;RP0=0, select bank0
  1968  0D33  1303               	bcf	3,6	;RP1=0, select bank0
  1969  0D34  0097               	movwf	23	;volatile
  1970  0D35                     i1l2528:
  1971                           
  1972                           ;main_master.c: 64:                     array[0] = (char)CCPR;
  1973  0D35  1683               	bsf	3,5	;RP0=1, select bank1
  1974  0D36  1303               	bcf	3,6	;RP1=0, select bank1
  1975  0D37  0844               	movf	_CCPR^(0+128),w
  1976  0D38  00AB               	movwf	??_isr^(0+128)
  1977  0D39  082B               	movf	??_isr^(0+128),w
  1978  0D3A  00BA               	movwf	_array^(0+128)
  1979  0D3B  2DD6               	goto	i1l128
  1980  0D3C                     i1l2530:
  1981                           
  1982                           ;main_master.c: 68:                 if (MODO == 0){
  1983  0D3C  0848               	movf	_MODO^(0+128),w
  1984  0D3D  1D03               	btfss	3,2
  1985  0D3E  2D40               	goto	u310_21
  1986  0D3F  2D41               	goto	u310_20
  1987  0D40                     u310_21:
  1988  0D40  2DD6               	goto	i1l128
  1989  0D41                     u310_20:
  1990  0D41                     i1l2532:
  1991                           
  1992                           ;main_master.c: 69:                     CCPR_2 = map(ADRESH, 0, 255, 61, 126);
  1993  0D41  01A5               	clrf	map@x0^(0+128)
  1994  0D42  30FF               	movlw	255
  1995  0D43  00AB               	movwf	??_isr^(0+128)
  1996  0D44  082B               	movf	??_isr^(0+128),w
  1997  0D45  00A6               	movwf	map@x1^(0+128)
  1998  0D46  303D               	movlw	61
  1999  0D47  00A7               	movwf	map@y0^(0+128)
  2000  0D48  3000               	movlw	0
  2001  0D49  00A8               	movwf	(map@y0^(0+128)+1)
  2002  0D4A  307E               	movlw	126
  2003  0D4B  00A9               	movwf	map@y1^(0+128)
  2004  0D4C  3000               	movlw	0
  2005  0D4D  00AA               	movwf	(map@y1^(0+128)+1)
  2006  0D4E  1283               	bcf	3,5	;RP0=0, select bank0
  2007  0D4F  1303               	bcf	3,6	;RP1=0, select bank0
  2008  0D50  081E               	movf	30,w	;volatile
  2009  0D51  120A  158A  237E  120A  158A  	fcall	_map
  2010  0D56  1683               	bsf	3,5	;RP0=1, select bank1
  2011  0D57  1303               	bcf	3,6	;RP1=0, select bank1
  2012  0D58  0826               	movf	(?_map+1)^(0+128),w
  2013  0D59  00C3               	movwf	(_CCPR_2+1)^(0+128)
  2014  0D5A  0825               	movf	?_map^(0+128),w
  2015  0D5B  00C2               	movwf	_CCPR_2^(0+128)
  2016  0D5C                     i1l2534:
  2017                           
  2018                           ;main_master.c: 70:                     CCPR2L = (uint8_t)(CCPR_2>>2);
  2019  0D5C  0843               	movf	(_CCPR_2+1)^(0+128),w
  2020  0D5D  00AC               	movwf	(??_isr^(0+128)+1)
  2021  0D5E  0842               	movf	_CCPR_2^(0+128),w
  2022  0D5F  00AB               	movwf	??_isr^(0+128)
  2023  0D60  1003               	clrc
  2024  0D61  0CAC               	rrf	(??_isr^(0+128)+1),f
  2025  0D62  0CAB               	rrf	??_isr^(0+128),f
  2026  0D63  1003               	clrc
  2027  0D64  0CAC               	rrf	(??_isr^(0+128)+1),f
  2028  0D65  0CAB               	rrf	??_isr^(0+128),f
  2029  0D66  082B               	movf	??_isr^(0+128),w
  2030  0D67  1283               	bcf	3,5	;RP0=0, select bank0
  2031  0D68  1303               	bcf	3,6	;RP1=0, select bank0
  2032  0D69  009B               	movwf	27	;volatile
  2033  0D6A                     i1l2536:
  2034                           
  2035                           ;main_master.c: 71:                     CCP2CONbits.DC2B0 = CCPR_2 & 0b01;
  2036  0D6A  1683               	bsf	3,5	;RP0=1, select bank1
  2037  0D6B  1303               	bcf	3,6	;RP1=0, select bank1
  2038  0D6C  0842               	movf	_CCPR_2^(0+128),w
  2039  0D6D  3901               	andlw	1
  2040  0D6E  00AB               	movwf	??_isr^(0+128)
  2041  0D6F  0EAB               	swapf	??_isr^(0+128),f
  2042  0D70  1283               	bcf	3,5	;RP0=0, select bank0
  2043  0D71  1303               	bcf	3,6	;RP1=0, select bank0
  2044  0D72  081D               	movf	29,w	;volatile
  2045  0D73  1683               	bsf	3,5	;RP0=1, select bank1
  2046  0D74  1303               	bcf	3,6	;RP1=0, select bank1
  2047  0D75  062B               	xorwf	??_isr^(0+128),w
  2048  0D76  39EF               	andlw	-17
  2049  0D77  062B               	xorwf	??_isr^(0+128),w
  2050  0D78  1283               	bcf	3,5	;RP0=0, select bank0
  2051  0D79  1303               	bcf	3,6	;RP1=0, select bank0
  2052  0D7A  009D               	movwf	29	;volatile
  2053  0D7B                     i1l2538:
  2054                           
  2055                           ;main_master.c: 72:                     CCP2CONbits.DC2B0 = (CCPR_2 & 0b10)>>1;
  2056  0D7B  1683               	bsf	3,5	;RP0=1, select bank1
  2057  0D7C  1303               	bcf	3,6	;RP1=0, select bank1
  2058  0D7D  0843               	movf	(_CCPR_2+1)^(0+128),w
  2059  0D7E  00AC               	movwf	(??_isr^(0+128)+1)
  2060  0D7F  0842               	movf	_CCPR_2^(0+128),w
  2061  0D80  00AB               	movwf	??_isr^(0+128)
  2062  0D81  1003               	clrc
  2063  0D82  0CAC               	rrf	(??_isr^(0+128)+1),f
  2064  0D83  0CAB               	rrf	??_isr^(0+128),f
  2065  0D84  082B               	movf	??_isr^(0+128),w
  2066  0D85  3901               	andlw	1
  2067  0D86  00AD               	movwf	(??_isr+2)^(0+128)
  2068  0D87  0EAD               	swapf	(??_isr+2)^(0+128),f
  2069  0D88  1283               	bcf	3,5	;RP0=0, select bank0
  2070  0D89  1303               	bcf	3,6	;RP1=0, select bank0
  2071  0D8A  081D               	movf	29,w	;volatile
  2072  0D8B  1683               	bsf	3,5	;RP0=1, select bank1
  2073  0D8C  1303               	bcf	3,6	;RP1=0, select bank1
  2074  0D8D  062D               	xorwf	(??_isr+2)^(0+128),w
  2075  0D8E  39EF               	andlw	-17
  2076  0D8F  062D               	xorwf	(??_isr+2)^(0+128),w
  2077  0D90  1283               	bcf	3,5	;RP0=0, select bank0
  2078  0D91  1303               	bcf	3,6	;RP1=0, select bank0
  2079  0D92  009D               	movwf	29	;volatile
  2080  0D93                     i1l2540:
  2081                           
  2082                           ;main_master.c: 73:                     array[1] = (char)CCPR_2;
  2083  0D93  1683               	bsf	3,5	;RP0=1, select bank1
  2084  0D94  1303               	bcf	3,6	;RP1=0, select bank1
  2085  0D95  0842               	movf	_CCPR_2^(0+128),w
  2086  0D96  00AB               	movwf	??_isr^(0+128)
  2087  0D97  082B               	movf	??_isr^(0+128),w
  2088  0D98  00BB               	movwf	(_array^(0+128)+1)
  2089  0D99  2DD6               	goto	i1l128
  2090  0D9A                     i1l2542:
  2091                           
  2092                           ;main_master.c: 77:                 POT1_slave = ADRESH;
  2093  0D9A  1283               	bcf	3,5	;RP0=0, select bank0
  2094  0D9B  1303               	bcf	3,6	;RP1=0, select bank0
  2095  0D9C  081E               	movf	30,w	;volatile
  2096  0D9D  1683               	bsf	3,5	;RP0=1, select bank1
  2097  0D9E  1303               	bcf	3,6	;RP1=0, select bank1
  2098  0D9F  00AB               	movwf	??_isr^(0+128)
  2099  0DA0  082B               	movf	??_isr^(0+128),w
  2100  0DA1  00CC               	movwf	_POT1_slave^(0+128)
  2101  0DA2                     i1l2544:
  2102                           
  2103                           ;main_master.c: 78:                 if (MODO == 0)
  2104  0DA2  0848               	movf	_MODO^(0+128),w
  2105  0DA3  1D03               	btfss	3,2
  2106  0DA4  2DA6               	goto	u311_21
  2107  0DA5  2DA7               	goto	u311_20
  2108  0DA6                     u311_21:
  2109  0DA6  2DD6               	goto	i1l128
  2110  0DA7                     u311_20:
  2111  0DA7                     i1l2546:
  2112                           
  2113                           ;main_master.c: 79:                     array[2] = POT1_slave;
  2114  0DA7  084C               	movf	_POT1_slave^(0+128),w
  2115  0DA8  00AB               	movwf	??_isr^(0+128)
  2116  0DA9  082B               	movf	??_isr^(0+128),w
  2117  0DAA  00BC               	movwf	(_array^(0+128)+2)
  2118  0DAB  2DD6               	goto	i1l128
  2119  0DAC                     i1l2548:
  2120                           
  2121                           ;main_master.c: 82:                 POT2_slave = ADRESH;
  2122  0DAC  1283               	bcf	3,5	;RP0=0, select bank0
  2123  0DAD  1303               	bcf	3,6	;RP1=0, select bank0
  2124  0DAE  081E               	movf	30,w	;volatile
  2125  0DAF  1683               	bsf	3,5	;RP0=1, select bank1
  2126  0DB0  1303               	bcf	3,6	;RP1=0, select bank1
  2127  0DB1  00AB               	movwf	??_isr^(0+128)
  2128  0DB2  082B               	movf	??_isr^(0+128),w
  2129  0DB3  00CB               	movwf	_POT2_slave^(0+128)
  2130  0DB4                     i1l2550:
  2131                           
  2132                           ;main_master.c: 83:                 if (MODO == 0)
  2133  0DB4  0848               	movf	_MODO^(0+128),w
  2134  0DB5  1D03               	btfss	3,2
  2135  0DB6  2DB8               	goto	u312_21
  2136  0DB7  2DB9               	goto	u312_20
  2137  0DB8                     u312_21:
  2138  0DB8  2DD6               	goto	i1l128
  2139  0DB9                     u312_20:
  2140  0DB9                     i1l2552:
  2141                           
  2142                           ;main_master.c: 84:                     array[3] = POT2_slave;
  2143  0DB9  084B               	movf	_POT2_slave^(0+128),w
  2144  0DBA  00AB               	movwf	??_isr^(0+128)
  2145  0DBB  082B               	movf	??_isr^(0+128),w
  2146  0DBC  00BD               	movwf	(_array^(0+128)+3)
  2147  0DBD  2DD6               	goto	i1l128
  2148  0DBE                     i1l2556:
  2149  0DBE  1683               	bsf	3,5	;RP0=1, select bank1
  2150  0DBF  1303               	bcf	3,6	;RP1=0, select bank1
  2151  0DC0  084A               	movf	_canal^(0+128),w
  2152  0DC1  00AB               	movwf	??_isr^(0+128)
  2153  0DC2  01AC               	clrf	(??_isr^(0+128)+1)
  2154                           
  2155                           ; Switch on 2 bytes has been partitioned into a top level switch of size 1, and 1 sub-sw
      +                          itches
  2156                           ; Switch size 1, requested type "simple"
  2157                           ; Number of cases is 1, Range of values is 0 to 0
  2158                           ; switch strategies available:
  2159                           ; Name         Instructions Cycles
  2160                           ; simple_byte            4     3 (average)
  2161                           ; direct_byte           11     8 (fixed)
  2162                           ; jumptable            260     6 (fixed)
  2163                           ;	Chosen strategy is simple_byte
  2164  0DC3  082C               	movf	(??_isr+1)^(0+128),w
  2165  0DC4  3A00               	xorlw	0	; case 0
  2166  0DC5  1903               	skipnz
  2167  0DC6  2DC8               	goto	i1l2776
  2168  0DC7  2DD6               	goto	i1l128
  2169  0DC8                     i1l2776:
  2170                           
  2171                           ; Switch size 1, requested type "simple"
  2172                           ; Number of cases is 4, Range of values is 0 to 3
  2173                           ; switch strategies available:
  2174                           ; Name         Instructions Cycles
  2175                           ; simple_byte           13     7 (average)
  2176                           ; direct_byte           20     8 (fixed)
  2177                           ; jumptable            260     6 (fixed)
  2178                           ;	Chosen strategy is simple_byte
  2179  0DC8  082B               	movf	??_isr^(0+128),w
  2180  0DC9  3A00               	xorlw	0	; case 0
  2181  0DCA  1903               	skipnz
  2182  0DCB  2CF6               	goto	i1l2520
  2183  0DCC  3A01               	xorlw	1	; case 1
  2184  0DCD  1903               	skipnz
  2185  0DCE  2D3C               	goto	i1l2530
  2186  0DCF  3A03               	xorlw	3	; case 2
  2187  0DD0  1903               	skipnz
  2188  0DD1  2D9A               	goto	i1l2542
  2189  0DD2  3A01               	xorlw	1	; case 3
  2190  0DD3  1903               	skipnz
  2191  0DD4  2DAC               	goto	i1l2548
  2192  0DD5  2DD6               	goto	i1l128
  2193  0DD6                     i1l128:
  2194                           
  2195                           ;main_master.c: 87:         PIR1bits.ADIF = 0;
  2196  0DD6  1283               	bcf	3,5	;RP0=0, select bank0
  2197  0DD7  1303               	bcf	3,6	;RP1=0, select bank0
  2198  0DD8  130C               	bcf	12,6	;volatile
  2199  0DD9                     i1l124:	
  2200                           ;main_master.c: 88:     }
  2201                           
  2202                           
  2203                           ;main_master.c: 90:     if (INTCONbits.RBIF){
  2204  0DD9  1C0B               	btfss	11,0	;volatile
  2205  0DDA  2DDC               	goto	u313_21
  2206  0DDB  2DDD               	goto	u313_20
  2207  0DDC                     u313_21:
  2208  0DDC  2E35               	goto	i1l152
  2209  0DDD                     u313_20:
  2210  0DDD                     i1l2558:
  2211                           
  2212                           ;main_master.c: 91:         if (!PORTBbits.RB0){
  2213  0DDD  1806               	btfsc	6,0	;volatile
  2214  0DDE  2DE0               	goto	u314_21
  2215  0DDF  2DE1               	goto	u314_20
  2216  0DE0                     u314_21:
  2217  0DE0  2DEF               	goto	i1l136
  2218  0DE1                     u314_20:
  2219  0DE1                     i1l2560:
  2220                           
  2221                           ;main_master.c: 92:             MODO++;
  2222  0DE1  3001               	movlw	1
  2223  0DE2  1683               	bsf	3,5	;RP0=1, select bank1
  2224  0DE3  1303               	bcf	3,6	;RP1=0, select bank1
  2225  0DE4  00AB               	movwf	??_isr^(0+128)
  2226  0DE5  082B               	movf	??_isr^(0+128),w
  2227  0DE6  07C8               	addwf	_MODO^(0+128),f
  2228  0DE7                     i1l2562:
  2229                           
  2230                           ;main_master.c: 93:             if (MODO > 2)
  2231  0DE7  3003               	movlw	3
  2232  0DE8  0248               	subwf	_MODO^(0+128),w
  2233  0DE9  1C03               	skipc
  2234  0DEA  2DEC               	goto	u315_21
  2235  0DEB  2DED               	goto	u315_20
  2236  0DEC                     u315_21:
  2237  0DEC  2E34               	goto	i1l138
  2238  0DED                     u315_20:
  2239  0DED                     i1l2564:
  2240                           
  2241                           ;main_master.c: 94:                 MODO = 0;
  2242  0DED  01C8               	clrf	_MODO^(0+128)
  2243  0DEE  2E34               	goto	i1l138
  2244  0DEF                     i1l136:	
  2245                           ;main_master.c: 97:         else if (!PORTBbits.RB1){
  2246                           
  2247  0DEF  1886               	btfsc	6,1	;volatile
  2248  0DF0  2DF2               	goto	u316_21
  2249  0DF1  2DF3               	goto	u316_20
  2250  0DF2                     u316_21:
  2251  0DF2  2E10               	goto	i1l139
  2252  0DF3                     u316_20:
  2253  0DF3  2DFB               	goto	i1l2574
  2254  0DF4                     i1l141:	
  2255                           ;main_master.c: 99:                 case 0:
  2256                           
  2257                           
  2258                           ;main_master.c: 100:                     write_fg = 1;
  2259  0DF4  01C7               	clrf	_write_fg^(0+128)
  2260  0DF5  0AC7               	incf	_write_fg^(0+128),f
  2261  0DF6                     i1l2568:
  2262                           
  2263                           ;main_master.c: 101:                     address = 0x00;
  2264  0DF6  01C9               	clrf	_address^(0+128)
  2265                           
  2266                           ;main_master.c: 102:                     break;
  2267  0DF7  2E34               	goto	i1l138
  2268  0DF8                     i1l143:	
  2269                           ;main_master.c: 103:                 case 1:
  2270                           
  2271                           
  2272                           ;main_master.c: 104:                     read_fg = 1;
  2273  0DF8  01C6               	clrf	_read_fg^(0+128)
  2274  0DF9  0AC6               	incf	_read_fg^(0+128),f
  2275  0DFA  2DF6               	goto	i1l2568
  2276  0DFB                     i1l2574:
  2277  0DFB  1683               	bsf	3,5	;RP0=1, select bank1
  2278  0DFC  1303               	bcf	3,6	;RP1=0, select bank1
  2279  0DFD  0848               	movf	_MODO^(0+128),w
  2280  0DFE  00AB               	movwf	??_isr^(0+128)
  2281  0DFF  01AC               	clrf	(??_isr^(0+128)+1)
  2282                           
  2283                           ; Switch on 2 bytes has been partitioned into a top level switch of size 1, and 1 sub-sw
      +                          itches
  2284                           ; Switch size 1, requested type "simple"
  2285                           ; Number of cases is 1, Range of values is 0 to 0
  2286                           ; switch strategies available:
  2287                           ; Name         Instructions Cycles
  2288                           ; simple_byte            4     3 (average)
  2289                           ; direct_byte           11     8 (fixed)
  2290                           ; jumptable            260     6 (fixed)
  2291                           ;	Chosen strategy is simple_byte
  2292  0E00  082C               	movf	(??_isr+1)^(0+128),w
  2293  0E01  3A00               	xorlw	0	; case 0
  2294  0E02  1903               	skipnz
  2295  0E03  2E05               	goto	i1l2778
  2296  0E04  2E34               	goto	i1l138
  2297  0E05                     i1l2778:
  2298                           
  2299                           ; Switch size 1, requested type "simple"
  2300                           ; Number of cases is 3, Range of values is 0 to 2
  2301                           ; switch strategies available:
  2302                           ; Name         Instructions Cycles
  2303                           ; simple_byte           10     6 (average)
  2304                           ; direct_byte           17     8 (fixed)
  2305                           ; jumptable            260     6 (fixed)
  2306                           ;	Chosen strategy is simple_byte
  2307  0E05  082B               	movf	??_isr^(0+128),w
  2308  0E06  3A00               	xorlw	0	; case 0
  2309  0E07  1903               	skipnz
  2310  0E08  2DF4               	goto	i1l141
  2311  0E09  3A01               	xorlw	1	; case 1
  2312  0E0A  1903               	skipnz
  2313  0E0B  2DF8               	goto	i1l143
  2314  0E0C  3A03               	xorlw	3	; case 2
  2315  0E0D  1903               	skipnz
  2316  0E0E  2E34               	goto	i1l138
  2317  0E0F  2E34               	goto	i1l138
  2318  0E10                     i1l139:	
  2319                           ;main_master.c: 112:         else if (!PORTBbits.RB2){
  2320                           
  2321  0E10  1906               	btfsc	6,2	;volatile
  2322  0E11  2E13               	goto	u317_21
  2323  0E12  2E14               	goto	u317_20
  2324  0E13                     u317_21:
  2325  0E13  2E34               	goto	i1l138
  2326  0E14                     u317_20:
  2327  0E14  2E1F               	goto	i1l2584
  2328  0E15                     i1l148:	
  2329                           ;main_master.c: 114:                 case 0:
  2330                           
  2331                           
  2332                           ;main_master.c: 115:                     write_fg = 1;
  2333  0E15  01C7               	clrf	_write_fg^(0+128)
  2334  0E16  0AC7               	incf	_write_fg^(0+128),f
  2335  0E17                     i1l2578:
  2336                           
  2337                           ;main_master.c: 116:                     address = 0x05;
  2338  0E17  3005               	movlw	5
  2339  0E18  00AB               	movwf	??_isr^(0+128)
  2340  0E19  082B               	movf	??_isr^(0+128),w
  2341  0E1A  00C9               	movwf	_address^(0+128)
  2342                           
  2343                           ;main_master.c: 117:                     break;
  2344  0E1B  2E34               	goto	i1l138
  2345  0E1C                     i1l150:	
  2346                           ;main_master.c: 118:                 case 1:
  2347                           
  2348                           
  2349                           ;main_master.c: 119:                     read_fg = 1;
  2350  0E1C  01C6               	clrf	_read_fg^(0+128)
  2351  0E1D  0AC6               	incf	_read_fg^(0+128),f
  2352  0E1E  2E17               	goto	i1l2578
  2353  0E1F                     i1l2584:
  2354  0E1F  1683               	bsf	3,5	;RP0=1, select bank1
  2355  0E20  1303               	bcf	3,6	;RP1=0, select bank1
  2356  0E21  0848               	movf	_MODO^(0+128),w
  2357  0E22  00AB               	movwf	??_isr^(0+128)
  2358  0E23  01AC               	clrf	(??_isr^(0+128)+1)
  2359                           
  2360                           ; Switch on 2 bytes has been partitioned into a top level switch of size 1, and 1 sub-sw
      +                          itches
  2361                           ; Switch size 1, requested type "simple"
  2362                           ; Number of cases is 1, Range of values is 0 to 0
  2363                           ; switch strategies available:
  2364                           ; Name         Instructions Cycles
  2365                           ; simple_byte            4     3 (average)
  2366                           ; direct_byte           11     8 (fixed)
  2367                           ; jumptable            260     6 (fixed)
  2368                           ;	Chosen strategy is simple_byte
  2369  0E24  082C               	movf	(??_isr+1)^(0+128),w
  2370  0E25  3A00               	xorlw	0	; case 0
  2371  0E26  1903               	skipnz
  2372  0E27  2E29               	goto	i1l2780
  2373  0E28  2E34               	goto	i1l138
  2374  0E29                     i1l2780:
  2375                           
  2376                           ; Switch size 1, requested type "simple"
  2377                           ; Number of cases is 3, Range of values is 0 to 2
  2378                           ; switch strategies available:
  2379                           ; Name         Instructions Cycles
  2380                           ; simple_byte           10     6 (average)
  2381                           ; direct_byte           17     8 (fixed)
  2382                           ; jumptable            260     6 (fixed)
  2383                           ;	Chosen strategy is simple_byte
  2384  0E29  082B               	movf	??_isr^(0+128),w
  2385  0E2A  3A00               	xorlw	0	; case 0
  2386  0E2B  1903               	skipnz
  2387  0E2C  2E15               	goto	i1l148
  2388  0E2D  3A01               	xorlw	1	; case 1
  2389  0E2E  1903               	skipnz
  2390  0E2F  2E1C               	goto	i1l150
  2391  0E30  3A03               	xorlw	3	; case 2
  2392  0E31  1903               	skipnz
  2393  0E32  2E34               	goto	i1l138
  2394  0E33  2E34               	goto	i1l138
  2395  0E34                     i1l138:
  2396                           
  2397                           ;main_master.c: 127:         INTCONbits.RBIF = 0;
  2398  0E34  100B               	bcf	11,0	;volatile
  2399  0E35                     i1l152:
  2400  0E35  1683               	bsf	3,5	;RP0=1, select bank1
  2401  0E36  1303               	bcf	3,6	;RP1=0, select bank1
  2402  0E37  0831               	movf	(??_isr+6)^(0+128),w
  2403  0E38  00FF               	movwf	btemp+1
  2404  0E39  0830               	movf	(??_isr+5)^(0+128),w
  2405  0E3A  008A               	movwf	10
  2406  0E3B  082F               	movf	(??_isr+4)^(0+128),w
  2407  0E3C  0084               	movwf	4
  2408  0E3D  0E2E               	swapf	(??_isr+3)^(0+128),w
  2409  0E3E  0083               	movwf	3
  2410  0E3F  0EFE               	swapf	btemp,f
  2411  0E40  0E7E               	swapf	btemp,w
  2412  0E41  0009               	retfie
  2413  0E42                     __end_of_isr:
  2414                           
  2415                           	psect	intentry
  2416  0004                     __pintentry:	
  2417                           ;incstack = 0
  2418                           ; Regs used in _isr: [wreg-fsr0h+status,2+status,0+btemp+1+pclath+cstack]
  2419                           
  2420  0004                     interrupt_function:
  2421  007E                     saved_w	set	btemp
  2422  0004  00FE               	movwf	btemp
  2423  0005  0E03               	swapf	3,w
  2424  0006  1683               	bsf	3,5	;RP0=1, select bank1
  2425  0007  1303               	bcf	3,6	;RP1=0, select bank1
  2426  0008  00AE               	movwf	(??_isr+3)^(0+128)
  2427  0009  0804               	movf	4,w
  2428  000A  00AF               	movwf	(??_isr+4)^(0+128)
  2429  000B  080A               	movf	10,w
  2430  000C  00B0               	movwf	(??_isr+5)^(0+128)
  2431  000D  087F               	movf	btemp+1,w
  2432  000E  00B1               	movwf	(??_isr+6)^(0+128)
  2433  000F  120A  158A  2CEA   	ljmp	_isr
  2434                           
  2435                           	psect	text5
  2436  0B7E                     __ptext5:	
  2437 ;; *************** function _map *****************
  2438 ;; Defined at:
  2439 ;;		line 304 in file "main_master.c"
  2440 ;; Parameters:    Size  Location     Type
  2441 ;;  x               1    wreg     unsigned char 
  2442 ;;  x0              1    5[BANK1 ] unsigned char 
  2443 ;;  x1              1    6[BANK1 ] unsigned char 
  2444 ;;  y0              2    7[BANK1 ] unsigned short 
  2445 ;;  y1              2    9[BANK1 ] unsigned short 
  2446 ;; Auto vars:     Size  Location     Type
  2447 ;;  x               1   78[BANK0 ] unsigned char 
  2448 ;; Return value:  Size  Location     Type
  2449 ;;                  2    5[BANK1 ] unsigned short 
  2450 ;; Registers used:
  2451 ;;		wreg, status,2, status,0, btemp+1, pclath, cstack
  2452 ;; Tracked objects:
  2453 ;;		On entry : 0/0
  2454 ;;		On exit  : 0/0
  2455 ;;		Unchanged: 0/0
  2456 ;; Data sizes:     COMMON   BANK0   BANK1   BANK3   BANK2
  2457 ;;      Params:         0       0       6       0       0
  2458 ;;      Locals:         0       1       0       0       0
  2459 ;;      Temps:          0       0       0       0       0
  2460 ;;      Totals:         0       1       6       0       0
  2461 ;;Total ram usage:        7 bytes
  2462 ;; Hardware stack levels used: 1
  2463 ;; Hardware stack levels required when called: 2
  2464 ;; This function calls:
  2465 ;;		___fladd
  2466 ;;		___fldiv
  2467 ;;		___flmul
  2468 ;;		___fltol
  2469 ;;		___xxtofl
  2470 ;; This function is called by:
  2471 ;;		_isr
  2472 ;; This function uses a non-reentrant model
  2473 ;;
  2474                           
  2475  0B7E                     _map:	
  2476                           ;psect for function _map
  2477                           
  2478                           
  2479                           ;incstack = 0
  2480                           ; Regs used in _map: [wreg+status,2+status,0+btemp+1+pclath+cstack]
  2481                           ;map@x stored from wreg
  2482  0B7E  1283               	bcf	3,5	;RP0=0, select bank0
  2483  0B7F  1303               	bcf	3,6	;RP1=0, select bank0
  2484  0B80  00EE               	movwf	map@x
  2485  0B81                     i1l2398:
  2486                           
  2487                           ;main_master.c: 304: unsigned short map(uint8_t x, uint8_t x0, uint8_t x1,;main_master.c
      +                          : 305:             unsigned short y0, unsigned short y1){;main_master.c: 306:     return
      +                           (unsigned short)(y0+((float)(y1-y0)/(x1-x0))*(x-x0));
  2488  0B81  1683               	bsf	3,5	;RP0=1, select bank1
  2489  0B82  1303               	bcf	3,6	;RP1=0, select bank1
  2490  0B83  0827               	movf	map@y0^(0+128),w
  2491  0B84  00F0               	movwf	___xxtofl@val
  2492  0B85  0828               	movf	(map@y0+1)^(0+128),w
  2493  0B86  00F1               	movwf	___xxtofl@val+1
  2494  0B87  01F2               	clrf	___xxtofl@val+2
  2495  0B88  01F3               	clrf	___xxtofl@val+3
  2496  0B89  3000               	movlw	0
  2497  0B8A  120A  158A  2430  120A  158A  	fcall	___xxtofl
  2498  0B8F  0873               	movf	?___xxtofl+3,w
  2499  0B90  1283               	bcf	3,5	;RP0=0, select bank0
  2500  0B91  1303               	bcf	3,6	;RP1=0, select bank0
  2501  0B92  00DB               	movwf	___fladd@a+3
  2502  0B93  0872               	movf	?___xxtofl+2,w
  2503  0B94  00DA               	movwf	___fladd@a+2
  2504  0B95  0871               	movf	?___xxtofl+1,w
  2505  0B96  00D9               	movwf	___fladd@a+1
  2506  0B97  0870               	movf	?___xxtofl,w
  2507  0B98  00D8               	movwf	___fladd@a
  2508  0B99  1683               	bsf	3,5	;RP0=1, select bank1
  2509  0B9A  1303               	bcf	3,6	;RP1=0, select bank1
  2510  0B9B  0827               	movf	map@y0^(0+128),w
  2511  0B9C  0229               	subwf	map@y1^(0+128),w
  2512  0B9D  00F0               	movwf	___xxtofl@val
  2513  0B9E  0828               	movf	(map@y0+1)^(0+128),w
  2514  0B9F  1C03               	skipc
  2515  0BA0  0A28               	incf	(map@y0+1)^(0+128),w
  2516  0BA1  022A               	subwf	(map@y1+1)^(0+128),w
  2517  0BA2  00F1               	movwf	___xxtofl@val+1
  2518  0BA3  01F2               	clrf	___xxtofl@val+2
  2519  0BA4  01F3               	clrf	___xxtofl@val+3
  2520  0BA5  3000               	movlw	0
  2521  0BA6  120A  158A  2430  120A  158A  	fcall	___xxtofl
  2522  0BAB  0873               	movf	?___xxtofl+3,w
  2523  0BAC  1283               	bcf	3,5	;RP0=0, select bank0
  2524  0BAD  1303               	bcf	3,6	;RP1=0, select bank0
  2525  0BAE  00A7               	movwf	___fldiv@b+3
  2526  0BAF  0872               	movf	?___xxtofl+2,w
  2527  0BB0  00A6               	movwf	___fldiv@b+2
  2528  0BB1  0871               	movf	?___xxtofl+1,w
  2529  0BB2  00A5               	movwf	___fldiv@b+1
  2530  0BB3  0870               	movf	?___xxtofl,w
  2531  0BB4  00A4               	movwf	___fldiv@b
  2532  0BB5  1683               	bsf	3,5	;RP0=1, select bank1
  2533  0BB6  1303               	bcf	3,6	;RP1=0, select bank1
  2534  0BB7  0825               	movf	map@x0^(0+128),w
  2535  0BB8  0226               	subwf	map@x1^(0+128),w
  2536  0BB9  00F0               	movwf	___xxtofl@val
  2537  0BBA  01F1               	clrf	___xxtofl@val+1
  2538  0BBB  1C03               	skipc
  2539  0BBC  03F1               	decf	___xxtofl@val+1,f
  2540  0BBD  01F2               	clrf	___xxtofl@val+2
  2541  0BBE  1BF1               	btfsc	___xxtofl@val+1,7
  2542  0BBF  03F2               	decf	___xxtofl@val+2,f
  2543  0BC0  0872               	movf	___xxtofl@val+2,w
  2544  0BC1  00F3               	movwf	___xxtofl@val+3
  2545  0BC2  3001               	movlw	1
  2546  0BC3  120A  158A  2430  120A  158A  	fcall	___xxtofl
  2547  0BC8  0873               	movf	?___xxtofl+3,w
  2548  0BC9  1283               	bcf	3,5	;RP0=0, select bank0
  2549  0BCA  1303               	bcf	3,6	;RP1=0, select bank0
  2550  0BCB  00A3               	movwf	___fldiv@a+3
  2551  0BCC  0872               	movf	?___xxtofl+2,w
  2552  0BCD  00A2               	movwf	___fldiv@a+2
  2553  0BCE  0871               	movf	?___xxtofl+1,w
  2554  0BCF  00A1               	movwf	___fldiv@a+1
  2555  0BD0  0870               	movf	?___xxtofl,w
  2556  0BD1  00A0               	movwf	___fldiv@a
  2557  0BD2  120A  118A  2619  120A  158A  	fcall	___fldiv
  2558  0BD7  1283               	bcf	3,5	;RP0=0, select bank0
  2559  0BD8  1303               	bcf	3,6	;RP1=0, select bank0
  2560  0BD9  0823               	movf	?___fldiv+3,w
  2561  0BDA  00C1               	movwf	___flmul@a+3
  2562  0BDB  0822               	movf	?___fldiv+2,w
  2563  0BDC  00C0               	movwf	___flmul@a+2
  2564  0BDD  0821               	movf	?___fldiv+1,w
  2565  0BDE  00BF               	movwf	___flmul@a+1
  2566  0BDF  0820               	movf	?___fldiv,w
  2567  0BE0  00BE               	movwf	___flmul@a
  2568  0BE1  1683               	bsf	3,5	;RP0=1, select bank1
  2569  0BE2  1303               	bcf	3,6	;RP1=0, select bank1
  2570  0BE3  0825               	movf	map@x0^(0+128),w
  2571  0BE4  1283               	bcf	3,5	;RP0=0, select bank0
  2572  0BE5  1303               	bcf	3,6	;RP1=0, select bank0
  2573  0BE6  026E               	subwf	map@x,w
  2574  0BE7  00F0               	movwf	___xxtofl@val
  2575  0BE8  01F1               	clrf	___xxtofl@val+1
  2576  0BE9  1C03               	skipc
  2577  0BEA  03F1               	decf	___xxtofl@val+1,f
  2578  0BEB  01F2               	clrf	___xxtofl@val+2
  2579  0BEC  1BF1               	btfsc	___xxtofl@val+1,7
  2580  0BED  03F2               	decf	___xxtofl@val+2,f
  2581  0BEE  0872               	movf	___xxtofl@val+2,w
  2582  0BEF  00F3               	movwf	___xxtofl@val+3
  2583  0BF0  3001               	movlw	1
  2584  0BF1  120A  158A  2430  120A  158A  	fcall	___xxtofl
  2585  0BF6  0873               	movf	?___xxtofl+3,w
  2586  0BF7  1283               	bcf	3,5	;RP0=0, select bank0
  2587  0BF8  1303               	bcf	3,6	;RP1=0, select bank0
  2588  0BF9  00BD               	movwf	___flmul@b+3
  2589  0BFA  0872               	movf	?___xxtofl+2,w
  2590  0BFB  00BC               	movwf	___flmul@b+2
  2591  0BFC  0871               	movf	?___xxtofl+1,w
  2592  0BFD  00BB               	movwf	___flmul@b+1
  2593  0BFE  0870               	movf	?___xxtofl,w
  2594  0BFF  00BA               	movwf	___flmul@b
  2595  0C00  120A  118A  2030  120A  158A  	fcall	___flmul
  2596  0C05  1283               	bcf	3,5	;RP0=0, select bank0
  2597  0C06  1303               	bcf	3,6	;RP1=0, select bank0
  2598  0C07  083D               	movf	?___flmul+3,w
  2599  0C08  00D7               	movwf	___fladd@b+3
  2600  0C09  083C               	movf	?___flmul+2,w
  2601  0C0A  00D6               	movwf	___fladd@b+2
  2602  0C0B  083B               	movf	?___flmul+1,w
  2603  0C0C  00D5               	movwf	___fladd@b+1
  2604  0C0D  083A               	movf	?___flmul,w
  2605  0C0E  00D4               	movwf	___fladd@b
  2606  0C0F  120A  118A  2391  120A  158A  	fcall	___fladd
  2607  0C14  1283               	bcf	3,5	;RP0=0, select bank0
  2608  0C15  1303               	bcf	3,6	;RP1=0, select bank0
  2609  0C16  0857               	movf	?___fladd+3,w
  2610  0C17  00EB               	movwf	___fltol@f1+3
  2611  0C18  0856               	movf	?___fladd+2,w
  2612  0C19  00EA               	movwf	___fltol@f1+2
  2613  0C1A  0855               	movf	?___fladd+1,w
  2614  0C1B  00E9               	movwf	___fltol@f1+1
  2615  0C1C  0854               	movf	?___fladd,w
  2616  0C1D  00E8               	movwf	___fltol@f1
  2617  0C1E  120A  158A  22E2  120A  158A  	fcall	___fltol
  2618  0C23  1283               	bcf	3,5	;RP0=0, select bank0
  2619  0C24  1303               	bcf	3,6	;RP1=0, select bank0
  2620  0C25  0869               	movf	?___fltol+1,w
  2621  0C26  1683               	bsf	3,5	;RP0=1, select bank1
  2622  0C27  1303               	bcf	3,6	;RP1=0, select bank1
  2623  0C28  00A6               	movwf	(?_map+1)^(0+128)
  2624  0C29  1283               	bcf	3,5	;RP0=0, select bank0
  2625  0C2A  1303               	bcf	3,6	;RP1=0, select bank0
  2626  0C2B  0868               	movf	?___fltol,w
  2627  0C2C  1683               	bsf	3,5	;RP0=1, select bank1
  2628  0C2D  1303               	bcf	3,6	;RP1=0, select bank1
  2629  0C2E  00A5               	movwf	?_map^(0+128)
  2630  0C2F                     i1l200:
  2631  0C2F  0008               	return
  2632  0C30                     __end_of_map:
  2633                           
  2634                           	psect	text6
  2635  0C30                     __ptext6:	
  2636 ;; *************** function ___xxtofl *****************
  2637 ;; Defined at:
  2638 ;;		line 10 in file "C:\Program Files\Microchip\xc8\v2.35\pic\sources\c90\common\xxtofl.c"
  2639 ;; Parameters:    Size  Location     Type
  2640 ;;  sign            1    wreg     unsigned char 
  2641 ;;  val             4    0[COMMON] long 
  2642 ;; Auto vars:     Size  Location     Type
  2643 ;;  sign            1    8[COMMON] unsigned char 
  2644 ;;  arg             4   10[COMMON] unsigned long 
  2645 ;;  exp             1    9[COMMON] unsigned char 
  2646 ;; Return value:  Size  Location     Type
  2647 ;;                  4    0[COMMON] unsigned char 
  2648 ;; Registers used:
  2649 ;;		wreg, status,2, status,0
  2650 ;; Tracked objects:
  2651 ;;		On entry : 0/0
  2652 ;;		On exit  : 0/0
  2653 ;;		Unchanged: 0/0
  2654 ;; Data sizes:     COMMON   BANK0   BANK1   BANK3   BANK2
  2655 ;;      Params:         4       0       0       0       0
  2656 ;;      Locals:         6       0       0       0       0
  2657 ;;      Temps:          4       0       0       0       0
  2658 ;;      Totals:        14       0       0       0       0
  2659 ;;Total ram usage:       14 bytes
  2660 ;; Hardware stack levels used: 1
  2661 ;; This function calls:
  2662 ;;		Nothing
  2663 ;; This function is called by:
  2664 ;;		_map
  2665 ;; This function uses a non-reentrant model
  2666 ;;
  2667                           
  2668  0C30                     ___xxtofl:	
  2669                           ;psect for function ___xxtofl
  2670                           
  2671                           
  2672                           ;incstack = 0
  2673                           ; Regs used in ___xxtofl: [wreg+status,2+status,0]
  2674                           ;___xxtofl@sign stored from wreg
  2675  0C30  00F8               	movwf	___xxtofl@sign
  2676  0C31                     i1l2354:
  2677  0C31  0878               	movf	___xxtofl@sign,w
  2678  0C32  1903               	btfsc	3,2
  2679  0C33  2C35               	goto	u292_21
  2680  0C34  2C36               	goto	u292_20
  2681  0C35                     u292_21:
  2682  0C35  2C4A               	goto	i1l2360
  2683  0C36                     u292_20:
  2684  0C36                     i1l2356:
  2685  0C36  1FF3               	btfss	___xxtofl@val+3,7
  2686  0C37  2C39               	goto	u293_21
  2687  0C38  2C3A               	goto	u293_20
  2688  0C39                     u293_21:
  2689  0C39  2C4A               	goto	i1l2360
  2690  0C3A                     u293_20:
  2691  0C3A                     i1l2358:
  2692  0C3A  0970               	comf	___xxtofl@val,w
  2693  0C3B  00FA               	movwf	___xxtofl@arg
  2694  0C3C  0971               	comf	___xxtofl@val+1,w
  2695  0C3D  00FB               	movwf	___xxtofl@arg+1
  2696  0C3E  0972               	comf	___xxtofl@val+2,w
  2697  0C3F  00FC               	movwf	___xxtofl@arg+2
  2698  0C40  0973               	comf	___xxtofl@val+3,w
  2699  0C41  00FD               	movwf	___xxtofl@arg+3
  2700  0C42  0AFA               	incf	___xxtofl@arg,f
  2701  0C43  1903               	skipnz
  2702  0C44  0AFB               	incf	___xxtofl@arg+1,f
  2703  0C45  1903               	skipnz
  2704  0C46  0AFC               	incf	___xxtofl@arg+2,f
  2705  0C47  1903               	skipnz
  2706  0C48  0AFD               	incf	___xxtofl@arg+3,f
  2707  0C49  2C52               	goto	i1l725
  2708  0C4A                     i1l2360:
  2709  0C4A  0873               	movf	___xxtofl@val+3,w
  2710  0C4B  00FD               	movwf	___xxtofl@arg+3
  2711  0C4C  0872               	movf	___xxtofl@val+2,w
  2712  0C4D  00FC               	movwf	___xxtofl@arg+2
  2713  0C4E  0871               	movf	___xxtofl@val+1,w
  2714  0C4F  00FB               	movwf	___xxtofl@arg+1
  2715  0C50  0870               	movf	___xxtofl@val,w
  2716  0C51  00FA               	movwf	___xxtofl@arg
  2717  0C52                     i1l725:
  2718  0C52  0873               	movf	___xxtofl@val+3,w
  2719  0C53  0472               	iorwf	___xxtofl@val+2,w
  2720  0C54  0471               	iorwf	___xxtofl@val+1,w
  2721  0C55  0470               	iorwf	___xxtofl@val,w
  2722  0C56  1D03               	skipz
  2723  0C57  2C59               	goto	u294_21
  2724  0C58  2C5A               	goto	u294_20
  2725  0C59                     u294_21:
  2726  0C59  2C63               	goto	i1l2366
  2727  0C5A                     u294_20:
  2728  0C5A                     i1l2362:
  2729  0C5A  3000               	movlw	0
  2730  0C5B  00F3               	movwf	?___xxtofl+3
  2731  0C5C  3000               	movlw	0
  2732  0C5D  00F2               	movwf	?___xxtofl+2
  2733  0C5E  3000               	movlw	0
  2734  0C5F  00F1               	movwf	?___xxtofl+1
  2735  0C60  3000               	movlw	0
  2736  0C61  00F0               	movwf	?___xxtofl
  2737  0C62  2CE9               	goto	i1l727
  2738  0C63                     i1l2366:
  2739  0C63  3096               	movlw	150
  2740  0C64  00F4               	movwf	??___xxtofl
  2741  0C65  0874               	movf	??___xxtofl,w
  2742  0C66  00F9               	movwf	___xxtofl@exp
  2743  0C67  2C75               	goto	i1l2370
  2744  0C68                     i1l2368:
  2745  0C68  3001               	movlw	1
  2746  0C69  00F4               	movwf	??___xxtofl
  2747  0C6A  0874               	movf	??___xxtofl,w
  2748  0C6B  07F9               	addwf	___xxtofl@exp,f
  2749  0C6C  3001               	movlw	1
  2750  0C6D                     u295_25:
  2751  0C6D  1003               	clrc
  2752  0C6E  0CFD               	rrf	___xxtofl@arg+3,f
  2753  0C6F  0CFC               	rrf	___xxtofl@arg+2,f
  2754  0C70  0CFB               	rrf	___xxtofl@arg+1,f
  2755  0C71  0CFA               	rrf	___xxtofl@arg,f
  2756  0C72  3EFF               	addlw	-1
  2757  0C73  1D03               	skipz
  2758  0C74  2C6D               	goto	u295_25
  2759  0C75                     i1l2370:
  2760  0C75  30FE               	movlw	254
  2761  0C76  057D               	andwf	___xxtofl@arg+3,w
  2762  0C77  1D03               	btfss	3,2
  2763  0C78  2C7A               	goto	u296_21
  2764  0C79  2C7B               	goto	u296_20
  2765  0C7A                     u296_21:
  2766  0C7A  2C68               	goto	i1l2368
  2767  0C7B                     u296_20:
  2768  0C7B  2C97               	goto	i1l731
  2769  0C7C                     i1l2372:
  2770  0C7C  3001               	movlw	1
  2771  0C7D  00F4               	movwf	??___xxtofl
  2772  0C7E  0874               	movf	??___xxtofl,w
  2773  0C7F  07F9               	addwf	___xxtofl@exp,f
  2774  0C80                     i1l2374:
  2775  0C80  3001               	movlw	1
  2776  0C81  07FA               	addwf	___xxtofl@arg,f
  2777  0C82  3000               	movlw	0
  2778  0C83  1803               	skipnc
  2779  0C84  3001               	movlw	1
  2780  0C85  07FB               	addwf	___xxtofl@arg+1,f
  2781  0C86  3000               	movlw	0
  2782  0C87  1803               	skipnc
  2783  0C88  3001               	movlw	1
  2784  0C89  07FC               	addwf	___xxtofl@arg+2,f
  2785  0C8A  3000               	movlw	0
  2786  0C8B  1803               	skipnc
  2787  0C8C  3001               	movlw	1
  2788  0C8D  07FD               	addwf	___xxtofl@arg+3,f
  2789  0C8E                     i1l2376:
  2790  0C8E  3001               	movlw	1
  2791  0C8F                     u297_25:
  2792  0C8F  1003               	clrc
  2793  0C90  0CFD               	rrf	___xxtofl@arg+3,f
  2794  0C91  0CFC               	rrf	___xxtofl@arg+2,f
  2795  0C92  0CFB               	rrf	___xxtofl@arg+1,f
  2796  0C93  0CFA               	rrf	___xxtofl@arg,f
  2797  0C94  3EFF               	addlw	-1
  2798  0C95  1D03               	skipz
  2799  0C96  2C8F               	goto	u297_25
  2800  0C97                     i1l731:
  2801  0C97  30FF               	movlw	255
  2802  0C98  057D               	andwf	___xxtofl@arg+3,w
  2803  0C99  1D03               	btfss	3,2
  2804  0C9A  2C9C               	goto	u298_21
  2805  0C9B  2C9D               	goto	u298_20
  2806  0C9C                     u298_21:
  2807  0C9C  2C7C               	goto	i1l2372
  2808  0C9D                     u298_20:
  2809  0C9D  2CA9               	goto	i1l2380
  2810  0C9E                     i1l2378:
  2811  0C9E  3001               	movlw	1
  2812  0C9F  02F9               	subwf	___xxtofl@exp,f
  2813  0CA0  3001               	movlw	1
  2814  0CA1  00F4               	movwf	??___xxtofl
  2815  0CA2                     u299_25:
  2816  0CA2  1003               	clrc
  2817  0CA3  0DFA               	rlf	___xxtofl@arg,f
  2818  0CA4  0DFB               	rlf	___xxtofl@arg+1,f
  2819  0CA5  0DFC               	rlf	___xxtofl@arg+2,f
  2820  0CA6  0DFD               	rlf	___xxtofl@arg+3,f
  2821  0CA7  0BF4               	decfsz	??___xxtofl,f
  2822  0CA8  2CA2               	goto	u299_25
  2823  0CA9                     i1l2380:
  2824  0CA9  1BFC               	btfsc	___xxtofl@arg+2,7
  2825  0CAA  2CAC               	goto	u300_21
  2826  0CAB  2CAD               	goto	u300_20
  2827  0CAC                     u300_21:
  2828  0CAC  2CB3               	goto	i1l738
  2829  0CAD                     u300_20:
  2830  0CAD                     i1l2382:
  2831  0CAD  3002               	movlw	2
  2832  0CAE  0279               	subwf	___xxtofl@exp,w
  2833  0CAF  1803               	skipnc
  2834  0CB0  2CB2               	goto	u301_21
  2835  0CB1  2CB3               	goto	u301_20
  2836  0CB2                     u301_21:
  2837  0CB2  2C9E               	goto	i1l2378
  2838  0CB3                     u301_20:
  2839  0CB3                     i1l738:
  2840  0CB3  1879               	btfsc	___xxtofl@exp,0
  2841  0CB4  2CB6               	goto	u302_21
  2842  0CB5  2CB7               	goto	u302_20
  2843  0CB6                     u302_21:
  2844  0CB6  2CBF               	goto	i1l739
  2845  0CB7                     u302_20:
  2846  0CB7                     i1l2384:
  2847  0CB7  30FF               	movlw	255
  2848  0CB8  05FA               	andwf	___xxtofl@arg,f
  2849  0CB9  30FF               	movlw	255
  2850  0CBA  05FB               	andwf	___xxtofl@arg+1,f
  2851  0CBB  307F               	movlw	127
  2852  0CBC  05FC               	andwf	___xxtofl@arg+2,f
  2853  0CBD  30FF               	movlw	255
  2854  0CBE  05FD               	andwf	___xxtofl@arg+3,f
  2855  0CBF                     i1l739:
  2856  0CBF  1003               	clrc
  2857  0CC0  0CF9               	rrf	___xxtofl@exp,f
  2858  0CC1                     i1l2386:
  2859  0CC1  0879               	movf	___xxtofl@exp,w
  2860  0CC2  00F4               	movwf	??___xxtofl
  2861  0CC3  01F5               	clrf	??___xxtofl+1
  2862  0CC4  01F6               	clrf	??___xxtofl+2
  2863  0CC5  01F7               	clrf	??___xxtofl+3
  2864  0CC6  3018               	movlw	24
  2865  0CC7                     u303_25:
  2866  0CC7  1003               	clrc
  2867  0CC8  0DF4               	rlf	??___xxtofl,f
  2868  0CC9  0DF5               	rlf	??___xxtofl+1,f
  2869  0CCA  0DF6               	rlf	??___xxtofl+2,f
  2870  0CCB  0DF7               	rlf	??___xxtofl+3,f
  2871  0CCC                     u303_20:
  2872  0CCC  3EFF               	addlw	-1
  2873  0CCD  1D03               	skipz
  2874  0CCE  2CC7               	goto	u303_25
  2875  0CCF  0874               	movf	??___xxtofl,w
  2876  0CD0  04FA               	iorwf	___xxtofl@arg,f
  2877  0CD1  0875               	movf	??___xxtofl+1,w
  2878  0CD2  04FB               	iorwf	___xxtofl@arg+1,f
  2879  0CD3  0876               	movf	??___xxtofl+2,w
  2880  0CD4  04FC               	iorwf	___xxtofl@arg+2,f
  2881  0CD5  0877               	movf	??___xxtofl+3,w
  2882  0CD6  04FD               	iorwf	___xxtofl@arg+3,f
  2883  0CD7                     i1l2388:
  2884  0CD7  0878               	movf	___xxtofl@sign,w
  2885  0CD8  1903               	btfsc	3,2
  2886  0CD9  2CDB               	goto	u304_21
  2887  0CDA  2CDC               	goto	u304_20
  2888  0CDB                     u304_21:
  2889  0CDB  2CE1               	goto	i1l2394
  2890  0CDC                     u304_20:
  2891  0CDC                     i1l2390:
  2892  0CDC  1FF3               	btfss	___xxtofl@val+3,7
  2893  0CDD  2CDF               	goto	u305_21
  2894  0CDE  2CE0               	goto	u305_20
  2895  0CDF                     u305_21:
  2896  0CDF  2CE1               	goto	i1l2394
  2897  0CE0                     u305_20:
  2898  0CE0                     i1l2392:
  2899  0CE0  17FD               	bsf	___xxtofl@arg+3,7
  2900  0CE1                     i1l2394:
  2901  0CE1  087D               	movf	___xxtofl@arg+3,w
  2902  0CE2  00F3               	movwf	?___xxtofl+3
  2903  0CE3  087C               	movf	___xxtofl@arg+2,w
  2904  0CE4  00F2               	movwf	?___xxtofl+2
  2905  0CE5  087B               	movf	___xxtofl@arg+1,w
  2906  0CE6  00F1               	movwf	?___xxtofl+1
  2907  0CE7  087A               	movf	___xxtofl@arg,w
  2908  0CE8  00F0               	movwf	?___xxtofl
  2909  0CE9                     i1l727:
  2910  0CE9  0008               	return
  2911  0CEA                     __end_of___xxtofl:
  2912                           
  2913                           	psect	text7
  2914  0AE2                     __ptext7:	
  2915 ;; *************** function ___fltol *****************
  2916 ;; Defined at:
  2917 ;;		line 43 in file "C:\Program Files\Microchip\xc8\v2.35\pic\sources\c90\common\fltol.c"
  2918 ;; Parameters:    Size  Location     Type
  2919 ;;  f1              4   72[BANK0 ] unsigned char 
  2920 ;; Auto vars:     Size  Location     Type
  2921 ;;  exp1            1   77[BANK0 ] unsigned char 
  2922 ;;  sign1           1   76[BANK0 ] unsigned char 
  2923 ;; Return value:  Size  Location     Type
  2924 ;;                  4   72[BANK0 ] long 
  2925 ;; Registers used:
  2926 ;;		wreg, status,2, status,0
  2927 ;; Tracked objects:
  2928 ;;		On entry : 0/0
  2929 ;;		On exit  : 0/0
  2930 ;;		Unchanged: 0/0
  2931 ;; Data sizes:     COMMON   BANK0   BANK1   BANK3   BANK2
  2932 ;;      Params:         0       4       0       0       0
  2933 ;;      Locals:         0       2       0       0       0
  2934 ;;      Temps:          0       0       5       0       0
  2935 ;;      Totals:         0       6       5       0       0
  2936 ;;Total ram usage:       11 bytes
  2937 ;; Hardware stack levels used: 1
  2938 ;; This function calls:
  2939 ;;		Nothing
  2940 ;; This function is called by:
  2941 ;;		_map
  2942 ;; This function uses a non-reentrant model
  2943 ;;
  2944                           
  2945  0AE2                     ___fltol:	
  2946                           ;psect for function ___fltol
  2947                           
  2948  0AE2                     i1l1842:	
  2949                           ;incstack = 0
  2950                           ; Regs used in ___fltol: [wreg+status,2+status,0]
  2951                           
  2952  0AE2  1003               	clrc
  2953  0AE3  1283               	bcf	3,5	;RP0=0, select bank0
  2954  0AE4  1303               	bcf	3,6	;RP1=0, select bank0
  2955  0AE5  0D6A               	rlf	___fltol@f1+2,w
  2956  0AE6  0D6B               	rlf	___fltol@f1+3,w
  2957  0AE7  1683               	bsf	3,5	;RP0=1, select bank1
  2958  0AE8  1303               	bcf	3,6	;RP1=0, select bank1
  2959  0AE9  00A0               	movwf	??___fltol^(0+128)
  2960  0AEA  0820               	movf	??___fltol^(0+128),w
  2961  0AEB  1283               	bcf	3,5	;RP0=0, select bank0
  2962  0AEC  1303               	bcf	3,6	;RP1=0, select bank0
  2963  0AED  00ED               	movwf	___fltol@exp1
  2964  0AEE  086D               	movf	___fltol@exp1,w
  2965  0AEF  1D03               	btfss	3,2
  2966  0AF0  2AF2               	goto	u170_21
  2967  0AF1  2AF3               	goto	u170_20
  2968  0AF2                     u170_21:
  2969  0AF2  2AFC               	goto	i1l1848
  2970  0AF3                     u170_20:
  2971  0AF3                     i1l1844:
  2972  0AF3  3000               	movlw	0
  2973  0AF4  00EB               	movwf	?___fltol+3
  2974  0AF5  3000               	movlw	0
  2975  0AF6  00EA               	movwf	?___fltol+2
  2976  0AF7  3000               	movlw	0
  2977  0AF8  00E9               	movwf	?___fltol+1
  2978  0AF9  3000               	movlw	0
  2979  0AFA  00E8               	movwf	?___fltol
  2980  0AFB  2B7D               	goto	i1l478
  2981  0AFC                     i1l1848:
  2982  0AFC  0868               	movf	___fltol@f1,w
  2983  0AFD  1683               	bsf	3,5	;RP0=1, select bank1
  2984  0AFE  1303               	bcf	3,6	;RP1=0, select bank1
  2985  0AFF  00A0               	movwf	??___fltol^(0+128)
  2986  0B00  1283               	bcf	3,5	;RP0=0, select bank0
  2987  0B01  1303               	bcf	3,6	;RP1=0, select bank0
  2988  0B02  0869               	movf	___fltol@f1+1,w
  2989  0B03  1683               	bsf	3,5	;RP0=1, select bank1
  2990  0B04  1303               	bcf	3,6	;RP1=0, select bank1
  2991  0B05  00A1               	movwf	(??___fltol^(0+128)+1)
  2992  0B06  1283               	bcf	3,5	;RP0=0, select bank0
  2993  0B07  1303               	bcf	3,6	;RP1=0, select bank0
  2994  0B08  086A               	movf	___fltol@f1+2,w
  2995  0B09  1683               	bsf	3,5	;RP0=1, select bank1
  2996  0B0A  1303               	bcf	3,6	;RP1=0, select bank1
  2997  0B0B  00A2               	movwf	(??___fltol^(0+128)+2)
  2998  0B0C  1283               	bcf	3,5	;RP0=0, select bank0
  2999  0B0D  1303               	bcf	3,6	;RP1=0, select bank0
  3000  0B0E  086B               	movf	___fltol@f1+3,w
  3001  0B0F  1683               	bsf	3,5	;RP0=1, select bank1
  3002  0B10  1303               	bcf	3,6	;RP1=0, select bank1
  3003  0B11  00A3               	movwf	(??___fltol^(0+128)+3)
  3004  0B12  301F               	movlw	31
  3005  0B13                     u171_25:
  3006  0B13  1003               	clrc
  3007  0B14  0CA3               	rrf	(??___fltol^(0+128)+3),f
  3008  0B15  0CA2               	rrf	(??___fltol^(0+128)+2),f
  3009  0B16  0CA1               	rrf	(??___fltol^(0+128)+1),f
  3010  0B17  0CA0               	rrf	??___fltol^(0+128),f
  3011  0B18                     u171_20:
  3012  0B18  3EFF               	addlw	-1
  3013  0B19  1D03               	skipz
  3014  0B1A  2B13               	goto	u171_25
  3015  0B1B  0820               	movf	??___fltol^(0+128),w
  3016  0B1C  00A4               	movwf	(??___fltol+4)^(0+128)
  3017  0B1D  0824               	movf	(??___fltol+4)^(0+128),w
  3018  0B1E  1283               	bcf	3,5	;RP0=0, select bank0
  3019  0B1F  1303               	bcf	3,6	;RP1=0, select bank0
  3020  0B20  00EC               	movwf	___fltol@sign1
  3021  0B21                     i1l1850:
  3022  0B21  17EA               	bsf	___fltol@f1+2,7
  3023  0B22                     i1l1852:
  3024  0B22  30FF               	movlw	255
  3025  0B23  05E8               	andwf	___fltol@f1,f
  3026  0B24  30FF               	movlw	255
  3027  0B25  05E9               	andwf	___fltol@f1+1,f
  3028  0B26  30FF               	movlw	255
  3029  0B27  05EA               	andwf	___fltol@f1+2,f
  3030  0B28  3000               	movlw	0
  3031  0B29  05EB               	andwf	___fltol@f1+3,f
  3032  0B2A                     i1l1854:
  3033  0B2A  3096               	movlw	150
  3034  0B2B  02ED               	subwf	___fltol@exp1,f
  3035  0B2C                     i1l1856:
  3036  0B2C  1FED               	btfss	___fltol@exp1,7
  3037  0B2D  2B2F               	goto	u172_21
  3038  0B2E  2B30               	goto	u172_20
  3039  0B2F                     u172_21:
  3040  0B2F  2B4E               	goto	i1l1866
  3041  0B30                     u172_20:
  3042  0B30                     i1l1858:
  3043  0B30  086D               	movf	___fltol@exp1,w
  3044  0B31  3A80               	xorlw	128
  3045  0B32  3E97               	addlw	151
  3046  0B33  1803               	skipnc
  3047  0B34  2B36               	goto	u173_21
  3048  0B35  2B37               	goto	u173_20
  3049  0B36                     u173_21:
  3050  0B36  2B38               	goto	i1l1864
  3051  0B37                     u173_20:
  3052  0B37  2AF3               	goto	i1l1844
  3053  0B38                     i1l1864:
  3054  0B38  3001               	movlw	1
  3055  0B39                     u174_25:
  3056  0B39  1003               	clrc
  3057  0B3A  0CEB               	rrf	___fltol@f1+3,f
  3058  0B3B  0CEA               	rrf	___fltol@f1+2,f
  3059  0B3C  0CE9               	rrf	___fltol@f1+1,f
  3060  0B3D  0CE8               	rrf	___fltol@f1,f
  3061  0B3E  3EFF               	addlw	-1
  3062  0B3F  1D03               	skipz
  3063  0B40  2B39               	goto	u174_25
  3064  0B41  3001               	movlw	1
  3065  0B42  1683               	bsf	3,5	;RP0=1, select bank1
  3066  0B43  1303               	bcf	3,6	;RP1=0, select bank1
  3067  0B44  00A0               	movwf	??___fltol^(0+128)
  3068  0B45  0820               	movf	??___fltol^(0+128),w
  3069  0B46  1283               	bcf	3,5	;RP0=0, select bank0
  3070  0B47  1303               	bcf	3,6	;RP1=0, select bank0
  3071  0B48  07ED               	addwf	___fltol@exp1,f
  3072  0B49  1D03               	btfss	3,2
  3073  0B4A  2B4C               	goto	u175_21
  3074  0B4B  2B4D               	goto	u175_20
  3075  0B4C                     u175_21:
  3076  0B4C  2B38               	goto	i1l1864
  3077  0B4D                     u175_20:
  3078  0B4D  2B6D               	goto	i1l1874
  3079  0B4E                     i1l1866:
  3080  0B4E  3020               	movlw	32
  3081  0B4F  026D               	subwf	___fltol@exp1,w
  3082  0B50  1C03               	skipc
  3083  0B51  2B53               	goto	u176_21
  3084  0B52  2B54               	goto	u176_20
  3085  0B53                     u176_21:
  3086  0B53  2B68               	goto	i1l485
  3087  0B54                     u176_20:
  3088  0B54  2AF3               	goto	i1l1844
  3089  0B55                     i1l1872:
  3090  0B55  3001               	movlw	1
  3091  0B56  1683               	bsf	3,5	;RP0=1, select bank1
  3092  0B57  1303               	bcf	3,6	;RP1=0, select bank1
  3093  0B58  00A0               	movwf	??___fltol^(0+128)
  3094  0B59                     u177_25:
  3095  0B59  1003               	clrc
  3096  0B5A  1283               	bcf	3,5	;RP0=0, select bank0
  3097  0B5B  1303               	bcf	3,6	;RP1=0, select bank0
  3098  0B5C  0DE8               	rlf	___fltol@f1,f
  3099  0B5D  0DE9               	rlf	___fltol@f1+1,f
  3100  0B5E  0DEA               	rlf	___fltol@f1+2,f
  3101  0B5F  0DEB               	rlf	___fltol@f1+3,f
  3102  0B60  1683               	bsf	3,5	;RP0=1, select bank1
  3103  0B61  1303               	bcf	3,6	;RP1=0, select bank1
  3104  0B62  0BA0               	decfsz	??___fltol^(0+128),f
  3105  0B63  2B59               	goto	u177_25
  3106  0B64  3001               	movlw	1
  3107  0B65  1283               	bcf	3,5	;RP0=0, select bank0
  3108  0B66  1303               	bcf	3,6	;RP1=0, select bank0
  3109  0B67  02ED               	subwf	___fltol@exp1,f
  3110  0B68                     i1l485:
  3111  0B68  086D               	movf	___fltol@exp1,w
  3112  0B69  1D03               	btfss	3,2
  3113  0B6A  2B6C               	goto	u178_21
  3114  0B6B  2B6D               	goto	u178_20
  3115  0B6C                     u178_21:
  3116  0B6C  2B55               	goto	i1l1872
  3117  0B6D                     u178_20:
  3118  0B6D                     i1l1874:
  3119  0B6D  086C               	movf	___fltol@sign1,w
  3120  0B6E  1903               	btfsc	3,2
  3121  0B6F  2B71               	goto	u179_21
  3122  0B70  2B72               	goto	u179_20
  3123  0B71                     u179_21:
  3124  0B71  2B7D               	goto	i1l488
  3125  0B72                     u179_20:
  3126  0B72                     i1l1876:
  3127  0B72  09E8               	comf	___fltol@f1,f
  3128  0B73  09E9               	comf	___fltol@f1+1,f
  3129  0B74  09EA               	comf	___fltol@f1+2,f
  3130  0B75  09EB               	comf	___fltol@f1+3,f
  3131  0B76  0AE8               	incf	___fltol@f1,f
  3132  0B77  1903               	skipnz
  3133  0B78  0AE9               	incf	___fltol@f1+1,f
  3134  0B79  1903               	skipnz
  3135  0B7A  0AEA               	incf	___fltol@f1+2,f
  3136  0B7B  1903               	skipnz
  3137  0B7C  0AEB               	incf	___fltol@f1+3,f
  3138  0B7D                     i1l488:
  3139  0B7D                     i1l478:
  3140  0B7D  0008               	return
  3141  0B7E                     __end_of___fltol:
  3142                           
  3143                           	psect	text8
  3144  0030                     __ptext8:	
  3145 ;; *************** function ___flmul *****************
  3146 ;; Defined at:
  3147 ;;		line 8 in file "C:\Program Files\Microchip\xc8\v2.35\pic\sources\c90\common\sprcmul.c"
  3148 ;; Parameters:    Size  Location     Type
  3149 ;;  b               4   26[BANK0 ] long 
  3150 ;;  a               4   30[BANK0 ] long 
  3151 ;; Auto vars:     Size  Location     Type
  3152 ;;  prod            4   46[BANK0 ] struct .
  3153 ;;  grs             4   40[BANK0 ] unsigned long 
  3154 ;;  temp            2   50[BANK0 ] struct .
  3155 ;;  bexp            1   45[BANK0 ] unsigned char 
  3156 ;;  aexp            1   44[BANK0 ] unsigned char 
  3157 ;;  sign            1   39[BANK0 ] unsigned char 
  3158 ;; Return value:  Size  Location     Type
  3159 ;;                  4   26[BANK0 ] unsigned char 
  3160 ;; Registers used:
  3161 ;;		wreg, status,2, status,0, btemp+1, pclath, cstack
  3162 ;; Tracked objects:
  3163 ;;		On entry : 0/0
  3164 ;;		On exit  : 0/0
  3165 ;;		Unchanged: 0/0
  3166 ;; Data sizes:     COMMON   BANK0   BANK1   BANK3   BANK2
  3167 ;;      Params:         0       8       0       0       0
  3168 ;;      Locals:         0      13       0       0       0
  3169 ;;      Temps:          0       5       0       0       0
  3170 ;;      Totals:         0      26       0       0       0
  3171 ;;Total ram usage:       26 bytes
  3172 ;; Hardware stack levels used: 1
  3173 ;; Hardware stack levels required when called: 1
  3174 ;; This function calls:
  3175 ;;		__Umul8_16
  3176 ;; This function is called by:
  3177 ;;		_map
  3178 ;; This function uses a non-reentrant model
  3179 ;;
  3180                           
  3181  0030                     ___flmul:	
  3182                           ;psect for function ___flmul
  3183                           
  3184  0030                     i1l2214:	
  3185                           ;incstack = 0
  3186                           ; Regs used in ___flmul: [wreg+status,2+status,0+btemp+1+pclath+cstack]
  3187                           
  3188  0030  1283               	bcf	3,5	;RP0=0, select bank0
  3189  0031  1303               	bcf	3,6	;RP1=0, select bank0
  3190  0032  083D               	movf	___flmul@b+3,w
  3191  0033  3980               	andlw	128
  3192  0034  00C2               	movwf	??___flmul
  3193  0035  0842               	movf	??___flmul,w
  3194  0036  00C7               	movwf	___flmul@sign
  3195  0037                     i1l2216:
  3196  0037  083D               	movf	___flmul@b+3,w
  3197  0038  00C2               	movwf	??___flmul
  3198  0039  0742               	addwf	??___flmul,w
  3199  003A  00C3               	movwf	??___flmul+1
  3200  003B  0843               	movf	??___flmul+1,w
  3201  003C  00CD               	movwf	___flmul@bexp
  3202  003D                     i1l2218:
  3203  003D  1FBC               	btfss	___flmul@b+2,7
  3204  003E  2840               	goto	u255_21
  3205  003F  2841               	goto	u255_20
  3206  0040                     u255_21:
  3207  0040  2842               	goto	i1l2222
  3208  0041                     u255_20:
  3209  0041                     i1l2220:
  3210  0041  144D               	bsf	___flmul@bexp,0
  3211  0042                     i1l2222:
  3212  0042  084D               	movf	___flmul@bexp,w
  3213  0043  1903               	btfsc	3,2
  3214  0044  2846               	goto	u256_21
  3215  0045  2847               	goto	u256_20
  3216  0046                     u256_21:
  3217  0046  2856               	goto	i1l2230
  3218  0047                     u256_20:
  3219  0047                     i1l2224:
  3220  0047  0A4D               	incf	___flmul@bexp,w
  3221  0048  1D03               	btfss	3,2
  3222  0049  284B               	goto	u257_21
  3223  004A  284C               	goto	u257_20
  3224  004B                     u257_21:
  3225  004B  2854               	goto	i1l2228
  3226  004C                     u257_20:
  3227  004C                     i1l2226:
  3228  004C  3000               	movlw	0
  3229  004D  00BD               	movwf	___flmul@b+3
  3230  004E  3000               	movlw	0
  3231  004F  00BC               	movwf	___flmul@b+2
  3232  0050  3000               	movlw	0
  3233  0051  00BB               	movwf	___flmul@b+1
  3234  0052  3000               	movlw	0
  3235  0053  00BA               	movwf	___flmul@b
  3236  0054                     i1l2228:
  3237  0054  17BC               	bsf	___flmul@b+2,7
  3238  0055  285E               	goto	i1l2232
  3239  0056                     i1l2230:
  3240  0056  3000               	movlw	0
  3241  0057  00BD               	movwf	___flmul@b+3
  3242  0058  3000               	movlw	0
  3243  0059  00BC               	movwf	___flmul@b+2
  3244  005A  3000               	movlw	0
  3245  005B  00BB               	movwf	___flmul@b+1
  3246  005C  3000               	movlw	0
  3247  005D  00BA               	movwf	___flmul@b
  3248  005E                     i1l2232:
  3249  005E  0841               	movf	___flmul@a+3,w
  3250  005F  3980               	andlw	128
  3251  0060  00C2               	movwf	??___flmul
  3252  0061  0842               	movf	??___flmul,w
  3253  0062  06C7               	xorwf	___flmul@sign,f
  3254  0063                     i1l2234:
  3255  0063  0841               	movf	___flmul@a+3,w
  3256  0064  00C2               	movwf	??___flmul
  3257  0065  0742               	addwf	??___flmul,w
  3258  0066  00C3               	movwf	??___flmul+1
  3259  0067  0843               	movf	??___flmul+1,w
  3260  0068  00CC               	movwf	___flmul@aexp
  3261  0069                     i1l2236:
  3262  0069  1FC0               	btfss	___flmul@a+2,7
  3263  006A  286C               	goto	u258_21
  3264  006B  286D               	goto	u258_20
  3265  006C                     u258_21:
  3266  006C  286E               	goto	i1l2240
  3267  006D                     u258_20:
  3268  006D                     i1l2238:
  3269  006D  144C               	bsf	___flmul@aexp,0
  3270  006E                     i1l2240:
  3271  006E  084C               	movf	___flmul@aexp,w
  3272  006F  1903               	btfsc	3,2
  3273  0070  2872               	goto	u259_21
  3274  0071  2873               	goto	u259_20
  3275  0072                     u259_21:
  3276  0072  2882               	goto	i1l2248
  3277  0073                     u259_20:
  3278  0073                     i1l2242:
  3279  0073  0A4C               	incf	___flmul@aexp,w
  3280  0074  1D03               	btfss	3,2
  3281  0075  2877               	goto	u260_21
  3282  0076  2878               	goto	u260_20
  3283  0077                     u260_21:
  3284  0077  2880               	goto	i1l2246
  3285  0078                     u260_20:
  3286  0078                     i1l2244:
  3287  0078  3000               	movlw	0
  3288  0079  00C1               	movwf	___flmul@a+3
  3289  007A  3000               	movlw	0
  3290  007B  00C0               	movwf	___flmul@a+2
  3291  007C  3000               	movlw	0
  3292  007D  00BF               	movwf	___flmul@a+1
  3293  007E  3000               	movlw	0
  3294  007F  00BE               	movwf	___flmul@a
  3295  0080                     i1l2246:
  3296  0080  17C0               	bsf	___flmul@a+2,7
  3297  0081  288A               	goto	i1l2250
  3298  0082                     i1l2248:
  3299  0082  3000               	movlw	0
  3300  0083  00C1               	movwf	___flmul@a+3
  3301  0084  3000               	movlw	0
  3302  0085  00C0               	movwf	___flmul@a+2
  3303  0086  3000               	movlw	0
  3304  0087  00BF               	movwf	___flmul@a+1
  3305  0088  3000               	movlw	0
  3306  0089  00BE               	movwf	___flmul@a
  3307  008A                     i1l2250:
  3308  008A  084C               	movf	___flmul@aexp,w
  3309  008B  1903               	btfsc	3,2
  3310  008C  288E               	goto	u261_21
  3311  008D  288F               	goto	u261_20
  3312  008E                     u261_21:
  3313  008E  2894               	goto	i1l2254
  3314  008F                     u261_20:
  3315  008F                     i1l2252:
  3316  008F  084D               	movf	___flmul@bexp,w
  3317  0090  1D03               	btfss	3,2
  3318  0091  2893               	goto	u262_21
  3319  0092  2894               	goto	u262_20
  3320  0093                     u262_21:
  3321  0093  289D               	goto	i1l2258
  3322  0094                     u262_20:
  3323  0094                     i1l2254:
  3324  0094  3000               	movlw	0
  3325  0095  00BD               	movwf	?___flmul+3
  3326  0096  3000               	movlw	0
  3327  0097  00BC               	movwf	?___flmul+2
  3328  0098  3000               	movlw	0
  3329  0099  00BB               	movwf	?___flmul+1
  3330  009A  3000               	movlw	0
  3331  009B  00BA               	movwf	?___flmul
  3332  009C  2B90               	goto	i1l681
  3333  009D                     i1l2258:
  3334  009D  083A               	movf	___flmul@b,w
  3335  009E  00C2               	movwf	??___flmul
  3336  009F  0842               	movf	??___flmul,w
  3337  00A0  00F0               	movwf	__Umul8_16@multiplicand
  3338  00A1  0840               	movf	___flmul@a+2,w
  3339  00A2  120A  158A  222E  120A  118A  	fcall	__Umul8_16
  3340  00A7  0871               	movf	?__Umul8_16+1,w
  3341  00A8  1283               	bcf	3,5	;RP0=0, select bank0
  3342  00A9  1303               	bcf	3,6	;RP1=0, select bank0
  3343  00AA  00D3               	movwf	___flmul@temp+1
  3344  00AB  0870               	movf	?__Umul8_16,w
  3345  00AC  00D2               	movwf	___flmul@temp
  3346  00AD                     i1l2260:
  3347  00AD  0852               	movf	___flmul@temp,w
  3348  00AE  00C2               	movwf	??___flmul
  3349  00AF  01C3               	clrf	??___flmul+1
  3350  00B0  01C4               	clrf	??___flmul+2
  3351  00B1  01C5               	clrf	??___flmul+3
  3352  00B2  0845               	movf	??___flmul+3,w
  3353  00B3  00CB               	movwf	___flmul@grs+3
  3354  00B4  0844               	movf	??___flmul+2,w
  3355  00B5  00CA               	movwf	___flmul@grs+2
  3356  00B6  0843               	movf	??___flmul+1,w
  3357  00B7  00C9               	movwf	___flmul@grs+1
  3358  00B8  0842               	movf	??___flmul,w
  3359  00B9  00C8               	movwf	___flmul@grs
  3360  00BA                     i1l2262:
  3361  00BA  0853               	movf	___flmul@temp+1,w
  3362  00BB  00C2               	movwf	??___flmul
  3363  00BC  01C3               	clrf	??___flmul+1
  3364  00BD  01C4               	clrf	??___flmul+2
  3365  00BE  01C5               	clrf	??___flmul+3
  3366  00BF  0845               	movf	??___flmul+3,w
  3367  00C0  00D1               	movwf	___flmul@prod+3
  3368  00C1  0844               	movf	??___flmul+2,w
  3369  00C2  00D0               	movwf	___flmul@prod+2
  3370  00C3  0843               	movf	??___flmul+1,w
  3371  00C4  00CF               	movwf	___flmul@prod+1
  3372  00C5  0842               	movf	??___flmul,w
  3373  00C6  00CE               	movwf	___flmul@prod
  3374  00C7  083B               	movf	___flmul@b+1,w
  3375  00C8  00C2               	movwf	??___flmul
  3376  00C9  0842               	movf	??___flmul,w
  3377  00CA  00F0               	movwf	__Umul8_16@multiplicand
  3378  00CB  083F               	movf	___flmul@a+1,w
  3379  00CC  120A  158A  222E  120A  118A  	fcall	__Umul8_16
  3380  00D1  0871               	movf	?__Umul8_16+1,w
  3381  00D2  1283               	bcf	3,5	;RP0=0, select bank0
  3382  00D3  1303               	bcf	3,6	;RP1=0, select bank0
  3383  00D4  00D3               	movwf	___flmul@temp+1
  3384  00D5  0870               	movf	?__Umul8_16,w
  3385  00D6  00D2               	movwf	___flmul@temp
  3386  00D7                     i1l2264:
  3387  00D7  0852               	movf	___flmul@temp,w
  3388  00D8  00C2               	movwf	??___flmul
  3389  00D9  01C3               	clrf	??___flmul+1
  3390  00DA  01C4               	clrf	??___flmul+2
  3391  00DB  01C5               	clrf	??___flmul+3
  3392  00DC  0842               	movf	??___flmul,w
  3393  00DD  07C8               	addwf	___flmul@grs,f
  3394  00DE  0843               	movf	??___flmul+1,w
  3395  00DF  1103               	clrz
  3396  00E0  1803               	skipnc
  3397  00E1  3E01               	addlw	1
  3398  00E2  1903               	skipnz
  3399  00E3  28E5               	goto	u263_21
  3400  00E4  07C9               	addwf	___flmul@grs+1,f
  3401  00E5                     u263_21:
  3402  00E5  0844               	movf	??___flmul+2,w
  3403  00E6  1103               	clrz
  3404  00E7  1803               	skipnc
  3405  00E8  3E01               	addlw	1
  3406  00E9  1903               	skipnz
  3407  00EA  28EC               	goto	u263_22
  3408  00EB  07CA               	addwf	___flmul@grs+2,f
  3409  00EC                     u263_22:
  3410  00EC  0845               	movf	??___flmul+3,w
  3411  00ED  1103               	clrz
  3412  00EE  1803               	skipnc
  3413  00EF  3E01               	addlw	1
  3414  00F0  1903               	skipnz
  3415  00F1  28F3               	goto	u263_23
  3416  00F2  07CB               	addwf	___flmul@grs+3,f
  3417  00F3                     u263_23:
  3418  00F3                     i1l2266:
  3419  00F3  0853               	movf	___flmul@temp+1,w
  3420  00F4  00C2               	movwf	??___flmul
  3421  00F5  01C3               	clrf	??___flmul+1
  3422  00F6  01C4               	clrf	??___flmul+2
  3423  00F7  01C5               	clrf	??___flmul+3
  3424  00F8  0842               	movf	??___flmul,w
  3425  00F9  07CE               	addwf	___flmul@prod,f
  3426  00FA  0843               	movf	??___flmul+1,w
  3427  00FB  1103               	clrz
  3428  00FC  1803               	skipnc
  3429  00FD  3E01               	addlw	1
  3430  00FE  1903               	skipnz
  3431  00FF  2901               	goto	u264_21
  3432  0100  07CF               	addwf	___flmul@prod+1,f
  3433  0101                     u264_21:
  3434  0101  0844               	movf	??___flmul+2,w
  3435  0102  1103               	clrz
  3436  0103  1803               	skipnc
  3437  0104  3E01               	addlw	1
  3438  0105  1903               	skipnz
  3439  0106  2908               	goto	u264_22
  3440  0107  07D0               	addwf	___flmul@prod+2,f
  3441  0108                     u264_22:
  3442  0108  0845               	movf	??___flmul+3,w
  3443  0109  1103               	clrz
  3444  010A  1803               	skipnc
  3445  010B  3E01               	addlw	1
  3446  010C  1903               	skipnz
  3447  010D  290F               	goto	u264_23
  3448  010E  07D1               	addwf	___flmul@prod+3,f
  3449  010F                     u264_23:
  3450  010F  083C               	movf	___flmul@b+2,w
  3451  0110  00C2               	movwf	??___flmul
  3452  0111  0842               	movf	??___flmul,w
  3453  0112  00F0               	movwf	__Umul8_16@multiplicand
  3454  0113  083E               	movf	___flmul@a,w
  3455  0114  120A  158A  222E  120A  118A  	fcall	__Umul8_16
  3456  0119  0871               	movf	?__Umul8_16+1,w
  3457  011A  1283               	bcf	3,5	;RP0=0, select bank0
  3458  011B  1303               	bcf	3,6	;RP1=0, select bank0
  3459  011C  00D3               	movwf	___flmul@temp+1
  3460  011D  0870               	movf	?__Umul8_16,w
  3461  011E  00D2               	movwf	___flmul@temp
  3462  011F                     i1l2268:
  3463  011F  0852               	movf	___flmul@temp,w
  3464  0120  00C2               	movwf	??___flmul
  3465  0121  01C3               	clrf	??___flmul+1
  3466  0122  01C4               	clrf	??___flmul+2
  3467  0123  01C5               	clrf	??___flmul+3
  3468  0124  0842               	movf	??___flmul,w
  3469  0125  07C8               	addwf	___flmul@grs,f
  3470  0126  0843               	movf	??___flmul+1,w
  3471  0127  1103               	clrz
  3472  0128  1803               	skipnc
  3473  0129  3E01               	addlw	1
  3474  012A  1903               	skipnz
  3475  012B  292D               	goto	u265_21
  3476  012C  07C9               	addwf	___flmul@grs+1,f
  3477  012D                     u265_21:
  3478  012D  0844               	movf	??___flmul+2,w
  3479  012E  1103               	clrz
  3480  012F  1803               	skipnc
  3481  0130  3E01               	addlw	1
  3482  0131  1903               	skipnz
  3483  0132  2934               	goto	u265_22
  3484  0133  07CA               	addwf	___flmul@grs+2,f
  3485  0134                     u265_22:
  3486  0134  0845               	movf	??___flmul+3,w
  3487  0135  1103               	clrz
  3488  0136  1803               	skipnc
  3489  0137  3E01               	addlw	1
  3490  0138  1903               	skipnz
  3491  0139  293B               	goto	u265_23
  3492  013A  07CB               	addwf	___flmul@grs+3,f
  3493  013B                     u265_23:
  3494  013B                     i1l2270:
  3495  013B  0853               	movf	___flmul@temp+1,w
  3496  013C  00C2               	movwf	??___flmul
  3497  013D  01C3               	clrf	??___flmul+1
  3498  013E  01C4               	clrf	??___flmul+2
  3499  013F  01C5               	clrf	??___flmul+3
  3500  0140  0842               	movf	??___flmul,w
  3501  0141  07CE               	addwf	___flmul@prod,f
  3502  0142  0843               	movf	??___flmul+1,w
  3503  0143  1103               	clrz
  3504  0144  1803               	skipnc
  3505  0145  3E01               	addlw	1
  3506  0146  1903               	skipnz
  3507  0147  2949               	goto	u266_21
  3508  0148  07CF               	addwf	___flmul@prod+1,f
  3509  0149                     u266_21:
  3510  0149  0844               	movf	??___flmul+2,w
  3511  014A  1103               	clrz
  3512  014B  1803               	skipnc
  3513  014C  3E01               	addlw	1
  3514  014D  1903               	skipnz
  3515  014E  2950               	goto	u266_22
  3516  014F  07D0               	addwf	___flmul@prod+2,f
  3517  0150                     u266_22:
  3518  0150  0845               	movf	??___flmul+3,w
  3519  0151  1103               	clrz
  3520  0152  1803               	skipnc
  3521  0153  3E01               	addlw	1
  3522  0154  1903               	skipnz
  3523  0155  2957               	goto	u266_23
  3524  0156  07D1               	addwf	___flmul@prod+3,f
  3525  0157                     u266_23:
  3526  0157                     i1l2272:
  3527  0157  3008               	movlw	8
  3528  0158  00C2               	movwf	??___flmul
  3529  0159                     u267_25:
  3530  0159  1003               	clrc
  3531  015A  0DC8               	rlf	___flmul@grs,f
  3532  015B  0DC9               	rlf	___flmul@grs+1,f
  3533  015C  0DCA               	rlf	___flmul@grs+2,f
  3534  015D  0DCB               	rlf	___flmul@grs+3,f
  3535  015E  0BC2               	decfsz	??___flmul,f
  3536  015F  2959               	goto	u267_25
  3537  0160                     i1l2274:
  3538  0160  083B               	movf	___flmul@b+1,w
  3539  0161  00C2               	movwf	??___flmul
  3540  0162  0842               	movf	??___flmul,w
  3541  0163  00F0               	movwf	__Umul8_16@multiplicand
  3542  0164  083E               	movf	___flmul@a,w
  3543  0165  120A  158A  222E  120A  118A  	fcall	__Umul8_16
  3544  016A  0871               	movf	?__Umul8_16+1,w
  3545  016B  1283               	bcf	3,5	;RP0=0, select bank0
  3546  016C  1303               	bcf	3,6	;RP1=0, select bank0
  3547  016D  00D3               	movwf	___flmul@temp+1
  3548  016E  0870               	movf	?__Umul8_16,w
  3549  016F  00D2               	movwf	___flmul@temp
  3550  0170                     i1l2276:
  3551  0170  0852               	movf	___flmul@temp,w
  3552  0171  00C2               	movwf	??___flmul
  3553  0172  0853               	movf	___flmul@temp+1,w
  3554  0173  00C3               	movwf	??___flmul+1
  3555  0174  01C4               	clrf	??___flmul+2
  3556  0175  01C5               	clrf	??___flmul+3
  3557  0176  0842               	movf	??___flmul,w
  3558  0177  07C8               	addwf	___flmul@grs,f
  3559  0178  0843               	movf	??___flmul+1,w
  3560  0179  1103               	clrz
  3561  017A  1803               	skipnc
  3562  017B  3E01               	addlw	1
  3563  017C  1903               	skipnz
  3564  017D  297F               	goto	u268_21
  3565  017E  07C9               	addwf	___flmul@grs+1,f
  3566  017F                     u268_21:
  3567  017F  0844               	movf	??___flmul+2,w
  3568  0180  1103               	clrz
  3569  0181  1803               	skipnc
  3570  0182  3E01               	addlw	1
  3571  0183  1903               	skipnz
  3572  0184  2986               	goto	u268_22
  3573  0185  07CA               	addwf	___flmul@grs+2,f
  3574  0186                     u268_22:
  3575  0186  0845               	movf	??___flmul+3,w
  3576  0187  1103               	clrz
  3577  0188  1803               	skipnc
  3578  0189  3E01               	addlw	1
  3579  018A  1903               	skipnz
  3580  018B  298D               	goto	u268_23
  3581  018C  07CB               	addwf	___flmul@grs+3,f
  3582  018D                     u268_23:
  3583  018D                     i1l2278:
  3584  018D  083A               	movf	___flmul@b,w
  3585  018E  00C2               	movwf	??___flmul
  3586  018F  0842               	movf	??___flmul,w
  3587  0190  00F0               	movwf	__Umul8_16@multiplicand
  3588  0191  083F               	movf	___flmul@a+1,w
  3589  0192  120A  158A  222E  120A  118A  	fcall	__Umul8_16
  3590  0197  0871               	movf	?__Umul8_16+1,w
  3591  0198  1283               	bcf	3,5	;RP0=0, select bank0
  3592  0199  1303               	bcf	3,6	;RP1=0, select bank0
  3593  019A  00D3               	movwf	___flmul@temp+1
  3594  019B  0870               	movf	?__Umul8_16,w
  3595  019C  00D2               	movwf	___flmul@temp
  3596  019D                     i1l2280:
  3597  019D  0852               	movf	___flmul@temp,w
  3598  019E  00C2               	movwf	??___flmul
  3599  019F  0853               	movf	___flmul@temp+1,w
  3600  01A0  00C3               	movwf	??___flmul+1
  3601  01A1  01C4               	clrf	??___flmul+2
  3602  01A2  01C5               	clrf	??___flmul+3
  3603  01A3  0842               	movf	??___flmul,w
  3604  01A4  07C8               	addwf	___flmul@grs,f
  3605  01A5  0843               	movf	??___flmul+1,w
  3606  01A6  1103               	clrz
  3607  01A7  1803               	skipnc
  3608  01A8  3E01               	addlw	1
  3609  01A9  1903               	skipnz
  3610  01AA  29AC               	goto	u269_21
  3611  01AB  07C9               	addwf	___flmul@grs+1,f
  3612  01AC                     u269_21:
  3613  01AC  0844               	movf	??___flmul+2,w
  3614  01AD  1103               	clrz
  3615  01AE  1803               	skipnc
  3616  01AF  3E01               	addlw	1
  3617  01B0  1903               	skipnz
  3618  01B1  29B3               	goto	u269_22
  3619  01B2  07CA               	addwf	___flmul@grs+2,f
  3620  01B3                     u269_22:
  3621  01B3  0845               	movf	??___flmul+3,w
  3622  01B4  1103               	clrz
  3623  01B5  1803               	skipnc
  3624  01B6  3E01               	addlw	1
  3625  01B7  1903               	skipnz
  3626  01B8  29BA               	goto	u269_23
  3627  01B9  07CB               	addwf	___flmul@grs+3,f
  3628  01BA                     u269_23:
  3629  01BA                     i1l2282:
  3630  01BA  3008               	movlw	8
  3631  01BB  00C2               	movwf	??___flmul
  3632  01BC                     u270_25:
  3633  01BC  1003               	clrc
  3634  01BD  0DC8               	rlf	___flmul@grs,f
  3635  01BE  0DC9               	rlf	___flmul@grs+1,f
  3636  01BF  0DCA               	rlf	___flmul@grs+2,f
  3637  01C0  0DCB               	rlf	___flmul@grs+3,f
  3638  01C1  0BC2               	decfsz	??___flmul,f
  3639  01C2  29BC               	goto	u270_25
  3640  01C3  083A               	movf	___flmul@b,w
  3641  01C4  00C2               	movwf	??___flmul
  3642  01C5  0842               	movf	??___flmul,w
  3643  01C6  00F0               	movwf	__Umul8_16@multiplicand
  3644  01C7  083E               	movf	___flmul@a,w
  3645  01C8  120A  158A  222E  120A  118A  	fcall	__Umul8_16
  3646  01CD  0871               	movf	?__Umul8_16+1,w
  3647  01CE  1283               	bcf	3,5	;RP0=0, select bank0
  3648  01CF  1303               	bcf	3,6	;RP1=0, select bank0
  3649  01D0  00D3               	movwf	___flmul@temp+1
  3650  01D1  0870               	movf	?__Umul8_16,w
  3651  01D2  00D2               	movwf	___flmul@temp
  3652  01D3                     i1l2284:
  3653  01D3  0852               	movf	___flmul@temp,w
  3654  01D4  00C2               	movwf	??___flmul
  3655  01D5  0853               	movf	___flmul@temp+1,w
  3656  01D6  00C3               	movwf	??___flmul+1
  3657  01D7  01C4               	clrf	??___flmul+2
  3658  01D8  01C5               	clrf	??___flmul+3
  3659  01D9  0842               	movf	??___flmul,w
  3660  01DA  07C8               	addwf	___flmul@grs,f
  3661  01DB  0843               	movf	??___flmul+1,w
  3662  01DC  1103               	clrz
  3663  01DD  1803               	skipnc
  3664  01DE  3E01               	addlw	1
  3665  01DF  1903               	skipnz
  3666  01E0  29E2               	goto	u271_21
  3667  01E1  07C9               	addwf	___flmul@grs+1,f
  3668  01E2                     u271_21:
  3669  01E2  0844               	movf	??___flmul+2,w
  3670  01E3  1103               	clrz
  3671  01E4  1803               	skipnc
  3672  01E5  3E01               	addlw	1
  3673  01E6  1903               	skipnz
  3674  01E7  29E9               	goto	u271_22
  3675  01E8  07CA               	addwf	___flmul@grs+2,f
  3676  01E9                     u271_22:
  3677  01E9  0845               	movf	??___flmul+3,w
  3678  01EA  1103               	clrz
  3679  01EB  1803               	skipnc
  3680  01EC  3E01               	addlw	1
  3681  01ED  1903               	skipnz
  3682  01EE  29F0               	goto	u271_23
  3683  01EF  07CB               	addwf	___flmul@grs+3,f
  3684  01F0                     u271_23:
  3685  01F0                     i1l2286:
  3686  01F0  083B               	movf	___flmul@b+1,w
  3687  01F1  00C2               	movwf	??___flmul
  3688  01F2  0842               	movf	??___flmul,w
  3689  01F3  00F0               	movwf	__Umul8_16@multiplicand
  3690  01F4  0840               	movf	___flmul@a+2,w
  3691  01F5  120A  158A  222E  120A  118A  	fcall	__Umul8_16
  3692  01FA  0871               	movf	?__Umul8_16+1,w
  3693  01FB  1283               	bcf	3,5	;RP0=0, select bank0
  3694  01FC  1303               	bcf	3,6	;RP1=0, select bank0
  3695  01FD  00D3               	movwf	___flmul@temp+1
  3696  01FE  0870               	movf	?__Umul8_16,w
  3697  01FF  00D2               	movwf	___flmul@temp
  3698  0200  0852               	movf	___flmul@temp,w
  3699  0201  00C2               	movwf	??___flmul
  3700  0202  0853               	movf	___flmul@temp+1,w
  3701  0203  00C3               	movwf	??___flmul+1
  3702  0204  01C4               	clrf	??___flmul+2
  3703  0205  01C5               	clrf	??___flmul+3
  3704  0206  0842               	movf	??___flmul,w
  3705  0207  07CE               	addwf	___flmul@prod,f
  3706  0208  0843               	movf	??___flmul+1,w
  3707  0209  1103               	clrz
  3708  020A  1803               	skipnc
  3709  020B  3E01               	addlw	1
  3710  020C  1903               	skipnz
  3711  020D  2A0F               	goto	u272_21
  3712  020E  07CF               	addwf	___flmul@prod+1,f
  3713  020F                     u272_21:
  3714  020F  0844               	movf	??___flmul+2,w
  3715  0210  1103               	clrz
  3716  0211  1803               	skipnc
  3717  0212  3E01               	addlw	1
  3718  0213  1903               	skipnz
  3719  0214  2A16               	goto	u272_22
  3720  0215  07D0               	addwf	___flmul@prod+2,f
  3721  0216                     u272_22:
  3722  0216  0845               	movf	??___flmul+3,w
  3723  0217  1103               	clrz
  3724  0218  1803               	skipnc
  3725  0219  3E01               	addlw	1
  3726  021A  1903               	skipnz
  3727  021B  2A1D               	goto	u272_23
  3728  021C  07D1               	addwf	___flmul@prod+3,f
  3729  021D                     u272_23:
  3730  021D                     i1l2288:
  3731  021D  083C               	movf	___flmul@b+2,w
  3732  021E  00C2               	movwf	??___flmul
  3733  021F  0842               	movf	??___flmul,w
  3734  0220  00F0               	movwf	__Umul8_16@multiplicand
  3735  0221  083F               	movf	___flmul@a+1,w
  3736  0222  120A  158A  222E  120A  118A  	fcall	__Umul8_16
  3737  0227  0871               	movf	?__Umul8_16+1,w
  3738  0228  1283               	bcf	3,5	;RP0=0, select bank0
  3739  0229  1303               	bcf	3,6	;RP1=0, select bank0
  3740  022A  00D3               	movwf	___flmul@temp+1
  3741  022B  0870               	movf	?__Umul8_16,w
  3742  022C  00D2               	movwf	___flmul@temp
  3743  022D                     i1l2290:
  3744  022D  0852               	movf	___flmul@temp,w
  3745  022E  00C2               	movwf	??___flmul
  3746  022F  0853               	movf	___flmul@temp+1,w
  3747  0230  00C3               	movwf	??___flmul+1
  3748  0231  01C4               	clrf	??___flmul+2
  3749  0232  01C5               	clrf	??___flmul+3
  3750  0233  0842               	movf	??___flmul,w
  3751  0234  07CE               	addwf	___flmul@prod,f
  3752  0235  0843               	movf	??___flmul+1,w
  3753  0236  1103               	clrz
  3754  0237  1803               	skipnc
  3755  0238  3E01               	addlw	1
  3756  0239  1903               	skipnz
  3757  023A  2A3C               	goto	u273_21
  3758  023B  07CF               	addwf	___flmul@prod+1,f
  3759  023C                     u273_21:
  3760  023C  0844               	movf	??___flmul+2,w
  3761  023D  1103               	clrz
  3762  023E  1803               	skipnc
  3763  023F  3E01               	addlw	1
  3764  0240  1903               	skipnz
  3765  0241  2A43               	goto	u273_22
  3766  0242  07D0               	addwf	___flmul@prod+2,f
  3767  0243                     u273_22:
  3768  0243  0845               	movf	??___flmul+3,w
  3769  0244  1103               	clrz
  3770  0245  1803               	skipnc
  3771  0246  3E01               	addlw	1
  3772  0247  1903               	skipnz
  3773  0248  2A4A               	goto	u273_23
  3774  0249  07D1               	addwf	___flmul@prod+3,f
  3775  024A                     u273_23:
  3776  024A  083C               	movf	___flmul@b+2,w
  3777  024B  00C2               	movwf	??___flmul
  3778  024C  0842               	movf	??___flmul,w
  3779  024D  00F0               	movwf	__Umul8_16@multiplicand
  3780  024E  0840               	movf	___flmul@a+2,w
  3781  024F  120A  158A  222E  120A  118A  	fcall	__Umul8_16
  3782  0254  0871               	movf	?__Umul8_16+1,w
  3783  0255  1283               	bcf	3,5	;RP0=0, select bank0
  3784  0256  1303               	bcf	3,6	;RP1=0, select bank0
  3785  0257  00D3               	movwf	___flmul@temp+1
  3786  0258  0870               	movf	?__Umul8_16,w
  3787  0259  00D2               	movwf	___flmul@temp
  3788  025A                     i1l2292:
  3789  025A  0852               	movf	___flmul@temp,w
  3790  025B  00C2               	movwf	??___flmul
  3791  025C  0853               	movf	___flmul@temp+1,w
  3792  025D  00C3               	movwf	??___flmul+1
  3793  025E  01C4               	clrf	??___flmul+2
  3794  025F  01C5               	clrf	??___flmul+3
  3795  0260  3008               	movlw	8
  3796  0261                     u274_25:
  3797  0261  1003               	clrc
  3798  0262  0DC2               	rlf	??___flmul,f
  3799  0263  0DC3               	rlf	??___flmul+1,f
  3800  0264  0DC4               	rlf	??___flmul+2,f
  3801  0265  0DC5               	rlf	??___flmul+3,f
  3802  0266                     u274_20:
  3803  0266  3EFF               	addlw	-1
  3804  0267  1D03               	skipz
  3805  0268  2A61               	goto	u274_25
  3806  0269  0842               	movf	??___flmul,w
  3807  026A  07CE               	addwf	___flmul@prod,f
  3808  026B  0843               	movf	??___flmul+1,w
  3809  026C  1103               	clrz
  3810  026D  1803               	skipnc
  3811  026E  3E01               	addlw	1
  3812  026F  1903               	skipnz
  3813  0270  2A72               	goto	u275_21
  3814  0271  07CF               	addwf	___flmul@prod+1,f
  3815  0272                     u275_21:
  3816  0272  0844               	movf	??___flmul+2,w
  3817  0273  1103               	clrz
  3818  0274  1803               	skipnc
  3819  0275  3E01               	addlw	1
  3820  0276  1903               	skipnz
  3821  0277  2A79               	goto	u275_22
  3822  0278  07D0               	addwf	___flmul@prod+2,f
  3823  0279                     u275_22:
  3824  0279  0845               	movf	??___flmul+3,w
  3825  027A  1103               	clrz
  3826  027B  1803               	skipnc
  3827  027C  3E01               	addlw	1
  3828  027D  1903               	skipnz
  3829  027E  2A80               	goto	u275_23
  3830  027F  07D1               	addwf	___flmul@prod+3,f
  3831  0280                     u275_23:
  3832  0280                     i1l2294:
  3833  0280  0848               	movf	___flmul@grs,w
  3834  0281  00C2               	movwf	??___flmul
  3835  0282  0849               	movf	___flmul@grs+1,w
  3836  0283  00C3               	movwf	??___flmul+1
  3837  0284  084A               	movf	___flmul@grs+2,w
  3838  0285  00C4               	movwf	??___flmul+2
  3839  0286  084B               	movf	___flmul@grs+3,w
  3840  0287  00C5               	movwf	??___flmul+3
  3841  0288  3018               	movlw	24
  3842  0289                     u276_25:
  3843  0289  1003               	clrc
  3844  028A  0CC5               	rrf	??___flmul+3,f
  3845  028B  0CC4               	rrf	??___flmul+2,f
  3846  028C  0CC3               	rrf	??___flmul+1,f
  3847  028D  0CC2               	rrf	??___flmul,f
  3848  028E                     u276_20:
  3849  028E  3EFF               	addlw	-1
  3850  028F  1D03               	skipz
  3851  0290  2A89               	goto	u276_25
  3852  0291  0842               	movf	??___flmul,w
  3853  0292  07CE               	addwf	___flmul@prod,f
  3854  0293  0843               	movf	??___flmul+1,w
  3855  0294  1103               	clrz
  3856  0295  1803               	skipnc
  3857  0296  3E01               	addlw	1
  3858  0297  1903               	skipnz
  3859  0298  2A9A               	goto	u277_21
  3860  0299  07CF               	addwf	___flmul@prod+1,f
  3861  029A                     u277_21:
  3862  029A  0844               	movf	??___flmul+2,w
  3863  029B  1103               	clrz
  3864  029C  1803               	skipnc
  3865  029D  3E01               	addlw	1
  3866  029E  1903               	skipnz
  3867  029F  2AA1               	goto	u277_22
  3868  02A0  07D0               	addwf	___flmul@prod+2,f
  3869  02A1                     u277_22:
  3870  02A1  0845               	movf	??___flmul+3,w
  3871  02A2  1103               	clrz
  3872  02A3  1803               	skipnc
  3873  02A4  3E01               	addlw	1
  3874  02A5  1903               	skipnz
  3875  02A6  2AA8               	goto	u277_23
  3876  02A7  07D1               	addwf	___flmul@prod+3,f
  3877  02A8                     u277_23:
  3878  02A8                     i1l2296:
  3879  02A8  3008               	movlw	8
  3880  02A9  00C2               	movwf	??___flmul
  3881  02AA                     u278_25:
  3882  02AA  1003               	clrc
  3883  02AB  0DC8               	rlf	___flmul@grs,f
  3884  02AC  0DC9               	rlf	___flmul@grs+1,f
  3885  02AD  0DCA               	rlf	___flmul@grs+2,f
  3886  02AE  0DCB               	rlf	___flmul@grs+3,f
  3887  02AF  0BC2               	decfsz	??___flmul,f
  3888  02B0  2AAA               	goto	u278_25
  3889  02B1                     i1l2298:
  3890  02B1  084D               	movf	___flmul@bexp,w
  3891  02B2  074C               	addwf	___flmul@aexp,w
  3892  02B3  00C2               	movwf	??___flmul
  3893  02B4  01C3               	clrf	??___flmul+1
  3894  02B5  0DC3               	rlf	??___flmul+1,f
  3895  02B6  0842               	movf	??___flmul,w
  3896  02B7  3E82               	addlw	130
  3897  02B8  00D2               	movwf	___flmul@temp
  3898  02B9  0843               	movf	??___flmul+1,w
  3899  02BA  1803               	skipnc
  3900  02BB  3E01               	addlw	1
  3901  02BC  3EFF               	addlw	255
  3902  02BD  00D3               	movwf	___flmul@temp+1
  3903  02BE  2ADC               	goto	i1l2310
  3904  02BF                     i1l2300:
  3905  02BF  3001               	movlw	1
  3906  02C0  00C2               	movwf	??___flmul
  3907  02C1                     u279_25:
  3908  02C1  1003               	clrc
  3909  02C2  0DCE               	rlf	___flmul@prod,f
  3910  02C3  0DCF               	rlf	___flmul@prod+1,f
  3911  02C4  0DD0               	rlf	___flmul@prod+2,f
  3912  02C5  0DD1               	rlf	___flmul@prod+3,f
  3913  02C6  0BC2               	decfsz	??___flmul,f
  3914  02C7  2AC1               	goto	u279_25
  3915  02C8                     i1l2302:
  3916  02C8  1FCB               	btfss	___flmul@grs+3,7
  3917  02C9  2ACB               	goto	u280_21
  3918  02CA  2ACC               	goto	u280_20
  3919  02CB                     u280_21:
  3920  02CB  2ACD               	goto	i1l2306
  3921  02CC                     u280_20:
  3922  02CC                     i1l2304:
  3923  02CC  144E               	bsf	___flmul@prod,0
  3924  02CD                     i1l2306:
  3925  02CD  3001               	movlw	1
  3926  02CE  00C2               	movwf	??___flmul
  3927  02CF                     u281_25:
  3928  02CF  1003               	clrc
  3929  02D0  0DC8               	rlf	___flmul@grs,f
  3930  02D1  0DC9               	rlf	___flmul@grs+1,f
  3931  02D2  0DCA               	rlf	___flmul@grs+2,f
  3932  02D3  0DCB               	rlf	___flmul@grs+3,f
  3933  02D4  0BC2               	decfsz	??___flmul,f
  3934  02D5  2ACF               	goto	u281_25
  3935  02D6                     i1l2308:
  3936  02D6  30FF               	movlw	255
  3937  02D7  07D2               	addwf	___flmul@temp,f
  3938  02D8  1803               	skipnc
  3939  02D9  0AD3               	incf	___flmul@temp+1,f
  3940  02DA  30FF               	movlw	255
  3941  02DB  07D3               	addwf	___flmul@temp+1,f
  3942  02DC                     i1l2310:
  3943  02DC  1FD0               	btfss	___flmul@prod+2,7
  3944  02DD  2ADF               	goto	u282_21
  3945  02DE  2AE0               	goto	u282_20
  3946  02DF                     u282_21:
  3947  02DF  2ABF               	goto	i1l2300
  3948  02E0                     u282_20:
  3949  02E0                     i1l2312:
  3950  02E0  01CC               	clrf	___flmul@aexp
  3951  02E1                     i1l2314:
  3952  02E1  1FCB               	btfss	___flmul@grs+3,7
  3953  02E2  2AE4               	goto	u283_21
  3954  02E3  2AE5               	goto	u283_20
  3955  02E4                     u283_21:
  3956  02E4  2B01               	goto	i1l2322
  3957  02E5                     u283_20:
  3958  02E5                     i1l2316:
  3959  02E5  30FF               	movlw	255
  3960  02E6  0548               	andwf	___flmul@grs,w
  3961  02E7  00C2               	movwf	??___flmul
  3962  02E8  30FF               	movlw	255
  3963  02E9  0549               	andwf	___flmul@grs+1,w
  3964  02EA  00C3               	movwf	??___flmul+1
  3965  02EB  30FF               	movlw	255
  3966  02EC  054A               	andwf	___flmul@grs+2,w
  3967  02ED  00C4               	movwf	??___flmul+2
  3968  02EE  307F               	movlw	127
  3969  02EF  054B               	andwf	___flmul@grs+3,w
  3970  02F0  00C5               	movwf	??___flmul+3
  3971  02F1  0845               	movf	??___flmul+3,w
  3972  02F2  0444               	iorwf	??___flmul+2,w
  3973  02F3  0443               	iorwf	??___flmul+1,w
  3974  02F4  0442               	iorwf	??___flmul,w
  3975  02F5  1903               	skipnz
  3976  02F6  2AF8               	goto	u284_21
  3977  02F7  2AF9               	goto	u284_20
  3978  02F8                     u284_21:
  3979  02F8  2AFC               	goto	i1l687
  3980  02F9                     u284_20:
  3981  02F9                     i1l2318:
  3982  02F9  01CC               	clrf	___flmul@aexp
  3983  02FA  0ACC               	incf	___flmul@aexp,f
  3984  02FB  2B01               	goto	i1l2322
  3985  02FC                     i1l687:
  3986  02FC  1C4E               	btfss	___flmul@prod,0
  3987  02FD  2AFF               	goto	u285_21
  3988  02FE  2B00               	goto	u285_20
  3989  02FF                     u285_21:
  3990  02FF  2B01               	goto	i1l2322
  3991  0300                     u285_20:
  3992  0300  2AF9               	goto	i1l2318
  3993  0301                     i1l2322:
  3994  0301  084C               	movf	___flmul@aexp,w
  3995  0302  1903               	btfsc	3,2
  3996  0303  2B05               	goto	u286_21
  3997  0304  2B06               	goto	u286_20
  3998  0305                     u286_21:
  3999  0305  2B37               	goto	i1l2332
  4000  0306                     u286_20:
  4001  0306                     i1l2324:
  4002  0306  3001               	movlw	1
  4003  0307  07CE               	addwf	___flmul@prod,f
  4004  0308  3000               	movlw	0
  4005  0309  1803               	skipnc
  4006  030A  3001               	movlw	1
  4007  030B  07CF               	addwf	___flmul@prod+1,f
  4008  030C  3000               	movlw	0
  4009  030D  1803               	skipnc
  4010  030E  3001               	movlw	1
  4011  030F  07D0               	addwf	___flmul@prod+2,f
  4012  0310  3000               	movlw	0
  4013  0311  1803               	skipnc
  4014  0312  3001               	movlw	1
  4015  0313  07D1               	addwf	___flmul@prod+3,f
  4016  0314                     i1l2326:
  4017  0314  1C51               	btfss	___flmul@prod+3,0
  4018  0315  2B17               	goto	u287_21
  4019  0316  2B18               	goto	u287_20
  4020  0317                     u287_21:
  4021  0317  2B37               	goto	i1l2332
  4022  0318                     u287_20:
  4023  0318                     i1l2328:
  4024  0318  084E               	movf	___flmul@prod,w
  4025  0319  00C2               	movwf	??___flmul
  4026  031A  084F               	movf	___flmul@prod+1,w
  4027  031B  00C3               	movwf	??___flmul+1
  4028  031C  0850               	movf	___flmul@prod+2,w
  4029  031D  00C4               	movwf	??___flmul+2
  4030  031E  0851               	movf	___flmul@prod+3,w
  4031  031F  00C5               	movwf	??___flmul+3
  4032  0320  3001               	movlw	1
  4033  0321  00C6               	movwf	??___flmul+4
  4034  0322                     u288_25:
  4035  0322  0D45               	rlf	??___flmul+3,w
  4036  0323  0CC5               	rrf	??___flmul+3,f
  4037  0324  0CC4               	rrf	??___flmul+2,f
  4038  0325  0CC3               	rrf	??___flmul+1,f
  4039  0326  0CC2               	rrf	??___flmul,f
  4040  0327                     u288_20:
  4041  0327  0BC6               	decfsz	??___flmul+4,f
  4042  0328  2B22               	goto	u288_25
  4043  0329  0845               	movf	??___flmul+3,w
  4044  032A  00D1               	movwf	___flmul@prod+3
  4045  032B  0844               	movf	??___flmul+2,w
  4046  032C  00D0               	movwf	___flmul@prod+2
  4047  032D  0843               	movf	??___flmul+1,w
  4048  032E  00CF               	movwf	___flmul@prod+1
  4049  032F  0842               	movf	??___flmul,w
  4050  0330  00CE               	movwf	___flmul@prod
  4051  0331                     i1l2330:
  4052  0331  3001               	movlw	1
  4053  0332  07D2               	addwf	___flmul@temp,f
  4054  0333  1803               	skipnc
  4055  0334  0AD3               	incf	___flmul@temp+1,f
  4056  0335  3000               	movlw	0
  4057  0336  07D3               	addwf	___flmul@temp+1,f
  4058  0337                     i1l2332:
  4059  0337  0853               	movf	___flmul@temp+1,w
  4060  0338  3A80               	xorlw	128
  4061  0339  00FF               	movwf	btemp+1
  4062  033A  3080               	movlw	128
  4063  033B  027F               	subwf	btemp+1,w
  4064  033C  1D03               	skipz
  4065  033D  2B40               	goto	u289_25
  4066  033E  30FF               	movlw	255
  4067  033F  0252               	subwf	___flmul@temp,w
  4068  0340                     u289_25:
  4069  0340  1C03               	skipc
  4070  0341  2B43               	goto	u289_21
  4071  0342  2B44               	goto	u289_20
  4072  0343                     u289_21:
  4073  0343  2B4F               	goto	i1l2336
  4074  0344                     u289_20:
  4075  0344                     i1l2334:
  4076  0344  307F               	movlw	127
  4077  0345  1283               	bcf	3,5	;RP0=0, select bank0
  4078  0346  1303               	bcf	3,6	;RP1=0, select bank0
  4079  0347  00D1               	movwf	___flmul@prod+3
  4080  0348  3080               	movlw	128
  4081  0349  00D0               	movwf	___flmul@prod+2
  4082  034A  3000               	movlw	0
  4083  034B  00CF               	movwf	___flmul@prod+1
  4084  034C  3000               	movlw	0
  4085  034D  00CE               	movwf	___flmul@prod
  4086  034E  2B84               	goto	i1l693
  4087  034F                     i1l2336:
  4088  034F  1283               	bcf	3,5	;RP0=0, select bank0
  4089  0350  1303               	bcf	3,6	;RP1=0, select bank0
  4090  0351  0853               	movf	___flmul@temp+1,w
  4091  0352  3A80               	xorlw	128
  4092  0353  00FF               	movwf	btemp+1
  4093  0354  3080               	movlw	128
  4094  0355  027F               	subwf	btemp+1,w
  4095  0356  1D03               	skipz
  4096  0357  2B5A               	goto	u290_25
  4097  0358  3001               	movlw	1
  4098  0359  0252               	subwf	___flmul@temp,w
  4099  035A                     u290_25:
  4100  035A  1803               	skipnc
  4101  035B  2B5D               	goto	u290_21
  4102  035C  2B5E               	goto	u290_20
  4103  035D                     u290_21:
  4104  035D  2B6A               	goto	i1l2342
  4105  035E                     u290_20:
  4106  035E                     i1l2338:
  4107  035E  3000               	movlw	0
  4108  035F  1283               	bcf	3,5	;RP0=0, select bank0
  4109  0360  1303               	bcf	3,6	;RP1=0, select bank0
  4110  0361  00D1               	movwf	___flmul@prod+3
  4111  0362  3000               	movlw	0
  4112  0363  00D0               	movwf	___flmul@prod+2
  4113  0364  3000               	movlw	0
  4114  0365  00CF               	movwf	___flmul@prod+1
  4115  0366  3000               	movlw	0
  4116  0367  00CE               	movwf	___flmul@prod
  4117  0368                     i1l2340:
  4118  0368  01C7               	clrf	___flmul@sign
  4119  0369  2B84               	goto	i1l693
  4120  036A                     i1l2342:
  4121  036A  1283               	bcf	3,5	;RP0=0, select bank0
  4122  036B  1303               	bcf	3,6	;RP1=0, select bank0
  4123  036C  0852               	movf	___flmul@temp,w
  4124  036D  00C2               	movwf	??___flmul
  4125  036E  0842               	movf	??___flmul,w
  4126  036F  00CD               	movwf	___flmul@bexp
  4127  0370  30FF               	movlw	255
  4128  0371  05CE               	andwf	___flmul@prod,f
  4129  0372  30FF               	movlw	255
  4130  0373  05CF               	andwf	___flmul@prod+1,f
  4131  0374  307F               	movlw	127
  4132  0375  05D0               	andwf	___flmul@prod+2,f
  4133  0376  3000               	movlw	0
  4134  0377  05D1               	andwf	___flmul@prod+3,f
  4135  0378                     i1l2344:
  4136  0378  1C4D               	btfss	___flmul@bexp,0
  4137  0379  2B7B               	goto	u291_21
  4138  037A  2B7C               	goto	u291_20
  4139  037B                     u291_21:
  4140  037B  2B7D               	goto	i1l2348
  4141  037C                     u291_20:
  4142  037C                     i1l2346:
  4143  037C  17D0               	bsf	___flmul@prod+2,7
  4144  037D                     i1l2348:
  4145  037D  084D               	movf	___flmul@bexp,w
  4146  037E  00C2               	movwf	??___flmul
  4147  037F  1003               	clrc
  4148  0380  0C42               	rrf	??___flmul,w
  4149  0381  00C3               	movwf	??___flmul+1
  4150  0382  0843               	movf	??___flmul+1,w
  4151  0383  00D1               	movwf	___flmul@prod+3
  4152  0384                     i1l693:
  4153  0384  0847               	movf	___flmul@sign,w
  4154  0385  00C2               	movwf	??___flmul
  4155  0386  0842               	movf	??___flmul,w
  4156  0387  04D1               	iorwf	___flmul@prod+3,f
  4157  0388                     i1l2350:
  4158  0388  0851               	movf	___flmul@prod+3,w
  4159  0389  00BD               	movwf	?___flmul+3
  4160  038A  0850               	movf	___flmul@prod+2,w
  4161  038B  00BC               	movwf	?___flmul+2
  4162  038C  084F               	movf	___flmul@prod+1,w
  4163  038D  00BB               	movwf	?___flmul+1
  4164  038E  084E               	movf	___flmul@prod,w
  4165  038F  00BA               	movwf	?___flmul
  4166  0390                     i1l681:
  4167  0390  0008               	return
  4168  0391                     __end_of___flmul:
  4169                           
  4170                           	psect	text9
  4171  0A2E                     __ptext9:	
  4172 ;; *************** function __Umul8_16 *****************
  4173 ;; Defined at:
  4174 ;;		line 4 in file "C:\Program Files\Microchip\xc8\v2.35\pic\sources\c90\common\Umul8_16.c"
  4175 ;; Parameters:    Size  Location     Type
  4176 ;;  multiplier      1    wreg     unsigned char 
  4177 ;;  multiplicand    1    0[COMMON] unsigned char 
  4178 ;; Auto vars:     Size  Location     Type
  4179 ;;  multiplier      1    8[COMMON] unsigned char 
  4180 ;;  word_mpld       2    6[COMMON] unsigned int 
  4181 ;;  product         2    4[COMMON] unsigned int 
  4182 ;; Return value:  Size  Location     Type
  4183 ;;                  2    0[COMMON] unsigned int 
  4184 ;; Registers used:
  4185 ;;		wreg, status,2, status,0
  4186 ;; Tracked objects:
  4187 ;;		On entry : 0/0
  4188 ;;		On exit  : 0/0
  4189 ;;		Unchanged: 0/0
  4190 ;; Data sizes:     COMMON   BANK0   BANK1   BANK3   BANK2
  4191 ;;      Params:         2       0       0       0       0
  4192 ;;      Locals:         5       0       0       0       0
  4193 ;;      Temps:          2       0       0       0       0
  4194 ;;      Totals:         9       0       0       0       0
  4195 ;;Total ram usage:        9 bytes
  4196 ;; Hardware stack levels used: 1
  4197 ;; This function calls:
  4198 ;;		Nothing
  4199 ;; This function is called by:
  4200 ;;		___flmul
  4201 ;; This function uses a non-reentrant model
  4202 ;;
  4203                           
  4204  0A2E                     __Umul8_16:	
  4205                           ;psect for function __Umul8_16
  4206                           
  4207                           
  4208                           ;incstack = 0
  4209                           ; Regs used in __Umul8_16: [wreg+status,2+status,0]
  4210                           ;__Umul8_16@multiplier stored from wreg
  4211  0A2E  00F8               	movwf	__Umul8_16@multiplier
  4212  0A2F                     i1l1828:
  4213  0A2F  01F4               	clrf	__Umul8_16@product
  4214  0A30  01F5               	clrf	__Umul8_16@product+1
  4215  0A31                     i1l1830:
  4216  0A31  0870               	movf	__Umul8_16@multiplicand,w
  4217  0A32  00F2               	movwf	??__Umul8_16
  4218  0A33  01F3               	clrf	??__Umul8_16+1
  4219  0A34  0872               	movf	??__Umul8_16,w
  4220  0A35  00F6               	movwf	__Umul8_16@word_mpld
  4221  0A36  0873               	movf	??__Umul8_16+1,w
  4222  0A37  00F7               	movwf	__Umul8_16@word_mpld+1
  4223  0A38                     i1l1832:
  4224  0A38  1C78               	btfss	__Umul8_16@multiplier,0
  4225  0A39  2A3B               	goto	u167_21
  4226  0A3A  2A3C               	goto	u167_20
  4227  0A3B                     u167_21:
  4228  0A3B  2A42               	goto	i1l700
  4229  0A3C                     u167_20:
  4230  0A3C                     i1l1834:
  4231  0A3C  0876               	movf	__Umul8_16@word_mpld,w
  4232  0A3D  07F4               	addwf	__Umul8_16@product,f
  4233  0A3E  1803               	skipnc
  4234  0A3F  0AF5               	incf	__Umul8_16@product+1,f
  4235  0A40  0877               	movf	__Umul8_16@word_mpld+1,w
  4236  0A41  07F5               	addwf	__Umul8_16@product+1,f
  4237  0A42                     i1l700:
  4238  0A42  3001               	movlw	1
  4239  0A43                     u168_25:
  4240  0A43  1003               	clrc
  4241  0A44  0DF6               	rlf	__Umul8_16@word_mpld,f
  4242  0A45  0DF7               	rlf	__Umul8_16@word_mpld+1,f
  4243  0A46  3EFF               	addlw	-1
  4244  0A47  1D03               	skipz
  4245  0A48  2A43               	goto	u168_25
  4246  0A49  1003               	clrc
  4247  0A4A  0CF8               	rrf	__Umul8_16@multiplier,f
  4248  0A4B                     i1l1836:
  4249  0A4B  0878               	movf	__Umul8_16@multiplier,w
  4250  0A4C  1D03               	btfss	3,2
  4251  0A4D  2A4F               	goto	u169_21
  4252  0A4E  2A50               	goto	u169_20
  4253  0A4F                     u169_21:
  4254  0A4F  2A38               	goto	i1l1832
  4255  0A50                     u169_20:
  4256  0A50                     i1l1838:
  4257  0A50  0875               	movf	__Umul8_16@product+1,w
  4258  0A51  00F1               	movwf	?__Umul8_16+1
  4259  0A52  0874               	movf	__Umul8_16@product,w
  4260  0A53  00F0               	movwf	?__Umul8_16
  4261  0A54                     i1l702:
  4262  0A54  0008               	return
  4263  0A55                     __end_of__Umul8_16:
  4264                           
  4265                           	psect	text10
  4266  0619                     __ptext10:	
  4267 ;; *************** function ___fldiv *****************
  4268 ;; Defined at:
  4269 ;;		line 8 in file "C:\Program Files\Microchip\xc8\v2.35\pic\sources\c90\common\sprcdiv.c"
  4270 ;; Parameters:    Size  Location     Type
  4271 ;;  a               4    0[BANK0 ] unsigned int 
  4272 ;;  b               4    4[BANK0 ] unsigned int 
  4273 ;; Auto vars:     Size  Location     Type
  4274 ;;  grs             4   20[BANK0 ] unsigned long 
  4275 ;;  rem             4   13[BANK0 ] unsigned long 
  4276 ;;  new_exp         2   18[BANK0 ] int 
  4277 ;;  aexp            1   25[BANK0 ] unsigned char 
  4278 ;;  bexp            1   24[BANK0 ] unsigned char 
  4279 ;;  sign            1   17[BANK0 ] unsigned char 
  4280 ;; Return value:  Size  Location     Type
  4281 ;;                  4    0[BANK0 ] unsigned char 
  4282 ;; Registers used:
  4283 ;;		wreg, status,2, status,0, btemp+1
  4284 ;; Tracked objects:
  4285 ;;		On entry : 0/0
  4286 ;;		On exit  : 0/0
  4287 ;;		Unchanged: 0/0
  4288 ;; Data sizes:     COMMON   BANK0   BANK1   BANK3   BANK2
  4289 ;;      Params:         0       8       0       0       0
  4290 ;;      Locals:         0      13       0       0       0
  4291 ;;      Temps:          0       5       0       0       0
  4292 ;;      Totals:         0      26       0       0       0
  4293 ;;Total ram usage:       26 bytes
  4294 ;; Hardware stack levels used: 1
  4295 ;; This function calls:
  4296 ;;		Nothing
  4297 ;; This function is called by:
  4298 ;;		_map
  4299 ;; This function uses a non-reentrant model
  4300 ;;
  4301                           
  4302  0619                     ___fldiv:	
  4303                           ;psect for function ___fldiv
  4304                           
  4305  0619                     i1l2072:	
  4306                           ;incstack = 0
  4307                           ; Regs used in ___fldiv: [wreg+status,2+status,0+btemp+1]
  4308                           
  4309  0619  1283               	bcf	3,5	;RP0=0, select bank0
  4310  061A  1303               	bcf	3,6	;RP1=0, select bank0
  4311  061B  0827               	movf	___fldiv@b+3,w
  4312  061C  3980               	andlw	128
  4313  061D  00A8               	movwf	??___fldiv
  4314  061E  0828               	movf	??___fldiv,w
  4315  061F  00B1               	movwf	___fldiv@sign
  4316  0620                     i1l2074:
  4317  0620  0827               	movf	___fldiv@b+3,w
  4318  0621  00A8               	movwf	??___fldiv
  4319  0622  0728               	addwf	??___fldiv,w
  4320  0623  00A9               	movwf	??___fldiv+1
  4321  0624  0829               	movf	??___fldiv+1,w
  4322  0625  00B8               	movwf	___fldiv@bexp
  4323  0626                     i1l2076:
  4324  0626  1FA6               	btfss	___fldiv@b+2,7
  4325  0627  2E29               	goto	u226_21
  4326  0628  2E2A               	goto	u226_20
  4327  0629                     u226_21:
  4328  0629  2E2B               	goto	i1l2080
  4329  062A                     u226_20:
  4330  062A                     i1l2078:
  4331  062A  1438               	bsf	___fldiv@bexp,0
  4332  062B                     i1l2080:
  4333  062B  0838               	movf	___fldiv@bexp,w
  4334  062C  1903               	btfsc	3,2
  4335  062D  2E2F               	goto	u227_21
  4336  062E  2E30               	goto	u227_20
  4337  062F                     u227_21:
  4338  062F  2E40               	goto	i1l2090
  4339  0630                     u227_20:
  4340  0630                     i1l2082:
  4341  0630  0A38               	incf	___fldiv@bexp,w
  4342  0631  1D03               	btfss	3,2
  4343  0632  2E34               	goto	u228_21
  4344  0633  2E35               	goto	u228_20
  4345  0634                     u228_21:
  4346  0634  2E3D               	goto	i1l2086
  4347  0635                     u228_20:
  4348  0635                     i1l2084:
  4349  0635  3000               	movlw	0
  4350  0636  00A7               	movwf	___fldiv@b+3
  4351  0637  3000               	movlw	0
  4352  0638  00A6               	movwf	___fldiv@b+2
  4353  0639  3000               	movlw	0
  4354  063A  00A5               	movwf	___fldiv@b+1
  4355  063B  3000               	movlw	0
  4356  063C  00A4               	movwf	___fldiv@b
  4357  063D                     i1l2086:
  4358  063D  17A6               	bsf	___fldiv@b+2,7
  4359  063E                     i1l2088:
  4360  063E  01A7               	clrf	___fldiv@b+3
  4361  063F  2E48               	goto	i1l2092
  4362  0640                     i1l2090:
  4363  0640  3000               	movlw	0
  4364  0641  00A7               	movwf	___fldiv@b+3
  4365  0642  3000               	movlw	0
  4366  0643  00A6               	movwf	___fldiv@b+2
  4367  0644  3000               	movlw	0
  4368  0645  00A5               	movwf	___fldiv@b+1
  4369  0646  3000               	movlw	0
  4370  0647  00A4               	movwf	___fldiv@b
  4371  0648                     i1l2092:
  4372  0648  0823               	movf	___fldiv@a+3,w
  4373  0649  3980               	andlw	128
  4374  064A  00A8               	movwf	??___fldiv
  4375  064B  0828               	movf	??___fldiv,w
  4376  064C  06B1               	xorwf	___fldiv@sign,f
  4377  064D                     i1l2094:
  4378  064D  0823               	movf	___fldiv@a+3,w
  4379  064E  00A8               	movwf	??___fldiv
  4380  064F  0728               	addwf	??___fldiv,w
  4381  0650  00A9               	movwf	??___fldiv+1
  4382  0651  0829               	movf	??___fldiv+1,w
  4383  0652  00B9               	movwf	___fldiv@aexp
  4384  0653                     i1l2096:
  4385  0653  1FA2               	btfss	___fldiv@a+2,7
  4386  0654  2E56               	goto	u229_21
  4387  0655  2E57               	goto	u229_20
  4388  0656                     u229_21:
  4389  0656  2E58               	goto	i1l2100
  4390  0657                     u229_20:
  4391  0657                     i1l2098:
  4392  0657  1439               	bsf	___fldiv@aexp,0
  4393  0658                     i1l2100:
  4394  0658  0839               	movf	___fldiv@aexp,w
  4395  0659  1903               	btfsc	3,2
  4396  065A  2E5C               	goto	u230_21
  4397  065B  2E5D               	goto	u230_20
  4398  065C                     u230_21:
  4399  065C  2E6D               	goto	i1l2110
  4400  065D                     u230_20:
  4401  065D                     i1l2102:
  4402  065D  0A39               	incf	___fldiv@aexp,w
  4403  065E  1D03               	btfss	3,2
  4404  065F  2E61               	goto	u231_21
  4405  0660  2E62               	goto	u231_20
  4406  0661                     u231_21:
  4407  0661  2E6A               	goto	i1l2106
  4408  0662                     u231_20:
  4409  0662                     i1l2104:
  4410  0662  3000               	movlw	0
  4411  0663  00A3               	movwf	___fldiv@a+3
  4412  0664  3000               	movlw	0
  4413  0665  00A2               	movwf	___fldiv@a+2
  4414  0666  3000               	movlw	0
  4415  0667  00A1               	movwf	___fldiv@a+1
  4416  0668  3000               	movlw	0
  4417  0669  00A0               	movwf	___fldiv@a
  4418  066A                     i1l2106:
  4419  066A  17A2               	bsf	___fldiv@a+2,7
  4420  066B                     i1l2108:
  4421  066B  01A3               	clrf	___fldiv@a+3
  4422  066C  2E75               	goto	i1l641
  4423  066D                     i1l2110:
  4424  066D  3000               	movlw	0
  4425  066E  00A3               	movwf	___fldiv@a+3
  4426  066F  3000               	movlw	0
  4427  0670  00A2               	movwf	___fldiv@a+2
  4428  0671  3000               	movlw	0
  4429  0672  00A1               	movwf	___fldiv@a+1
  4430  0673  3000               	movlw	0
  4431  0674  00A0               	movwf	___fldiv@a
  4432  0675                     i1l641:
  4433  0675  0823               	movf	___fldiv@a+3,w
  4434  0676  0422               	iorwf	___fldiv@a+2,w
  4435  0677  0421               	iorwf	___fldiv@a+1,w
  4436  0678  0420               	iorwf	___fldiv@a,w
  4437  0679  1D03               	skipz
  4438  067A  2E7C               	goto	u232_21
  4439  067B  2E7D               	goto	u232_20
  4440  067C                     u232_21:
  4441  067C  2E96               	goto	i1l2120
  4442  067D                     u232_20:
  4443  067D                     i1l2112:
  4444  067D  3000               	movlw	0
  4445  067E  00A7               	movwf	___fldiv@b+3
  4446  067F  3000               	movlw	0
  4447  0680  00A6               	movwf	___fldiv@b+2
  4448  0681  3000               	movlw	0
  4449  0682  00A5               	movwf	___fldiv@b+1
  4450  0683  3000               	movlw	0
  4451  0684  00A4               	movwf	___fldiv@b
  4452  0685  3080               	movlw	128
  4453  0686  04A6               	iorwf	___fldiv@b+2,f
  4454  0687  307F               	movlw	127
  4455  0688  04A7               	iorwf	___fldiv@b+3,f
  4456  0689                     i1l2114:
  4457  0689  0831               	movf	___fldiv@sign,w
  4458  068A  00A8               	movwf	??___fldiv
  4459  068B  0828               	movf	??___fldiv,w
  4460  068C  04A7               	iorwf	___fldiv@b+3,f
  4461  068D                     i1l2116:
  4462  068D  0827               	movf	___fldiv@b+3,w
  4463  068E  00A3               	movwf	?___fldiv+3
  4464  068F  0826               	movf	___fldiv@b+2,w
  4465  0690  00A2               	movwf	?___fldiv+2
  4466  0691  0825               	movf	___fldiv@b+1,w
  4467  0692  00A1               	movwf	?___fldiv+1
  4468  0693  0824               	movf	___fldiv@b,w
  4469  0694  00A0               	movwf	?___fldiv
  4470  0695  2FF5               	goto	i1l643
  4471  0696                     i1l2120:
  4472  0696  0838               	movf	___fldiv@bexp,w
  4473  0697  1D03               	btfss	3,2
  4474  0698  2E9A               	goto	u233_21
  4475  0699  2E9B               	goto	u233_20
  4476  069A                     u233_21:
  4477  069A  2EA4               	goto	i1l2126
  4478  069B                     u233_20:
  4479  069B                     i1l2122:
  4480  069B  3000               	movlw	0
  4481  069C  00A3               	movwf	?___fldiv+3
  4482  069D  3000               	movlw	0
  4483  069E  00A2               	movwf	?___fldiv+2
  4484  069F  3000               	movlw	0
  4485  06A0  00A1               	movwf	?___fldiv+1
  4486  06A1  3000               	movlw	0
  4487  06A2  00A0               	movwf	?___fldiv
  4488  06A3  2FF5               	goto	i1l643
  4489  06A4                     i1l2126:
  4490  06A4  0838               	movf	___fldiv@bexp,w
  4491  06A5  00A8               	movwf	??___fldiv
  4492  06A6  01A9               	clrf	??___fldiv+1
  4493  06A7  0829               	movf	??___fldiv+1,w
  4494  06A8  00AB               	movwf	??___fldiv+3
  4495  06A9  0839               	movf	___fldiv@aexp,w
  4496  06AA  0228               	subwf	??___fldiv,w
  4497  06AB  00AA               	movwf	??___fldiv+2
  4498  06AC  1C03               	skipc
  4499  06AD  03AB               	decf	??___fldiv+3,f
  4500  06AE  082A               	movf	??___fldiv+2,w
  4501  06AF  3E7F               	addlw	127
  4502  06B0  00B2               	movwf	___fldiv@new_exp
  4503  06B1  082B               	movf	??___fldiv+3,w
  4504  06B2  1803               	skipnc
  4505  06B3  3E01               	addlw	1
  4506  06B4  3E00               	addlw	0
  4507  06B5  00B3               	movwf	___fldiv@new_exp+1
  4508  06B6                     i1l2128:
  4509  06B6  0827               	movf	___fldiv@b+3,w
  4510  06B7  00B0               	movwf	___fldiv@rem+3
  4511  06B8  0826               	movf	___fldiv@b+2,w
  4512  06B9  00AF               	movwf	___fldiv@rem+2
  4513  06BA  0825               	movf	___fldiv@b+1,w
  4514  06BB  00AE               	movwf	___fldiv@rem+1
  4515  06BC  0824               	movf	___fldiv@b,w
  4516  06BD  00AD               	movwf	___fldiv@rem
  4517  06BE                     i1l2130:
  4518  06BE  3000               	movlw	0
  4519  06BF  00A7               	movwf	___fldiv@b+3
  4520  06C0  3000               	movlw	0
  4521  06C1  00A6               	movwf	___fldiv@b+2
  4522  06C2  3000               	movlw	0
  4523  06C3  00A5               	movwf	___fldiv@b+1
  4524  06C4  3000               	movlw	0
  4525  06C5  00A4               	movwf	___fldiv@b
  4526  06C6                     i1l2132:
  4527  06C6  3000               	movlw	0
  4528  06C7  00B7               	movwf	___fldiv@grs+3
  4529  06C8  3000               	movlw	0
  4530  06C9  00B6               	movwf	___fldiv@grs+2
  4531  06CA  3000               	movlw	0
  4532  06CB  00B5               	movwf	___fldiv@grs+1
  4533  06CC  3000               	movlw	0
  4534  06CD  00B4               	movwf	___fldiv@grs
  4535  06CE                     i1l2134:
  4536  06CE  01B9               	clrf	___fldiv@aexp
  4537  06CF  2F1A               	goto	i1l2154
  4538  06D0                     i1l2136:
  4539  06D0  0839               	movf	___fldiv@aexp,w
  4540  06D1  1903               	btfsc	3,2
  4541  06D2  2ED4               	goto	u234_21
  4542  06D3  2ED5               	goto	u234_20
  4543  06D4                     u234_21:
  4544  06D4  2EF5               	goto	i1l2146
  4545  06D5                     u234_20:
  4546  06D5                     i1l2138:
  4547  06D5  3001               	movlw	1
  4548  06D6  00A8               	movwf	??___fldiv
  4549  06D7                     u235_25:
  4550  06D7  1003               	clrc
  4551  06D8  0DAD               	rlf	___fldiv@rem,f
  4552  06D9  0DAE               	rlf	___fldiv@rem+1,f
  4553  06DA  0DAF               	rlf	___fldiv@rem+2,f
  4554  06DB  0DB0               	rlf	___fldiv@rem+3,f
  4555  06DC  0BA8               	decfsz	??___fldiv,f
  4556  06DD  2ED7               	goto	u235_25
  4557  06DE  3001               	movlw	1
  4558  06DF  00A8               	movwf	??___fldiv
  4559  06E0                     u236_25:
  4560  06E0  1003               	clrc
  4561  06E1  0DA4               	rlf	___fldiv@b,f
  4562  06E2  0DA5               	rlf	___fldiv@b+1,f
  4563  06E3  0DA6               	rlf	___fldiv@b+2,f
  4564  06E4  0DA7               	rlf	___fldiv@b+3,f
  4565  06E5  0BA8               	decfsz	??___fldiv,f
  4566  06E6  2EE0               	goto	u236_25
  4567  06E7                     i1l2140:
  4568  06E7  1FB7               	btfss	___fldiv@grs+3,7
  4569  06E8  2EEA               	goto	u237_21
  4570  06E9  2EEB               	goto	u237_20
  4571  06EA                     u237_21:
  4572  06EA  2EEC               	goto	i1l2144
  4573  06EB                     u237_20:
  4574  06EB                     i1l2142:
  4575  06EB  1424               	bsf	___fldiv@b,0
  4576  06EC                     i1l2144:
  4577  06EC  3001               	movlw	1
  4578  06ED  00A8               	movwf	??___fldiv
  4579  06EE                     u238_25:
  4580  06EE  1003               	clrc
  4581  06EF  0DB4               	rlf	___fldiv@grs,f
  4582  06F0  0DB5               	rlf	___fldiv@grs+1,f
  4583  06F1  0DB6               	rlf	___fldiv@grs+2,f
  4584  06F2  0DB7               	rlf	___fldiv@grs+3,f
  4585  06F3  0BA8               	decfsz	??___fldiv,f
  4586  06F4  2EEE               	goto	u238_25
  4587  06F5                     i1l2146:
  4588  06F5  0823               	movf	___fldiv@a+3,w
  4589  06F6  0230               	subwf	___fldiv@rem+3,w
  4590  06F7  1D03               	skipz
  4591  06F8  2F03               	goto	u239_25
  4592  06F9  0822               	movf	___fldiv@a+2,w
  4593  06FA  022F               	subwf	___fldiv@rem+2,w
  4594  06FB  1D03               	skipz
  4595  06FC  2F03               	goto	u239_25
  4596  06FD  0821               	movf	___fldiv@a+1,w
  4597  06FE  022E               	subwf	___fldiv@rem+1,w
  4598  06FF  1D03               	skipz
  4599  0700  2F03               	goto	u239_25
  4600  0701  0820               	movf	___fldiv@a,w
  4601  0702  022D               	subwf	___fldiv@rem,w
  4602  0703                     u239_25:
  4603  0703  1C03               	skipc
  4604  0704  2F06               	goto	u239_21
  4605  0705  2F07               	goto	u239_20
  4606  0706                     u239_21:
  4607  0706  2F16               	goto	i1l2152
  4608  0707                     u239_20:
  4609  0707                     i1l2148:
  4610  0707  1737               	bsf	___fldiv@grs+3,6
  4611  0708                     i1l2150:
  4612  0708  0820               	movf	___fldiv@a,w
  4613  0709  02AD               	subwf	___fldiv@rem,f
  4614  070A  0821               	movf	___fldiv@a+1,w
  4615  070B  1C03               	skipc
  4616  070C  0F21               	incfsz	___fldiv@a+1,w
  4617  070D  02AE               	subwf	___fldiv@rem+1,f
  4618  070E  0822               	movf	___fldiv@a+2,w
  4619  070F  1C03               	skipc
  4620  0710  0F22               	incfsz	___fldiv@a+2,w
  4621  0711  02AF               	subwf	___fldiv@rem+2,f
  4622  0712  0823               	movf	___fldiv@a+3,w
  4623  0713  1C03               	skipc
  4624  0714  0F23               	incfsz	___fldiv@a+3,w
  4625  0715  02B0               	subwf	___fldiv@rem+3,f
  4626  0716                     i1l2152:
  4627  0716  3001               	movlw	1
  4628  0717  00A8               	movwf	??___fldiv
  4629  0718  0828               	movf	??___fldiv,w
  4630  0719  07B9               	addwf	___fldiv@aexp,f
  4631  071A                     i1l2154:
  4632  071A  301A               	movlw	26
  4633  071B  0239               	subwf	___fldiv@aexp,w
  4634  071C  1C03               	skipc
  4635  071D  2F1F               	goto	u240_21
  4636  071E  2F20               	goto	u240_20
  4637  071F                     u240_21:
  4638  071F  2ED0               	goto	i1l2136
  4639  0720                     u240_20:
  4640  0720                     i1l2156:
  4641  0720  0830               	movf	___fldiv@rem+3,w
  4642  0721  042F               	iorwf	___fldiv@rem+2,w
  4643  0722  042E               	iorwf	___fldiv@rem+1,w
  4644  0723  042D               	iorwf	___fldiv@rem,w
  4645  0724  1903               	skipnz
  4646  0725  2F27               	goto	u241_21
  4647  0726  2F28               	goto	u241_20
  4648  0727                     u241_21:
  4649  0727  2F47               	goto	i1l2170
  4650  0728                     u241_20:
  4651  0728                     i1l2158:
  4652  0728  1434               	bsf	___fldiv@grs,0
  4653  0729  2F47               	goto	i1l2170
  4654  072A                     i1l2160:
  4655  072A  3001               	movlw	1
  4656  072B  00A8               	movwf	??___fldiv
  4657  072C                     u242_25:
  4658  072C  1003               	clrc
  4659  072D  0DA4               	rlf	___fldiv@b,f
  4660  072E  0DA5               	rlf	___fldiv@b+1,f
  4661  072F  0DA6               	rlf	___fldiv@b+2,f
  4662  0730  0DA7               	rlf	___fldiv@b+3,f
  4663  0731  0BA8               	decfsz	??___fldiv,f
  4664  0732  2F2C               	goto	u242_25
  4665  0733                     i1l2162:
  4666  0733  1FB7               	btfss	___fldiv@grs+3,7
  4667  0734  2F36               	goto	u243_21
  4668  0735  2F37               	goto	u243_20
  4669  0736                     u243_21:
  4670  0736  2F38               	goto	i1l2166
  4671  0737                     u243_20:
  4672  0737                     i1l2164:
  4673  0737  1424               	bsf	___fldiv@b,0
  4674  0738                     i1l2166:
  4675  0738  3001               	movlw	1
  4676  0739  00A8               	movwf	??___fldiv
  4677  073A                     u244_25:
  4678  073A  1003               	clrc
  4679  073B  0DB4               	rlf	___fldiv@grs,f
  4680  073C  0DB5               	rlf	___fldiv@grs+1,f
  4681  073D  0DB6               	rlf	___fldiv@grs+2,f
  4682  073E  0DB7               	rlf	___fldiv@grs+3,f
  4683  073F  0BA8               	decfsz	??___fldiv,f
  4684  0740  2F3A               	goto	u244_25
  4685  0741                     i1l2168:
  4686  0741  30FF               	movlw	255
  4687  0742  07B2               	addwf	___fldiv@new_exp,f
  4688  0743  1803               	skipnc
  4689  0744  0AB3               	incf	___fldiv@new_exp+1,f
  4690  0745  30FF               	movlw	255
  4691  0746  07B3               	addwf	___fldiv@new_exp+1,f
  4692  0747                     i1l2170:
  4693  0747  1FA6               	btfss	___fldiv@b+2,7
  4694  0748  2F4A               	goto	u245_21
  4695  0749  2F4B               	goto	u245_20
  4696  074A                     u245_21:
  4697  074A  2F2A               	goto	i1l2160
  4698  074B                     u245_20:
  4699  074B                     i1l2172:
  4700  074B  01B9               	clrf	___fldiv@aexp
  4701  074C                     i1l2174:
  4702  074C  1FB7               	btfss	___fldiv@grs+3,7
  4703  074D  2F4F               	goto	u246_21
  4704  074E  2F50               	goto	u246_20
  4705  074F                     u246_21:
  4706  074F  2F6C               	goto	i1l2182
  4707  0750                     u246_20:
  4708  0750                     i1l2176:
  4709  0750  30FF               	movlw	255
  4710  0751  0534               	andwf	___fldiv@grs,w
  4711  0752  00A8               	movwf	??___fldiv
  4712  0753  30FF               	movlw	255
  4713  0754  0535               	andwf	___fldiv@grs+1,w
  4714  0755  00A9               	movwf	??___fldiv+1
  4715  0756  30FF               	movlw	255
  4716  0757  0536               	andwf	___fldiv@grs+2,w
  4717  0758  00AA               	movwf	??___fldiv+2
  4718  0759  307F               	movlw	127
  4719  075A  0537               	andwf	___fldiv@grs+3,w
  4720  075B  00AB               	movwf	??___fldiv+3
  4721  075C  082B               	movf	??___fldiv+3,w
  4722  075D  042A               	iorwf	??___fldiv+2,w
  4723  075E  0429               	iorwf	??___fldiv+1,w
  4724  075F  0428               	iorwf	??___fldiv,w
  4725  0760  1903               	skipnz
  4726  0761  2F63               	goto	u247_21
  4727  0762  2F64               	goto	u247_20
  4728  0763                     u247_21:
  4729  0763  2F67               	goto	i1l657
  4730  0764                     u247_20:
  4731  0764                     i1l2178:
  4732  0764  01B9               	clrf	___fldiv@aexp
  4733  0765  0AB9               	incf	___fldiv@aexp,f
  4734  0766  2F6C               	goto	i1l2182
  4735  0767                     i1l657:
  4736  0767  1C24               	btfss	___fldiv@b,0
  4737  0768  2F6A               	goto	u248_21
  4738  0769  2F6B               	goto	u248_20
  4739  076A                     u248_21:
  4740  076A  2F6C               	goto	i1l2182
  4741  076B                     u248_20:
  4742  076B  2F64               	goto	i1l2178
  4743  076C                     i1l2182:
  4744  076C  0839               	movf	___fldiv@aexp,w
  4745  076D  1903               	btfsc	3,2
  4746  076E  2F70               	goto	u249_21
  4747  076F  2F71               	goto	u249_20
  4748  0770                     u249_21:
  4749  0770  2FA2               	goto	i1l2192
  4750  0771                     u249_20:
  4751  0771                     i1l2184:
  4752  0771  3001               	movlw	1
  4753  0772  07A4               	addwf	___fldiv@b,f
  4754  0773  3000               	movlw	0
  4755  0774  1803               	skipnc
  4756  0775  3001               	movlw	1
  4757  0776  07A5               	addwf	___fldiv@b+1,f
  4758  0777  3000               	movlw	0
  4759  0778  1803               	skipnc
  4760  0779  3001               	movlw	1
  4761  077A  07A6               	addwf	___fldiv@b+2,f
  4762  077B  3000               	movlw	0
  4763  077C  1803               	skipnc
  4764  077D  3001               	movlw	1
  4765  077E  07A7               	addwf	___fldiv@b+3,f
  4766  077F                     i1l2186:
  4767  077F  1C27               	btfss	___fldiv@b+3,0
  4768  0780  2F82               	goto	u250_21
  4769  0781  2F83               	goto	u250_20
  4770  0782                     u250_21:
  4771  0782  2FA2               	goto	i1l2192
  4772  0783                     u250_20:
  4773  0783                     i1l2188:
  4774  0783  0824               	movf	___fldiv@b,w
  4775  0784  00A8               	movwf	??___fldiv
  4776  0785  0825               	movf	___fldiv@b+1,w
  4777  0786  00A9               	movwf	??___fldiv+1
  4778  0787  0826               	movf	___fldiv@b+2,w
  4779  0788  00AA               	movwf	??___fldiv+2
  4780  0789  0827               	movf	___fldiv@b+3,w
  4781  078A  00AB               	movwf	??___fldiv+3
  4782  078B  3001               	movlw	1
  4783  078C  00AC               	movwf	??___fldiv+4
  4784  078D                     u251_25:
  4785  078D  0D2B               	rlf	??___fldiv+3,w
  4786  078E  0CAB               	rrf	??___fldiv+3,f
  4787  078F  0CAA               	rrf	??___fldiv+2,f
  4788  0790  0CA9               	rrf	??___fldiv+1,f
  4789  0791  0CA8               	rrf	??___fldiv,f
  4790  0792                     u251_20:
  4791  0792  0BAC               	decfsz	??___fldiv+4,f
  4792  0793  2F8D               	goto	u251_25
  4793  0794  082B               	movf	??___fldiv+3,w
  4794  0795  00A7               	movwf	___fldiv@b+3
  4795  0796  082A               	movf	??___fldiv+2,w
  4796  0797  00A6               	movwf	___fldiv@b+2
  4797  0798  0829               	movf	??___fldiv+1,w
  4798  0799  00A5               	movwf	___fldiv@b+1
  4799  079A  0828               	movf	??___fldiv,w
  4800  079B  00A4               	movwf	___fldiv@b
  4801  079C                     i1l2190:
  4802  079C  3001               	movlw	1
  4803  079D  07B2               	addwf	___fldiv@new_exp,f
  4804  079E  1803               	skipnc
  4805  079F  0AB3               	incf	___fldiv@new_exp+1,f
  4806  07A0  3000               	movlw	0
  4807  07A1  07B3               	addwf	___fldiv@new_exp+1,f
  4808  07A2                     i1l2192:
  4809  07A2  0833               	movf	___fldiv@new_exp+1,w
  4810  07A3  3A80               	xorlw	128
  4811  07A4  00FF               	movwf	btemp+1
  4812  07A5  3080               	movlw	128
  4813  07A6  027F               	subwf	btemp+1,w
  4814  07A7  1D03               	skipz
  4815  07A8  2FAB               	goto	u252_25
  4816  07A9  30FF               	movlw	255
  4817  07AA  0232               	subwf	___fldiv@new_exp,w
  4818  07AB                     u252_25:
  4819  07AB  1C03               	skipc
  4820  07AC  2FAE               	goto	u252_21
  4821  07AD  2FAF               	goto	u252_20
  4822  07AE                     u252_21:
  4823  07AE  2FBD               	goto	i1l2196
  4824  07AF                     u252_20:
  4825  07AF                     i1l2194:
  4826  07AF  30FF               	movlw	255
  4827  07B0  1283               	bcf	3,5	;RP0=0, select bank0
  4828  07B1  1303               	bcf	3,6	;RP1=0, select bank0
  4829  07B2  00B2               	movwf	___fldiv@new_exp
  4830  07B3  3000               	movlw	0
  4831  07B4  00B3               	movwf	___fldiv@new_exp+1
  4832  07B5  3000               	movlw	0
  4833  07B6  00A7               	movwf	___fldiv@b+3
  4834  07B7  3000               	movlw	0
  4835  07B8  00A6               	movwf	___fldiv@b+2
  4836  07B9  3000               	movlw	0
  4837  07BA  00A5               	movwf	___fldiv@b+1
  4838  07BB  3000               	movlw	0
  4839  07BC  00A4               	movwf	___fldiv@b
  4840  07BD                     i1l2196:
  4841  07BD  1283               	bcf	3,5	;RP0=0, select bank0
  4842  07BE  1303               	bcf	3,6	;RP1=0, select bank0
  4843  07BF  0833               	movf	___fldiv@new_exp+1,w
  4844  07C0  3A80               	xorlw	128
  4845  07C1  00FF               	movwf	btemp+1
  4846  07C2  3080               	movlw	128
  4847  07C3  027F               	subwf	btemp+1,w
  4848  07C4  1D03               	skipz
  4849  07C5  2FC8               	goto	u253_25
  4850  07C6  3001               	movlw	1
  4851  07C7  0232               	subwf	___fldiv@new_exp,w
  4852  07C8                     u253_25:
  4853  07C8  1803               	skipnc
  4854  07C9  2FCB               	goto	u253_21
  4855  07CA  2FCC               	goto	u253_20
  4856  07CB                     u253_21:
  4857  07CB  2FD9               	goto	i1l663
  4858  07CC                     u253_20:
  4859  07CC                     i1l2198:
  4860  07CC  1283               	bcf	3,5	;RP0=0, select bank0
  4861  07CD  1303               	bcf	3,6	;RP1=0, select bank0
  4862  07CE  01B2               	clrf	___fldiv@new_exp
  4863  07CF  01B3               	clrf	___fldiv@new_exp+1
  4864  07D0                     i1l2200:
  4865  07D0  3000               	movlw	0
  4866  07D1  00A7               	movwf	___fldiv@b+3
  4867  07D2  3000               	movlw	0
  4868  07D3  00A6               	movwf	___fldiv@b+2
  4869  07D4  3000               	movlw	0
  4870  07D5  00A5               	movwf	___fldiv@b+1
  4871  07D6  3000               	movlw	0
  4872  07D7  00A4               	movwf	___fldiv@b
  4873  07D8                     i1l2202:
  4874  07D8  01B1               	clrf	___fldiv@sign
  4875  07D9                     i1l663:
  4876  07D9  1283               	bcf	3,5	;RP0=0, select bank0
  4877  07DA  1303               	bcf	3,6	;RP1=0, select bank0
  4878  07DB  0832               	movf	___fldiv@new_exp,w
  4879  07DC  00A8               	movwf	??___fldiv
  4880  07DD  0828               	movf	??___fldiv,w
  4881  07DE  00B8               	movwf	___fldiv@bexp
  4882  07DF                     i1l2204:
  4883  07DF  1C38               	btfss	___fldiv@bexp,0
  4884  07E0  2FE2               	goto	u254_21
  4885  07E1  2FE3               	goto	u254_20
  4886  07E2                     u254_21:
  4887  07E2  2FE5               	goto	i1l2208
  4888  07E3                     u254_20:
  4889  07E3                     i1l2206:
  4890  07E3  17A6               	bsf	___fldiv@b+2,7
  4891  07E4  2FE9               	goto	i1l665
  4892  07E5                     i1l2208:
  4893  07E5  307F               	movlw	127
  4894  07E6  00A8               	movwf	??___fldiv
  4895  07E7  0828               	movf	??___fldiv,w
  4896  07E8  05A6               	andwf	___fldiv@b+2,f
  4897  07E9                     i1l665:
  4898  07E9  0838               	movf	___fldiv@bexp,w
  4899  07EA  00A8               	movwf	??___fldiv
  4900  07EB  1003               	clrc
  4901  07EC  0C28               	rrf	??___fldiv,w
  4902  07ED  00A9               	movwf	??___fldiv+1
  4903  07EE  0829               	movf	??___fldiv+1,w
  4904  07EF  00A7               	movwf	___fldiv@b+3
  4905  07F0  0831               	movf	___fldiv@sign,w
  4906  07F1  00A8               	movwf	??___fldiv
  4907  07F2  0828               	movf	??___fldiv,w
  4908  07F3  04A7               	iorwf	___fldiv@b+3,f
  4909  07F4  2E8D               	goto	i1l2116
  4910  07F5                     i1l643:
  4911  07F5  0008               	return
  4912  07F6                     __end_of___fldiv:
  4913                           
  4914                           	psect	text11
  4915  0391                     __ptext11:	
  4916 ;; *************** function ___fladd *****************
  4917 ;; Defined at:
  4918 ;;		line 10 in file "C:\Program Files\Microchip\xc8\v2.35\pic\sources\c90\common\sprcadd.c"
  4919 ;; Parameters:    Size  Location     Type
  4920 ;;  b               4   52[BANK0 ] unsigned char 
  4921 ;;  a               4   56[BANK0 ] unsigned char 
  4922 ;; Auto vars:     Size  Location     Type
  4923 ;;  grs             1   71[BANK0 ] unsigned char 
  4924 ;;  bexp            1   70[BANK0 ] unsigned char 
  4925 ;;  aexp            1   69[BANK0 ] unsigned char 
  4926 ;;  signs           1   68[BANK0 ] unsigned char 
  4927 ;; Return value:  Size  Location     Type
  4928 ;;                  4   52[BANK0 ] unsigned char 
  4929 ;; Registers used:
  4930 ;;		wreg, status,2, status,0, btemp+1
  4931 ;; Tracked objects:
  4932 ;;		On entry : 0/0
  4933 ;;		On exit  : 0/0
  4934 ;;		Unchanged: 0/0
  4935 ;; Data sizes:     COMMON   BANK0   BANK1   BANK3   BANK2
  4936 ;;      Params:         0       8       0       0       0
  4937 ;;      Locals:         0       4       0       0       0
  4938 ;;      Temps:          0       8       0       0       0
  4939 ;;      Totals:         0      20       0       0       0
  4940 ;;Total ram usage:       20 bytes
  4941 ;; Hardware stack levels used: 1
  4942 ;; This function calls:
  4943 ;;		Nothing
  4944 ;; This function is called by:
  4945 ;;		_map
  4946 ;; This function uses a non-reentrant model
  4947 ;;
  4948                           
  4949  0391                     ___fladd:	
  4950                           ;psect for function ___fladd
  4951                           
  4952  0391                     i1l1878:	
  4953                           ;incstack = 0
  4954                           ; Regs used in ___fladd: [wreg+status,2+status,0+btemp+1]
  4955                           
  4956  0391  1283               	bcf	3,5	;RP0=0, select bank0
  4957  0392  1303               	bcf	3,6	;RP1=0, select bank0
  4958  0393  0857               	movf	___fladd@b+3,w
  4959  0394  3980               	andlw	128
  4960  0395  00DC               	movwf	??___fladd
  4961  0396  085C               	movf	??___fladd,w
  4962  0397  00E4               	movwf	___fladd@signs
  4963  0398                     i1l1880:
  4964  0398  0857               	movf	___fladd@b+3,w
  4965  0399  00DC               	movwf	??___fladd
  4966  039A  075C               	addwf	??___fladd,w
  4967  039B  00DD               	movwf	??___fladd+1
  4968  039C  085D               	movf	??___fladd+1,w
  4969  039D  00E6               	movwf	___fladd@bexp
  4970  039E                     i1l1882:
  4971  039E  1FD6               	btfss	___fladd@b+2,7
  4972  039F  2BA1               	goto	u180_21
  4973  03A0  2BA2               	goto	u180_20
  4974  03A1                     u180_21:
  4975  03A1  2BA3               	goto	i1l1886
  4976  03A2                     u180_20:
  4977  03A2                     i1l1884:
  4978  03A2  1466               	bsf	___fladd@bexp,0
  4979  03A3                     i1l1886:
  4980  03A3  0866               	movf	___fladd@bexp,w
  4981  03A4  1903               	btfsc	3,2
  4982  03A5  2BA7               	goto	u181_21
  4983  03A6  2BA8               	goto	u181_20
  4984  03A7                     u181_21:
  4985  03A7  2BB8               	goto	i1l1896
  4986  03A8                     u181_20:
  4987  03A8                     i1l1888:
  4988  03A8  0A66               	incf	___fladd@bexp,w
  4989  03A9  1D03               	btfss	3,2
  4990  03AA  2BAC               	goto	u182_21
  4991  03AB  2BAD               	goto	u182_20
  4992  03AC                     u182_21:
  4993  03AC  2BB5               	goto	i1l1892
  4994  03AD                     u182_20:
  4995  03AD                     i1l1890:
  4996  03AD  3000               	movlw	0
  4997  03AE  00D7               	movwf	___fladd@b+3
  4998  03AF  3000               	movlw	0
  4999  03B0  00D6               	movwf	___fladd@b+2
  5000  03B1  3000               	movlw	0
  5001  03B2  00D5               	movwf	___fladd@b+1
  5002  03B3  3000               	movlw	0
  5003  03B4  00D4               	movwf	___fladd@b
  5004  03B5                     i1l1892:
  5005  03B5  17D6               	bsf	___fladd@b+2,7
  5006  03B6                     i1l1894:
  5007  03B6  01D7               	clrf	___fladd@b+3
  5008  03B7  2BC0               	goto	i1l1898
  5009  03B8                     i1l1896:
  5010  03B8  3000               	movlw	0
  5011  03B9  00D7               	movwf	___fladd@b+3
  5012  03BA  3000               	movlw	0
  5013  03BB  00D6               	movwf	___fladd@b+2
  5014  03BC  3000               	movlw	0
  5015  03BD  00D5               	movwf	___fladd@b+1
  5016  03BE  3000               	movlw	0
  5017  03BF  00D4               	movwf	___fladd@b
  5018  03C0                     i1l1898:
  5019  03C0  085B               	movf	___fladd@a+3,w
  5020  03C1  3980               	andlw	128
  5021  03C2  00DC               	movwf	??___fladd
  5022  03C3  085C               	movf	??___fladd,w
  5023  03C4  00E5               	movwf	___fladd@aexp
  5024  03C5                     i1l1900:
  5025  03C5  0865               	movf	___fladd@aexp,w
  5026  03C6  0664               	xorwf	___fladd@signs,w
  5027  03C7  1903               	skipnz
  5028  03C8  2BCA               	goto	u183_21
  5029  03C9  2BCB               	goto	u183_20
  5030  03CA                     u183_21:
  5031  03CA  2BCC               	goto	i1l1904
  5032  03CB                     u183_20:
  5033  03CB                     i1l1902:
  5034  03CB  1764               	bsf	___fladd@signs,6
  5035  03CC                     i1l1904:
  5036  03CC  085B               	movf	___fladd@a+3,w
  5037  03CD  00DC               	movwf	??___fladd
  5038  03CE  075C               	addwf	??___fladd,w
  5039  03CF  00DD               	movwf	??___fladd+1
  5040  03D0  085D               	movf	??___fladd+1,w
  5041  03D1  00E5               	movwf	___fladd@aexp
  5042  03D2                     i1l1906:
  5043  03D2  1FDA               	btfss	___fladd@a+2,7
  5044  03D3  2BD5               	goto	u184_21
  5045  03D4  2BD6               	goto	u184_20
  5046  03D5                     u184_21:
  5047  03D5  2BD7               	goto	i1l1910
  5048  03D6                     u184_20:
  5049  03D6                     i1l1908:
  5050  03D6  1465               	bsf	___fladd@aexp,0
  5051  03D7                     i1l1910:
  5052  03D7  0865               	movf	___fladd@aexp,w
  5053  03D8  1903               	btfsc	3,2
  5054  03D9  2BDB               	goto	u185_21
  5055  03DA  2BDC               	goto	u185_20
  5056  03DB                     u185_21:
  5057  03DB  2BEC               	goto	i1l1920
  5058  03DC                     u185_20:
  5059  03DC                     i1l1912:
  5060  03DC  0A65               	incf	___fladd@aexp,w
  5061  03DD  1D03               	btfss	3,2
  5062  03DE  2BE0               	goto	u186_21
  5063  03DF  2BE1               	goto	u186_20
  5064  03E0                     u186_21:
  5065  03E0  2BE9               	goto	i1l1916
  5066  03E1                     u186_20:
  5067  03E1                     i1l1914:
  5068  03E1  3000               	movlw	0
  5069  03E2  00DB               	movwf	___fladd@a+3
  5070  03E3  3000               	movlw	0
  5071  03E4  00DA               	movwf	___fladd@a+2
  5072  03E5  3000               	movlw	0
  5073  03E6  00D9               	movwf	___fladd@a+1
  5074  03E7  3000               	movlw	0
  5075  03E8  00D8               	movwf	___fladd@a
  5076  03E9                     i1l1916:
  5077  03E9  17DA               	bsf	___fladd@a+2,7
  5078  03EA                     i1l1918:
  5079  03EA  01DB               	clrf	___fladd@a+3
  5080  03EB  2BF4               	goto	i1l585
  5081  03EC                     i1l1920:
  5082  03EC  3000               	movlw	0
  5083  03ED  00DB               	movwf	___fladd@a+3
  5084  03EE  3000               	movlw	0
  5085  03EF  00DA               	movwf	___fladd@a+2
  5086  03F0  3000               	movlw	0
  5087  03F1  00D9               	movwf	___fladd@a+1
  5088  03F2  3000               	movlw	0
  5089  03F3  00D8               	movwf	___fladd@a
  5090  03F4                     i1l585:
  5091  03F4  0866               	movf	___fladd@bexp,w
  5092  03F5  0265               	subwf	___fladd@aexp,w
  5093  03F6  1803               	skipnc
  5094  03F7  2BF9               	goto	u187_21
  5095  03F8  2BFA               	goto	u187_20
  5096  03F9                     u187_21:
  5097  03F9  2C3E               	goto	i1l1956
  5098  03FA                     u187_20:
  5099  03FA                     i1l1922:
  5100  03FA  1F64               	btfss	___fladd@signs,6
  5101  03FB  2BFD               	goto	u188_21
  5102  03FC  2BFE               	goto	u188_20
  5103  03FD                     u188_21:
  5104  03FD  2C02               	goto	i1l1926
  5105  03FE                     u188_20:
  5106  03FE                     i1l1924:
  5107  03FE  3080               	movlw	128
  5108  03FF  00DC               	movwf	??___fladd
  5109  0400  085C               	movf	??___fladd,w
  5110  0401  06E4               	xorwf	___fladd@signs,f
  5111  0402                     i1l1926:
  5112  0402  0866               	movf	___fladd@bexp,w
  5113  0403  00DC               	movwf	??___fladd
  5114  0404  085C               	movf	??___fladd,w
  5115  0405  00E7               	movwf	___fladd@grs
  5116  0406                     i1l1928:
  5117  0406  0865               	movf	___fladd@aexp,w
  5118  0407  00DC               	movwf	??___fladd
  5119  0408  085C               	movf	??___fladd,w
  5120  0409  00E6               	movwf	___fladd@bexp
  5121  040A                     i1l1930:
  5122  040A  0867               	movf	___fladd@grs,w
  5123  040B  00DC               	movwf	??___fladd
  5124  040C  085C               	movf	??___fladd,w
  5125  040D  00E5               	movwf	___fladd@aexp
  5126  040E                     i1l1932:
  5127  040E  0854               	movf	___fladd@b,w
  5128  040F  00DC               	movwf	??___fladd
  5129  0410  085C               	movf	??___fladd,w
  5130  0411  00E7               	movwf	___fladd@grs
  5131  0412                     i1l1934:
  5132  0412  0858               	movf	___fladd@a,w
  5133  0413  00DC               	movwf	??___fladd
  5134  0414  085C               	movf	??___fladd,w
  5135  0415  00D4               	movwf	___fladd@b
  5136  0416                     i1l1936:
  5137  0416  0867               	movf	___fladd@grs,w
  5138  0417  00DC               	movwf	??___fladd
  5139  0418  085C               	movf	??___fladd,w
  5140  0419  00D8               	movwf	___fladd@a
  5141  041A                     i1l1938:
  5142  041A  0855               	movf	___fladd@b+1,w
  5143  041B  00DC               	movwf	??___fladd
  5144  041C  085C               	movf	??___fladd,w
  5145  041D  00E7               	movwf	___fladd@grs
  5146  041E                     i1l1940:
  5147  041E  0859               	movf	___fladd@a+1,w
  5148  041F  00DC               	movwf	??___fladd
  5149  0420  085C               	movf	??___fladd,w
  5150  0421  00D5               	movwf	___fladd@b+1
  5151  0422                     i1l1942:
  5152  0422  0867               	movf	___fladd@grs,w
  5153  0423  00DC               	movwf	??___fladd
  5154  0424  085C               	movf	??___fladd,w
  5155  0425  00D9               	movwf	___fladd@a+1
  5156  0426                     i1l1944:
  5157  0426  0856               	movf	___fladd@b+2,w
  5158  0427  00DC               	movwf	??___fladd
  5159  0428  085C               	movf	??___fladd,w
  5160  0429  00E7               	movwf	___fladd@grs
  5161  042A                     i1l1946:
  5162  042A  085A               	movf	___fladd@a+2,w
  5163  042B  00DC               	movwf	??___fladd
  5164  042C  085C               	movf	??___fladd,w
  5165  042D  00D6               	movwf	___fladd@b+2
  5166  042E                     i1l1948:
  5167  042E  0867               	movf	___fladd@grs,w
  5168  042F  00DC               	movwf	??___fladd
  5169  0430  085C               	movf	??___fladd,w
  5170  0431  00DA               	movwf	___fladd@a+2
  5171  0432                     i1l1950:
  5172  0432  0857               	movf	___fladd@b+3,w
  5173  0433  00DC               	movwf	??___fladd
  5174  0434  085C               	movf	??___fladd,w
  5175  0435  00E7               	movwf	___fladd@grs
  5176  0436                     i1l1952:
  5177  0436  085B               	movf	___fladd@a+3,w
  5178  0437  00DC               	movwf	??___fladd
  5179  0438  085C               	movf	??___fladd,w
  5180  0439  00D7               	movwf	___fladd@b+3
  5181  043A                     i1l1954:
  5182  043A  0867               	movf	___fladd@grs,w
  5183  043B  00DC               	movwf	??___fladd
  5184  043C  085C               	movf	??___fladd,w
  5185  043D  00DB               	movwf	___fladd@a+3
  5186  043E                     i1l1956:
  5187  043E  01E7               	clrf	___fladd@grs
  5188  043F                     i1l1958:
  5189  043F  0865               	movf	___fladd@aexp,w
  5190  0440  00DC               	movwf	??___fladd
  5191  0441  01DD               	clrf	??___fladd+1
  5192  0442  085D               	movf	??___fladd+1,w
  5193  0443  00DF               	movwf	??___fladd+3
  5194  0444  0866               	movf	___fladd@bexp,w
  5195  0445  025C               	subwf	??___fladd,w
  5196  0446  00DE               	movwf	??___fladd+2
  5197  0447  1C03               	skipc
  5198  0448  03DF               	decf	??___fladd+3,f
  5199  0449  085F               	movf	??___fladd+3,w
  5200  044A  3A80               	xorlw	128
  5201  044B  00FF               	movwf	btemp+1
  5202  044C  3080               	movlw	128
  5203  044D  027F               	subwf	btemp+1,w
  5204  044E  1D03               	skipz
  5205  044F  2C52               	goto	u189_25
  5206  0450  301A               	movlw	26
  5207  0451  025E               	subwf	??___fladd+2,w
  5208  0452                     u189_25:
  5209  0452  1C03               	skipc
  5210  0453  2C55               	goto	u189_21
  5211  0454  2C56               	goto	u189_20
  5212  0455                     u189_21:
  5213  0455  2C93               	goto	i1l1974
  5214  0456                     u189_20:
  5215  0456                     i1l1960:
  5216  0456  1283               	bcf	3,5	;RP0=0, select bank0
  5217  0457  1303               	bcf	3,6	;RP1=0, select bank0
  5218  0458  0857               	movf	___fladd@b+3,w
  5219  0459  0456               	iorwf	___fladd@b+2,w
  5220  045A  0455               	iorwf	___fladd@b+1,w
  5221  045B  0454               	iorwf	___fladd@b,w
  5222  045C  1D03               	skipz
  5223  045D  2C5F               	goto	u190_21
  5224  045E  2C61               	goto	u190_20
  5225  045F                     u190_21:
  5226  045F  3001               	movlw	1
  5227  0460  2C62               	goto	u191_20
  5228  0461                     u190_20:
  5229  0461  3000               	movlw	0
  5230  0462                     u191_20:
  5231  0462  00DC               	movwf	??___fladd
  5232  0463  085C               	movf	??___fladd,w
  5233  0464  00E7               	movwf	___fladd@grs
  5234  0465  3000               	movlw	0
  5235  0466  00D7               	movwf	___fladd@b+3
  5236  0467  3000               	movlw	0
  5237  0468  00D6               	movwf	___fladd@b+2
  5238  0469  3000               	movlw	0
  5239  046A  00D5               	movwf	___fladd@b+1
  5240  046B  3000               	movlw	0
  5241  046C  00D4               	movwf	___fladd@b
  5242  046D  0865               	movf	___fladd@aexp,w
  5243  046E  00DC               	movwf	??___fladd
  5244  046F  085C               	movf	??___fladd,w
  5245  0470  00E6               	movwf	___fladd@bexp
  5246  0471  2C9B               	goto	i1l589
  5247  0472                     i1l591:
  5248  0472  1C67               	btfss	___fladd@grs,0
  5249  0473  2C75               	goto	u192_21
  5250  0474  2C76               	goto	u192_20
  5251  0475                     u192_21:
  5252  0475  2C7F               	goto	i1l1964
  5253  0476                     u192_20:
  5254  0476                     i1l1962:
  5255  0476  0867               	movf	___fladd@grs,w
  5256  0477  00DC               	movwf	??___fladd
  5257  0478  1003               	clrc
  5258  0479  0C5C               	rrf	??___fladd,w
  5259  047A  3801               	iorlw	1
  5260  047B  00DD               	movwf	??___fladd+1
  5261  047C  085D               	movf	??___fladd+1,w
  5262  047D  00E7               	movwf	___fladd@grs
  5263  047E  2C81               	goto	i1l1966
  5264  047F                     i1l1964:
  5265  047F  1003               	clrc
  5266  0480  0CE7               	rrf	___fladd@grs,f
  5267  0481                     i1l1966:
  5268  0481  1C54               	btfss	___fladd@b,0
  5269  0482  2C84               	goto	u193_21
  5270  0483  2C85               	goto	u193_20
  5271  0484                     u193_21:
  5272  0484  2C86               	goto	i1l1970
  5273  0485                     u193_20:
  5274  0485                     i1l1968:
  5275  0485  17E7               	bsf	___fladd@grs,7
  5276  0486                     i1l1970:
  5277  0486  3001               	movlw	1
  5278  0487  00DC               	movwf	??___fladd
  5279  0488                     u194_25:
  5280  0488  0D57               	rlf	___fladd@b+3,w
  5281  0489  0CD7               	rrf	___fladd@b+3,f
  5282  048A  0CD6               	rrf	___fladd@b+2,f
  5283  048B  0CD5               	rrf	___fladd@b+1,f
  5284  048C  0CD4               	rrf	___fladd@b,f
  5285  048D  0BDC               	decfsz	??___fladd& (0+127),f
  5286  048E  2C88               	goto	u194_25
  5287  048F                     i1l1972:
  5288  048F  3001               	movlw	1
  5289  0490  00DC               	movwf	??___fladd
  5290  0491  085C               	movf	??___fladd,w
  5291  0492  07E6               	addwf	___fladd@bexp,f
  5292  0493                     i1l1974:
  5293  0493  1283               	bcf	3,5	;RP0=0, select bank0
  5294  0494  1303               	bcf	3,6	;RP1=0, select bank0
  5295  0495  0865               	movf	___fladd@aexp,w
  5296  0496  0266               	subwf	___fladd@bexp,w
  5297  0497  1C03               	skipc
  5298  0498  2C9A               	goto	u195_21
  5299  0499  2C9B               	goto	u195_20
  5300  049A                     u195_21:
  5301  049A  2C72               	goto	i1l591
  5302  049B                     u195_20:
  5303  049B                     i1l589:
  5304  049B  1B64               	btfsc	___fladd@signs,6
  5305  049C  2C9E               	goto	u196_21
  5306  049D  2C9F               	goto	u196_20
  5307  049E                     u196_21:
  5308  049E  2CEA               	goto	i1l2000
  5309  049F                     u196_20:
  5310  049F                     i1l1976:
  5311  049F  0866               	movf	___fladd@bexp,w
  5312  04A0  1D03               	btfss	3,2
  5313  04A1  2CA3               	goto	u197_21
  5314  04A2  2CA4               	goto	u197_20
  5315  04A3                     u197_21:
  5316  04A3  2CAD               	goto	i1l1982
  5317  04A4                     u197_20:
  5318  04A4                     i1l1978:
  5319  04A4  3000               	movlw	0
  5320  04A5  00D7               	movwf	?___fladd+3
  5321  04A6  3000               	movlw	0
  5322  04A7  00D6               	movwf	?___fladd+2
  5323  04A8  3000               	movlw	0
  5324  04A9  00D5               	movwf	?___fladd+1
  5325  04AA  3000               	movlw	0
  5326  04AB  00D4               	movwf	?___fladd
  5327  04AC  2E18               	goto	i1l598
  5328  04AD                     i1l1982:
  5329  04AD  0858               	movf	___fladd@a,w
  5330  04AE  07D4               	addwf	___fladd@b,f
  5331  04AF  0859               	movf	___fladd@a+1,w
  5332  04B0  1103               	clrz
  5333  04B1  1803               	skipnc
  5334  04B2  3E01               	addlw	1
  5335  04B3  1903               	skipnz
  5336  04B4  2CB6               	goto	u198_21
  5337  04B5  07D5               	addwf	___fladd@b+1,f
  5338  04B6                     u198_21:
  5339  04B6  085A               	movf	___fladd@a+2,w
  5340  04B7  1103               	clrz
  5341  04B8  1803               	skipnc
  5342  04B9  3E01               	addlw	1
  5343  04BA  1903               	skipnz
  5344  04BB  2CBD               	goto	u198_22
  5345  04BC  07D6               	addwf	___fladd@b+2,f
  5346  04BD                     u198_22:
  5347  04BD  085B               	movf	___fladd@a+3,w
  5348  04BE  1103               	clrz
  5349  04BF  1803               	skipnc
  5350  04C0  3E01               	addlw	1
  5351  04C1  1903               	skipnz
  5352  04C2  2CC4               	goto	u198_23
  5353  04C3  07D7               	addwf	___fladd@b+3,f
  5354  04C4                     u198_23:
  5355  04C4                     i1l1984:
  5356  04C4  1C57               	btfss	___fladd@b+3,0
  5357  04C5  2CC7               	goto	u199_21
  5358  04C6  2CC8               	goto	u199_20
  5359  04C7                     u199_21:
  5360  04C7  2D9E               	goto	i1l2034
  5361  04C8                     u199_20:
  5362  04C8                     i1l1986:
  5363  04C8  1C67               	btfss	___fladd@grs,0
  5364  04C9  2CCB               	goto	u200_21
  5365  04CA  2CCC               	goto	u200_20
  5366  04CB                     u200_21:
  5367  04CB  2CD5               	goto	i1l1990
  5368  04CC                     u200_20:
  5369  04CC                     i1l1988:
  5370  04CC  0867               	movf	___fladd@grs,w
  5371  04CD  00DC               	movwf	??___fladd
  5372  04CE  1003               	clrc
  5373  04CF  0C5C               	rrf	??___fladd,w
  5374  04D0  3801               	iorlw	1
  5375  04D1  00DD               	movwf	??___fladd+1
  5376  04D2  085D               	movf	??___fladd+1,w
  5377  04D3  00E7               	movwf	___fladd@grs
  5378  04D4  2CD7               	goto	i1l1992
  5379  04D5                     i1l1990:
  5380  04D5  1003               	clrc
  5381  04D6  0CE7               	rrf	___fladd@grs,f
  5382  04D7                     i1l1992:
  5383  04D7  1C54               	btfss	___fladd@b,0
  5384  04D8  2CDA               	goto	u201_21
  5385  04D9  2CDB               	goto	u201_20
  5386  04DA                     u201_21:
  5387  04DA  2CDC               	goto	i1l1996
  5388  04DB                     u201_20:
  5389  04DB                     i1l1994:
  5390  04DB  17E7               	bsf	___fladd@grs,7
  5391  04DC                     i1l1996:
  5392  04DC  3001               	movlw	1
  5393  04DD  00DC               	movwf	??___fladd
  5394  04DE                     u202_25:
  5395  04DE  0D57               	rlf	___fladd@b+3,w
  5396  04DF  0CD7               	rrf	___fladd@b+3,f
  5397  04E0  0CD6               	rrf	___fladd@b+2,f
  5398  04E1  0CD5               	rrf	___fladd@b+1,f
  5399  04E2  0CD4               	rrf	___fladd@b,f
  5400  04E3  0BDC               	decfsz	??___fladd& (0+127),f
  5401  04E4  2CDE               	goto	u202_25
  5402  04E5                     i1l1998:
  5403  04E5  3001               	movlw	1
  5404  04E6  00DC               	movwf	??___fladd
  5405  04E7  085C               	movf	??___fladd,w
  5406  04E8  07E6               	addwf	___fladd@bexp,f
  5407  04E9  2D9E               	goto	i1l2034
  5408  04EA                     i1l2000:
  5409  04EA  0857               	movf	___fladd@b+3,w
  5410  04EB  3A80               	xorlw	128
  5411  04EC  00FF               	movwf	btemp+1
  5412  04ED  085B               	movf	___fladd@a+3,w
  5413  04EE  3A80               	xorlw	128
  5414  04EF  027F               	subwf	btemp+1,w
  5415  04F0  1D03               	skipz
  5416  04F1  2CFC               	goto	u203_23
  5417  04F2  085A               	movf	___fladd@a+2,w
  5418  04F3  0256               	subwf	___fladd@b+2,w
  5419  04F4  1D03               	skipz
  5420  04F5  2CFC               	goto	u203_23
  5421  04F6  0859               	movf	___fladd@a+1,w
  5422  04F7  0255               	subwf	___fladd@b+1,w
  5423  04F8  1D03               	skipz
  5424  04F9  2CFC               	goto	u203_23
  5425  04FA  0858               	movf	___fladd@a,w
  5426  04FB  0254               	subwf	___fladd@b,w
  5427  04FC                     u203_23:
  5428  04FC  1803               	skipnc
  5429  04FD  2CFF               	goto	u203_21
  5430  04FE  2D00               	goto	u203_20
  5431  04FF                     u203_21:
  5432  04FF  2D58               	goto	i1l2010
  5433  0500                     u203_20:
  5434  0500                     i1l2002:
  5435  0500  30FF               	movlw	255
  5436  0501  00DC               	movwf	??___fladd
  5437  0502  30FF               	movlw	255
  5438  0503  00DD               	movwf	??___fladd+1
  5439  0504  30FF               	movlw	255
  5440  0505  00DE               	movwf	??___fladd+2
  5441  0506  30FF               	movlw	255
  5442  0507  00DF               	movwf	??___fladd+3
  5443  0508  0858               	movf	___fladd@a,w
  5444  0509  00E0               	movwf	??___fladd+4
  5445  050A  0859               	movf	___fladd@a+1,w
  5446  050B  00E1               	movwf	??___fladd+5
  5447  050C  085A               	movf	___fladd@a+2,w
  5448  050D  00E2               	movwf	??___fladd+6
  5449  050E  085B               	movf	___fladd@a+3,w
  5450  050F  00E3               	movwf	??___fladd+7
  5451  0510  0854               	movf	___fladd@b,w
  5452  0511  02E0               	subwf	??___fladd+4,f
  5453  0512  0855               	movf	___fladd@b+1,w
  5454  0513  1C03               	skipc
  5455  0514  0F55               	incfsz	___fladd@b+1,w
  5456  0515  2D17               	goto	u204_21
  5457  0516  2D18               	goto	u204_22
  5458  0517                     u204_21:
  5459  0517  02E1               	subwf	??___fladd+5,f
  5460  0518                     u204_22:
  5461  0518  0856               	movf	___fladd@b+2,w
  5462  0519  1C03               	skipc
  5463  051A  0F56               	incfsz	___fladd@b+2,w
  5464  051B  2D1D               	goto	u204_23
  5465  051C  2D1E               	goto	u204_24
  5466  051D                     u204_23:
  5467  051D  02E2               	subwf	??___fladd+6,f
  5468  051E                     u204_24:
  5469  051E  0857               	movf	___fladd@b+3,w
  5470  051F  1C03               	skipc
  5471  0520  0F57               	incfsz	___fladd@b+3,w
  5472  0521  2D23               	goto	u204_25
  5473  0522  2D24               	goto	u204_26
  5474  0523                     u204_25:
  5475  0523  02E3               	subwf	??___fladd+7,f
  5476  0524                     u204_26:
  5477  0524  0860               	movf	??___fladd+4,w
  5478  0525  07DC               	addwf	??___fladd,f
  5479  0526  0861               	movf	??___fladd+5,w
  5480  0527  1803               	skipnc
  5481  0528  0F61               	incfsz	??___fladd+5,w
  5482  0529  2D2B               	goto	u205_20
  5483  052A  2D2C               	goto	u205_21
  5484  052B                     u205_20:
  5485  052B  07DD               	addwf	??___fladd+1,f
  5486  052C                     u205_21:
  5487  052C  0862               	movf	??___fladd+6,w
  5488  052D  1803               	skipnc
  5489  052E  0F62               	incfsz	??___fladd+6,w
  5490  052F  2D31               	goto	u205_22
  5491  0530  2D32               	goto	u205_23
  5492  0531                     u205_22:
  5493  0531  07DE               	addwf	??___fladd+2,f
  5494  0532                     u205_23:
  5495  0532  0863               	movf	??___fladd+7,w
  5496  0533  1803               	skipnc
  5497  0534  0A63               	incf	??___fladd+7,w
  5498  0535  07DF               	addwf	??___fladd+3,f
  5499  0536  085F               	movf	??___fladd+3,w
  5500  0537  00D7               	movwf	___fladd@b+3
  5501  0538  085E               	movf	??___fladd+2,w
  5502  0539  00D6               	movwf	___fladd@b+2
  5503  053A  085D               	movf	??___fladd+1,w
  5504  053B  00D5               	movwf	___fladd@b+1
  5505  053C  085C               	movf	??___fladd,w
  5506  053D  00D4               	movwf	___fladd@b
  5507  053E                     i1l2004:
  5508  053E  3080               	movlw	128
  5509  053F  00DC               	movwf	??___fladd
  5510  0540  085C               	movf	??___fladd,w
  5511  0541  06E4               	xorwf	___fladd@signs,f
  5512  0542  09E7               	comf	___fladd@grs,f
  5513  0543  0AE7               	incf	___fladd@grs,f
  5514  0544                     i1l2006:
  5515  0544  0867               	movf	___fladd@grs,w
  5516  0545  1D03               	btfss	3,2
  5517  0546  2D48               	goto	u206_21
  5518  0547  2D49               	goto	u206_20
  5519  0548                     u206_21:
  5520  0548  2D66               	goto	i1l606
  5521  0549                     u206_20:
  5522  0549                     i1l2008:
  5523  0549  3001               	movlw	1
  5524  054A  07D4               	addwf	___fladd@b,f
  5525  054B  3000               	movlw	0
  5526  054C  1803               	skipnc
  5527  054D  3001               	movlw	1
  5528  054E  07D5               	addwf	___fladd@b+1,f
  5529  054F  3000               	movlw	0
  5530  0550  1803               	skipnc
  5531  0551  3001               	movlw	1
  5532  0552  07D6               	addwf	___fladd@b+2,f
  5533  0553  3000               	movlw	0
  5534  0554  1803               	skipnc
  5535  0555  3001               	movlw	1
  5536  0556  07D7               	addwf	___fladd@b+3,f
  5537  0557  2D66               	goto	i1l606
  5538  0558                     i1l2010:
  5539  0558  0858               	movf	___fladd@a,w
  5540  0559  02D4               	subwf	___fladd@b,f
  5541  055A  0859               	movf	___fladd@a+1,w
  5542  055B  1C03               	skipc
  5543  055C  0F59               	incfsz	___fladd@a+1,w
  5544  055D  02D5               	subwf	___fladd@b+1,f
  5545  055E  085A               	movf	___fladd@a+2,w
  5546  055F  1C03               	skipc
  5547  0560  0F5A               	incfsz	___fladd@a+2,w
  5548  0561  02D6               	subwf	___fladd@b+2,f
  5549  0562  085B               	movf	___fladd@a+3,w
  5550  0563  1C03               	skipc
  5551  0564  0F5B               	incfsz	___fladd@a+3,w
  5552  0565  02D7               	subwf	___fladd@b+3,f
  5553  0566                     i1l606:
  5554  0566  0857               	movf	___fladd@b+3,w
  5555  0567  0456               	iorwf	___fladd@b+2,w
  5556  0568  0455               	iorwf	___fladd@b+1,w
  5557  0569  0454               	iorwf	___fladd@b,w
  5558  056A  1D03               	skipz
  5559  056B  2D6D               	goto	u207_21
  5560  056C  2D6E               	goto	u207_20
  5561  056D                     u207_21:
  5562  056D  2D9A               	goto	i1l2032
  5563  056E                     u207_20:
  5564  056E                     i1l2012:
  5565  056E  0867               	movf	___fladd@grs,w
  5566  056F  1D03               	btfss	3,2
  5567  0570  2D72               	goto	u208_21
  5568  0571  2D73               	goto	u208_20
  5569  0572                     u208_21:
  5570  0572  2D9A               	goto	i1l2032
  5571  0573                     u208_20:
  5572  0573                     i1l2014:
  5573  0573  3000               	movlw	0
  5574  0574  00D7               	movwf	?___fladd+3
  5575  0575  3000               	movlw	0
  5576  0576  00D6               	movwf	?___fladd+2
  5577  0577  3000               	movlw	0
  5578  0578  00D5               	movwf	?___fladd+1
  5579  0579  3000               	movlw	0
  5580  057A  00D4               	movwf	?___fladd
  5581  057B  2E18               	goto	i1l598
  5582  057C                     i1l2018:
  5583  057C  3001               	movlw	1
  5584  057D  00DC               	movwf	??___fladd
  5585  057E                     u209_25:
  5586  057E  1003               	clrc
  5587  057F  0DD4               	rlf	___fladd@b,f
  5588  0580  0DD5               	rlf	___fladd@b+1,f
  5589  0581  0DD6               	rlf	___fladd@b+2,f
  5590  0582  0DD7               	rlf	___fladd@b+3,f
  5591  0583  0BDC               	decfsz	??___fladd,f
  5592  0584  2D7E               	goto	u209_25
  5593  0585                     i1l2020:
  5594  0585  1FE7               	btfss	___fladd@grs,7
  5595  0586  2D88               	goto	u210_21
  5596  0587  2D89               	goto	u210_20
  5597  0588                     u210_21:
  5598  0588  2D8A               	goto	i1l610
  5599  0589                     u210_20:
  5600  0589                     i1l2022:
  5601  0589  1454               	bsf	___fladd@b,0
  5602  058A                     i1l610:
  5603  058A  1C67               	btfss	___fladd@grs,0
  5604  058B  2D8D               	goto	u211_21
  5605  058C  2D8E               	goto	u211_20
  5606  058D                     u211_21:
  5607  058D  2D91               	goto	i1l2026
  5608  058E                     u211_20:
  5609  058E                     i1l2024:
  5610  058E  1403               	setc
  5611  058F  0DE7               	rlf	___fladd@grs,f
  5612  0590  2D93               	goto	i1l2028
  5613  0591                     i1l2026:
  5614  0591  1003               	clrc
  5615  0592  0DE7               	rlf	___fladd@grs,f
  5616  0593                     i1l2028:
  5617  0593  0866               	movf	___fladd@bexp,w
  5618  0594  1903               	btfsc	3,2
  5619  0595  2D97               	goto	u212_21
  5620  0596  2D98               	goto	u212_20
  5621  0597                     u212_21:
  5622  0597  2D9A               	goto	i1l2032
  5623  0598                     u212_20:
  5624  0598                     i1l2030:
  5625  0598  3001               	movlw	1
  5626  0599  02E6               	subwf	___fladd@bexp,f
  5627  059A                     i1l2032:
  5628  059A  1FD6               	btfss	___fladd@b+2,7
  5629  059B  2D9D               	goto	u213_21
  5630  059C  2D9E               	goto	u213_20
  5631  059D                     u213_21:
  5632  059D  2D7C               	goto	i1l2018
  5633  059E                     u213_20:
  5634  059E                     i1l2034:
  5635  059E  01E5               	clrf	___fladd@aexp
  5636  059F                     i1l2036:
  5637  059F  1FE7               	btfss	___fladd@grs,7
  5638  05A0  2DA2               	goto	u214_21
  5639  05A1  2DA3               	goto	u214_20
  5640  05A2                     u214_21:
  5641  05A2  2DB1               	goto	i1l2044
  5642  05A3                     u214_20:
  5643  05A3                     i1l2038:
  5644  05A3  0867               	movf	___fladd@grs,w
  5645  05A4  397F               	andlw	127
  5646  05A5  1903               	btfsc	3,2
  5647  05A6  2DA8               	goto	u215_21
  5648  05A7  2DA9               	goto	u215_20
  5649  05A8                     u215_21:
  5650  05A8  2DAC               	goto	i1l616
  5651  05A9                     u215_20:
  5652  05A9                     i1l2040:
  5653  05A9  01E5               	clrf	___fladd@aexp
  5654  05AA  0AE5               	incf	___fladd@aexp,f
  5655  05AB  2DB1               	goto	i1l2044
  5656  05AC                     i1l616:
  5657  05AC  1C54               	btfss	___fladd@b,0
  5658  05AD  2DAF               	goto	u216_21
  5659  05AE  2DB0               	goto	u216_20
  5660  05AF                     u216_21:
  5661  05AF  2DB1               	goto	i1l2044
  5662  05B0                     u216_20:
  5663  05B0  2DA9               	goto	i1l2040
  5664  05B1                     i1l2044:
  5665  05B1  0865               	movf	___fladd@aexp,w
  5666  05B2  1903               	btfsc	3,2
  5667  05B3  2DB5               	goto	u217_21
  5668  05B4  2DB6               	goto	u217_20
  5669  05B5                     u217_21:
  5670  05B5  2DEA               	goto	i1l619
  5671  05B6                     u217_20:
  5672  05B6                     i1l2046:
  5673  05B6  3001               	movlw	1
  5674  05B7  07D4               	addwf	___fladd@b,f
  5675  05B8  3000               	movlw	0
  5676  05B9  1803               	skipnc
  5677  05BA  3001               	movlw	1
  5678  05BB  07D5               	addwf	___fladd@b+1,f
  5679  05BC  3000               	movlw	0
  5680  05BD  1803               	skipnc
  5681  05BE  3001               	movlw	1
  5682  05BF  07D6               	addwf	___fladd@b+2,f
  5683  05C0  3000               	movlw	0
  5684  05C1  1803               	skipnc
  5685  05C2  3001               	movlw	1
  5686  05C3  07D7               	addwf	___fladd@b+3,f
  5687  05C4                     i1l2048:
  5688  05C4  1C57               	btfss	___fladd@b+3,0
  5689  05C5  2DC7               	goto	u218_21
  5690  05C6  2DC8               	goto	u218_20
  5691  05C7                     u218_21:
  5692  05C7  2DEA               	goto	i1l619
  5693  05C8                     u218_20:
  5694  05C8                     i1l2050:
  5695  05C8  0854               	movf	___fladd@b,w
  5696  05C9  00DC               	movwf	??___fladd
  5697  05CA  0855               	movf	___fladd@b+1,w
  5698  05CB  00DD               	movwf	??___fladd+1
  5699  05CC  0856               	movf	___fladd@b+2,w
  5700  05CD  00DE               	movwf	??___fladd+2
  5701  05CE  0857               	movf	___fladd@b+3,w
  5702  05CF  00DF               	movwf	??___fladd+3
  5703  05D0  3001               	movlw	1
  5704  05D1  00E0               	movwf	??___fladd+4
  5705  05D2                     u219_25:
  5706  05D2  0D5F               	rlf	??___fladd+3,w
  5707  05D3  0CDF               	rrf	??___fladd+3,f
  5708  05D4  0CDE               	rrf	??___fladd+2,f
  5709  05D5  0CDD               	rrf	??___fladd+1,f
  5710  05D6  0CDC               	rrf	??___fladd,f
  5711  05D7                     u219_20:
  5712  05D7  0BE0               	decfsz	??___fladd+4,f
  5713  05D8  2DD2               	goto	u219_25
  5714  05D9  085F               	movf	??___fladd+3,w
  5715  05DA  00D7               	movwf	___fladd@b+3
  5716  05DB  085E               	movf	??___fladd+2,w
  5717  05DC  00D6               	movwf	___fladd@b+2
  5718  05DD  085D               	movf	??___fladd+1,w
  5719  05DE  00D5               	movwf	___fladd@b+1
  5720  05DF  085C               	movf	??___fladd,w
  5721  05E0  00D4               	movwf	___fladd@b
  5722  05E1  0A66               	incf	___fladd@bexp,w
  5723  05E2  1903               	btfsc	3,2
  5724  05E3  2DE5               	goto	u220_21
  5725  05E4  2DE6               	goto	u220_20
  5726  05E5                     u220_21:
  5727  05E5  2DEA               	goto	i1l619
  5728  05E6                     u220_20:
  5729  05E6                     i1l2052:
  5730  05E6  3001               	movlw	1
  5731  05E7  00DC               	movwf	??___fladd
  5732  05E8  085C               	movf	??___fladd,w
  5733  05E9  07E6               	addwf	___fladd@bexp,f
  5734  05EA                     i1l619:
  5735  05EA  0A66               	incf	___fladd@bexp,w
  5736  05EB  1903               	btfsc	3,2
  5737  05EC  2DEE               	goto	u221_21
  5738  05ED  2DEF               	goto	u221_20
  5739  05EE                     u221_21:
  5740  05EE  2DF4               	goto	i1l2056
  5741  05EF                     u221_20:
  5742  05EF                     i1l2054:
  5743  05EF  0866               	movf	___fladd@bexp,w
  5744  05F0  1D03               	btfss	3,2
  5745  05F1  2DF3               	goto	u222_21
  5746  05F2  2DF4               	goto	u222_20
  5747  05F3                     u222_21:
  5748  05F3  2E02               	goto	i1l2062
  5749  05F4                     u222_20:
  5750  05F4                     i1l2056:
  5751  05F4  3000               	movlw	0
  5752  05F5  00D7               	movwf	___fladd@b+3
  5753  05F6  3000               	movlw	0
  5754  05F7  00D6               	movwf	___fladd@b+2
  5755  05F8  3000               	movlw	0
  5756  05F9  00D5               	movwf	___fladd@b+1
  5757  05FA  3000               	movlw	0
  5758  05FB  00D4               	movwf	___fladd@b
  5759  05FC                     i1l2058:
  5760  05FC  0866               	movf	___fladd@bexp,w
  5761  05FD  1D03               	btfss	3,2
  5762  05FE  2E00               	goto	u223_21
  5763  05FF  2E01               	goto	u223_20
  5764  0600                     u223_21:
  5765  0600  2E02               	goto	i1l2062
  5766  0601                     u223_20:
  5767  0601                     i1l2060:
  5768  0601  01E4               	clrf	___fladd@signs
  5769  0602                     i1l2062:
  5770  0602  1C66               	btfss	___fladd@bexp,0
  5771  0603  2E05               	goto	u224_21
  5772  0604  2E06               	goto	u224_20
  5773  0605                     u224_21:
  5774  0605  2E08               	goto	i1l2066
  5775  0606                     u224_20:
  5776  0606                     i1l2064:
  5777  0606  17D6               	bsf	___fladd@b+2,7
  5778  0607  2E0C               	goto	i1l627
  5779  0608                     i1l2066:
  5780  0608  307F               	movlw	127
  5781  0609  00DC               	movwf	??___fladd
  5782  060A  085C               	movf	??___fladd,w
  5783  060B  05D6               	andwf	___fladd@b+2,f
  5784  060C                     i1l627:
  5785  060C  0866               	movf	___fladd@bexp,w
  5786  060D  00DC               	movwf	??___fladd
  5787  060E  1003               	clrc
  5788  060F  0C5C               	rrf	??___fladd,w
  5789  0610  00DD               	movwf	??___fladd+1
  5790  0611  085D               	movf	??___fladd+1,w
  5791  0612  00D7               	movwf	___fladd@b+3
  5792  0613                     i1l2068:
  5793  0613  1FE4               	btfss	___fladd@signs,7
  5794  0614  2E16               	goto	u225_21
  5795  0615  2E17               	goto	u225_20
  5796  0616                     u225_21:
  5797  0616  2E18               	goto	i1l628
  5798  0617                     u225_20:
  5799  0617                     i1l2070:
  5800  0617  17D7               	bsf	___fladd@b+3,7
  5801  0618                     i1l628:
  5802  0618                     i1l598:
  5803  0618  0008               	return
  5804  0619                     __end_of___fladd:
  5805  007E                     btemp	set	126	;btemp
  5806  007E                     wtemp0	set	126
  5807                           
  5808                           	psect	idloc
  5809                           
  5810                           ;Config register IDLOC0 @ 0x2000
  5811                           ;	unspecified, using default values
  5812  2000                     	org	8192
  5813  2000  3FFF               	dw	16383
  5814                           
  5815                           ;Config register IDLOC1 @ 0x2001
  5816                           ;	unspecified, using default values
  5817  2001                     	org	8193
  5818  2001  3FFF               	dw	16383
  5819                           
  5820                           ;Config register IDLOC2 @ 0x2002
  5821                           ;	unspecified, using default values
  5822  2002                     	org	8194
  5823  2002  3FFF               	dw	16383
  5824                           
  5825                           ;Config register IDLOC3 @ 0x2003
  5826                           ;	unspecified, using default values
  5827  2003                     	org	8195
  5828  2003  3FFF               	dw	16383
  5829                           
  5830                           	psect	config
  5831                           
  5832                           ;Config register CONFIG1 @ 0x2007
  5833                           ;	Oscillator Selection bits
  5834                           ;	FOSC = INTRC_NOCLKOUT, INTOSCIO oscillator: I/O function on RA6/OSC2/CLKOUT pin, I/O f
      +                          unction on RA7/OSC1/CLKIN
  5835                           ;	Watchdog Timer Enable bit
  5836                           ;	WDTE = OFF, WDT disabled and can be enabled by SWDTEN bit of the WDTCON register
  5837                           ;	Power-up Timer Enable bit
  5838                           ;	PWRTE = OFF, PWRT disabled
  5839                           ;	RE3/MCLR pin function select bit
  5840                           ;	MCLRE = OFF, RE3/MCLR pin function is digital input, MCLR internally tied to VDD
  5841                           ;	Code Protection bit
  5842                           ;	CP = OFF, Program memory code protection is disabled
  5843                           ;	Data Code Protection bit
  5844                           ;	CPD = OFF, Data memory code protection is disabled
  5845                           ;	Brown Out Reset Selection bits
  5846                           ;	BOREN = OFF, BOR disabled
  5847                           ;	Internal External Switchover bit
  5848                           ;	IESO = OFF, Internal/External Switchover mode is disabled
  5849                           ;	Fail-Safe Clock Monitor Enabled bit
  5850                           ;	FCMEN = OFF, Fail-Safe Clock Monitor is disabled
  5851                           ;	Low Voltage Programming Enable bit
  5852                           ;	LVP = OFF, RB3 pin has digital I/O, HV on MCLR must be used for programming
  5853                           ;	In-Circuit Debugger Mode bit
  5854                           ;	DEBUG = 0x1, unprogrammed default
  5855  2007                     	org	8199
  5856  2007  20D4               	dw	8404
  5857                           
  5858                           ;Config register CONFIG2 @ 0x2008
  5859                           ;	Brown-out Reset Selection bit
  5860                           ;	BOR4V = BOR40V, Brown-out Reset set to 4.0V
  5861                           ;	Flash Program Memory Self Write Enable bits
  5862                           ;	WRT = OFF, Write protection off
  5863  2008                     	org	8200
  5864  2008  3FFF               	dw	16383

Data Sizes:
    Strings     0
    Constant    0
    Data        8
    BSS         20
    Persistent  0
    Stack       0

Auto Spaces:
    Space          Size  Autos    Used
    COMMON           14     14      14
    BANK0            80     79      80
    BANK1            80     26      53
    BANK3            96      0       0
    BANK2            96      0       0

Pointer List with Targets:

    None.

Critical Paths under _main in COMMON

    None.

Critical Paths under _isr in COMMON

    _map->___xxtofl
    ___fltol->___xxtofl
    ___flmul->___xxtofl
    ___fldiv->___xxtofl
    ___fladd->___xxtofl

Critical Paths under _main in BANK0

    None.

Critical Paths under _isr in BANK0

    _isr->_map
    _map->___fltol
    ___fltol->___fladd
    ___flmul->___fldiv
    ___fladd->___flmul

Critical Paths under _main in BANK1

    _main->_write_EEPROM

Critical Paths under _isr in BANK1

    _isr->_map
    _map->___fltol

Critical Paths under _main in BANK3

    None.

Critical Paths under _isr in BANK3

    None.

Critical Paths under _main in BANK2

    None.

Critical Paths under _isr in BANK2

    None.

Call Graph Tables:

 ---------------------------------------------------------------------------------
 (Depth) Function   	        Calls       Base Space   Used Autos Params    Refs
 ---------------------------------------------------------------------------------
 (0) _main                                                 6     6      0     278
                                             20 BANK1      6     6      0
                        _read_EEPROM
                              _setup
                       _write_EEPROM
 ---------------------------------------------------------------------------------
 (1) _write_EEPROM                                         2     1      1     120
                                             18 BANK1      2     1      1
 ---------------------------------------------------------------------------------
 (1) _setup                                                1     1      0       0
                                             18 BANK1      1     1      0
 ---------------------------------------------------------------------------------
 (1) _read_EEPROM                                          1     1      0      22
                                             18 BANK1      1     1      0
 ---------------------------------------------------------------------------------
 Estimated maximum stack depth 1
 ---------------------------------------------------------------------------------
 (Depth) Function   	        Calls       Base Space   Used Autos Params    Refs
 ---------------------------------------------------------------------------------
 (2) _isr                                                  7     7      0    7645
                                             11 BANK1      7     7      0
                                _map
 ---------------------------------------------------------------------------------
 (3) _map                                                  7     1      6    7645
                                             78 BANK0      1     1      0
                                              5 BANK1      6     0      6
                            ___fladd
                            ___fldiv
                            ___flmul
                            ___fltol
                           ___xxtofl
 ---------------------------------------------------------------------------------
 (4) ___xxtofl                                            14    10      4     626
                                              0 COMMON    14    10      4
 ---------------------------------------------------------------------------------
 (4) ___fltol                                             11     7      4     305
                                             72 BANK0      6     2      4
                                              0 BANK1      5     5      0
                            ___fladd (ARG)
                            ___fldiv (ARG)
                            ___flmul (ARG)
                           ___xxtofl (ARG)
 ---------------------------------------------------------------------------------
 (4) ___flmul                                             26    18      8    2417
                                             26 BANK0     26    18      8
                          __Umul8_16
                            ___fldiv (ARG)
                           ___xxtofl (ARG)
 ---------------------------------------------------------------------------------
 (5) __Umul8_16                                            9     7      2     799
                                              0 COMMON     9     7      2
 ---------------------------------------------------------------------------------
 (4) ___fldiv                                             26    18      8    1273
                                              0 BANK0     26    18      8
                           ___xxtofl (ARG)
 ---------------------------------------------------------------------------------
 (4) ___fladd                                             20    12      8    2262
                                             52 BANK0     20    12      8
                            ___fldiv (ARG)
                            ___flmul (ARG)
                           ___xxtofl (ARG)
 ---------------------------------------------------------------------------------
 Estimated maximum stack depth 5
 ---------------------------------------------------------------------------------

 Call Graph Graphs:

 _main (ROOT)
   _read_EEPROM
   _setup
   _write_EEPROM

 _isr (ROOT)
   _map
     ___fladd
       ___fldiv (ARG)
         ___xxtofl (ARG)
       ___flmul (ARG)
         __Umul8_16
         ___fldiv (ARG)
         ___xxtofl (ARG)
       ___xxtofl (ARG)
     ___fldiv
     ___flmul
     ___fltol
       ___fladd (ARG)
       ___fldiv (ARG)
       ___flmul (ARG)
       ___xxtofl (ARG)
     ___xxtofl

 Address spaces:
Name               Size   Autos  Total    Cost      Usage
BANK3               60      0       0       9        0.0%
BITBANK3            60      0       0       8        0.0%
SFR3                 0      0       0       4        0.0%
BITSFR3              0      0       0       4        0.0%
BANK2               60      0       0      11        0.0%
BITBANK2            60      0       0      10        0.0%
SFR2                 0      0       0       5        0.0%
BITSFR2              0      0       0       5        0.0%
BANK1               50     1A      35       7       66.2%
BITBANK1            50      0       0       6        0.0%
SFR1                 0      0       0       2        0.0%
BITSFR1              0      0       0       2        0.0%
BANK0               50     4F      50       5      100.0%
BITBANK0            50      0       0       4        0.0%
SFR0                 0      0       0       1        0.0%
BITSFR0              0      0       0       1        0.0%
COMMON               E      E       E       1      100.0%
BITCOMMON            E      0       0       0        0.0%
CODE                 0      0       0       0        0.0%
DATA                 0      0      93      12        0.0%
ABS                  0      0      93       3        0.0%
NULL                 0      0       0       0        0.0%
STACK                0      0       0       2        0.0%
EEDATA             100      0       0       0        0.0%


Microchip Technology PIC Macro Assembler V2.35 build 20211206165544 
Symbol Table                                                                                   Fri May 20 11:50:55 2022

           ___fldiv@aexp 0039             ___fldiv@bexp 0038                        pc 0002  
           ___fldiv@sign 0031              _SSPSTATbits 0094                       fsr 0004  
    __Umul8_16@word_mpld 0076                      l203 09FF                      l206 0A2D  
                    l162 0EB0                      l171 0ED6                      l182 0FBC  
                    l168 0EBF                      l185 0FD3                      l194 0ABD  
                    l196 0AC1                      l197 0AE1                      _PR2 0092  
                    _map 0B7E                      _isr 0CEA                      fsr0 0004  
                    indf 0000             ___flmul@aexp 004C             ___flmul@bexp 004D  
           ___flmul@sign 0047             ___flmul@temp 0052             ___flmul@prod 004E  
           ___fltol@exp1 006D                     l2410 0A71                     l2402 0A55  
                   l2420 0A86                     l2412 0A74                     l2404 0A59  
                   l2500 0A2A                     l2510 09FB                     l2430 0A94  
                   l2422 0A89                     l2414 0A7B                     l2406 0A5A  
                   l2502 0A2B                     l2440 0AA4                     l2432 0A9B  
                   l2424 0A8A                     l2416 0A7F                     l2408 0A6D  
                   l2504 0A2C                     l2600 0E47                     l2506 09F4  
                   l2450 0AB5                     l2442 0AA6                     l2434 0A9E  
                   l2426 0A8E                     l2418 0A80                     l2610 0E67  
                   l2602 0E4D                     l2508 09F8                     l2460 0ABC  
                   l2452 0AB7                     l2444 0AAA                     l2436 0A9F  
                   l2428 0A91                     l2620 0E94                     l2612 0E74  
                   l2604 0E51                     l2470 0ACE                     l2462 0AC6  
                   l2454 0AB8                     l2446 0AAC                     l2438 0AA1  
                   l2630 0EB7                     l2622 0E9B                     l2614 0E7A  
                   l2606 0E5C                     l2480 0AD8                     l2472 0ACF  
                   l2464 0AC8                     l2456 0AB9                     l2448 0AB1  
                   l2640 0EEE                     l2632 0EBB                     l2624 0EA8  
                   l2616 0E81                     l2608 0E62                     l2482 0AD9  
                   l2474 0AD2                     l2466 0ACB                     l2458 0ABA  
                   l2490 0A16                     l2650 0F0B                     l2634 0EC5  
                   l2626 0EAC                     l2618 0E8E                     l2484 0ADC  
                   l2476 0AD3                     l2468 0ACD                     l2492 0A20  
                   l2660 0F2D                     l2652 0F11                     l2636 0EDC  
                   l2628 0EB0                     l2486 0ADF                     l2478 0AD7  
                   l2494 0A23                     l2670 0F4B                     l2654 0F17  
                   l2646 0EF0                     l2638 0EE7                     l2488 0AE0  
                   l2496 0A24                     l2680 0FC2                     l2672 0F51  
                   l2656 0F24                     l2648 0F00                     l2498 0A29  
                   l2682 0FD9                     l2674 0F57                     l2666 0F2F  
                   l2658 0F28                     l2684 0FE4                     l2676 0F64  
                   l2668 0F40                     l2774 0FF2                     l2678 0FB6  
                   l2598 0E42                     ?_map 00A5                     l2688 0FE8  
                   ?_isr 0070                     _CCPR 00C4                     _IOCB 0096  
                   u3200 0E74                     u3201 0E73                     u3210 0E8E  
                   u3211 0E8D                     u3060 0AC1                     u3220 0EA8  
                   u3061 0AC0                     u3221 0EA7                     u3310 0FC2  
                   u3230 0EC5                     u3311 0FC1                     u3231 0EC4  
                   u3320 0FD9                     u3240 0EDC                     u3321 0FD8  
                   u3305 0F88                     u3241 0EDB                     u3250 0EEE  
                   u3251 0EED                     u3260 0F24                     u3180 0E51  
                   u3261 0F23                     u3181 0E50                     u3270 0F2D  
                   u3190 0E5C                     u3407 0A98                     u3271 0F2C  
                   u3191 0E5B                     u3280 0F64                     u3281 0F63  
                   u3265 0F20                     u3337 0EB4                     u3347 0ECB  
                   u3285 0F60                     u3357 0EE2                     u3295 0F69  
                   u3367 0F06                     u3377 0F46                     u3387 0FC8  
                   u3397 0FDF                     _MODO 00C8                     _POT1 00C0  
                   _POT2 00BE                     _WPUB 0095                     _main 0E42  
                   map@x 006E                     btemp 007E                     start 0012  
        ___fldiv@new_exp 0032             ?_read_EEPROM 0070                    ??_map 007E  
                  ??_isr 00AB            ___fltol@sign1 006C          __end_of___fladd 0619  
                  ?_main 0070          __end_of___fldiv 07F6                    _EEADR 010D  
                  _EEDAT 010C          __end_of___flmul 0391          __end_of___fltol 0B7E  
                  _ANSEL 0188                    i1l200 0C2F                    i1l123 0CF1  
                  i1l124 0DD9                    i1l141 0DF4                    i1l150 0E1C  
                  i1l143 0DF8                    i1l136 0DEF                    i1l152 0E35  
                  i1l128 0DD6                    i1l138 0E34                    i1l139 0E10  
                  i1l148 0E15                    i1l610 058A                    i1l700 0A42  
                  i1l606 0566                    i1l702 0A54                    i1l616 05AC  
                  i1l641 0675                    i1l627 060C                    i1l619 05EA  
                  i1l643 07F5                    i1l731 0C97                    i1l628 0618  
                  i1l485 0B68                    i1l725 0C52                    i1l478 0B7D  
                  i1l591 0472                    i1l663 07D9                    i1l727 0CE9  
                  i1l488 0B7D                    i1l585 03F4                    i1l665 07E9  
                  i1l657 0767                    i1l681 0390                    i1l738 0CB3  
                  i1l739 0CBF                    i1l589 049B                    i1l693 0384  
                  i1l598 0618                    i1l687 02FC                    _PORTA 0005  
                  _PORTB 0006                    _PORTC 0007                    _PORTD 0008  
                  _PORTE 0009                    _TRISA 0085                    _TRISB 0086  
                  _TRISC 0087                    _TRISD 0088                    _TRISE 0089  
                  _canal 00CA                    _array 00BA                    map@x0 00A5  
                  map@x1 00A6                    map@y0 00A7                    map@y1 00A9  
                  _setup 0A55                    main@i 00B6                    main@j 00B8  
                  pclath 000A                    status 0003                    wtemp0 007E  
        __initialization 0015             __end_of_main 1000                   ??_main 00B4  
           _write_EEPROM 0A13                   _ADRESH 001E                   _CCPR1L 0015  
                 _CCPR2L 001B                   _EECON2 018D                   _CCPR_2 00C2  
                 ?_setup 0070                   _ANSELH 0189                   i1l2000 04EA  
                 i1l2002 0500                   i1l2010 0558                   i1l2020 0585  
                 i1l2012 056E                   i1l2004 053E                   i1l2100 0658  
                 i1l2030 0598                   i1l2022 0589                   i1l2014 0573  
                 i1l2006 0544                   i1l2102 065D                   i1l2110 066D  
                 i1l2040 05A9                   i1l2024 058E                   i1l2032 059A  
                 i1l2008 0549                   i1l2200 07D0                   i1l2112 067D  
                 i1l2120 0696                   i1l2104 0662                   i1l2050 05C8  
                 i1l2026 0591                   i1l2018 057C                   i1l2034 059E  
                 i1l2202 07D8                   i1l2130 06BE                   i1l2122 069B  
                 i1l2114 0689                   i1l2106 066A                   i1l2060 0601  
                 i1l2052 05E6                   i1l2044 05B1                   i1l2036 059F  
                 i1l2028 0593                   i1l2204 07DF                   i1l2140 06E7  
                 i1l2132 06C6                   i1l2116 068D                   i1l2108 066B  
                 i1l2300 02BF                   i1l2220 0041                   i1l2070 0617  
                 i1l2062 0602                   i1l2054 05EF                   i1l2046 05B6  
                 i1l2038 05A3                   i1l2206 07E3                   i1l2150 0708  
                 i1l2142 06EB                   i1l2134 06CE                   i1l2126 06A4  
                 i1l2302 02C8                   i1l2310 02DC                   i1l2230 0056  
                 i1l2222 0042                   i1l2214 0030                   i1l2064 0606  
                 i1l2056 05F4                   i1l2048 05C4                   u200_20 04CC  
                 i1l2208 07E5                   i1l2160 072A                   i1l2152 0716  
                 i1l2144 06EC                   i1l2136 06D0                   i1l2128 06B6  
                 i1l2080 062B                   i1l2072 0619                   i1l2312 02E0  
                 i1l2304 02CC                   i1l2240 006E                   i1l2232 005E  
                 i1l2224 0047                   i1l2216 0037                   u200_21 04CB  
                 i1l2066 0608                   i1l2058 05FC                   i1l2162 0733  
                 i1l2170 0747                   i1l2138 06D5                   i1l2146 06F5  
                 i1l2154 071A                   i1l2082 0630                   i1l2090 0640  
                 i1l2074 0620                   i1l2330 0331                   i1l2322 0301  
                 i1l2314 02E1                   i1l2306 02CD                   i1l2250 008A  
                 i1l2242 0073                   i1l2234 0063                   i1l2226 004C  
                 i1l2218 003D                   i1l2068 0613                   i1l2172 074B  
                 i1l2164 0737                   i1l2156 0720                   i1l2148 0707  
                 i1l2092 0648                   i1l2084 0635                   i1l2076 0626  
                 i1l2340 0368                   i1l2324 0306                   i1l2332 0337  
                 i1l2316 02E5                   i1l2308 02D6                   i1l2260 00AD  
                 i1l2252 008F                   i1l2244 0078                   i1l2236 0069  
                 i1l2228 0054                   i1l2190 079C                   i1l2182 076C  
                 i1l2174 074C                   i1l2166 0738                   i1l2158 0728  
                 i1l2094 064D                   i1l2086 063D                   i1l2078 062A  
                 i1l2350 0388                   i1l2342 036A                   i1l2334 0344  
                 i1l2326 0314                   i1l2318 02F9                   i1l2270 013B  
                 i1l2262 00BA                   i1l2254 0094                   i1l2246 0080  
                 i1l2238 006D                   u201_20 04DB                   i1l2184 0771  
                 i1l2192 07A2                   i1l2176 0750                   i1l2168 0741  
                 i1l2096 0653                   i1l2088 063E                   i1l2344 0378  
                 i1l2336 034F                   i1l2328 0318                   i1l2280 019D  
                 i1l2272 0157                   i1l2264 00D7                   i1l2248 0082  
                 i1l2360 0C4A                   i1l2520 0CF6                   u201_21 04DA  
                 i1l2194 07AF                   i1l2186 077F                   i1l2178 0764  
                 i1l2098 0657                   i1l2346 037C                   i1l2338 035E  
                 i1l2290 022D                   i1l2282 01BA                   i1l2274 0160  
                 i1l2266 00F3                   i1l2258 009D                   i1l2370 0C75  
                 i1l2362 0C5A                   i1l2354 0C31                   i1l2530 0D3C  
                 i1l2522 0CFB                   i1l2514 0CEA                   i1l1900 03C5  
                 i1l2196 07BD                   i1l2188 0783                   i1l2348 037D  
                 i1l2292 025A                   i1l2284 01D3                   i1l2276 0170  
                 i1l2268 011F                   i1l2380 0CA9                   i1l2372 0C7C  
                 i1l2356 0C36                   i1l2540 0D93                   i1l2532 0D41  
                 i1l2524 0D16                   i1l2516 0CF0                   i1l1910 03D7  
                 i1l1902 03CB                   i1l2198 07CC                   i1l1830 0A31  
                 i1l2294 0280                   i1l2286 01F0                   i1l2278 018D  
                 i1l2390 0CDC                   i1l2382 0CAD                   i1l2374 0C80  
                 i1l2366 0C63                   i1l2358 0C3A                   i1l2550 0DB4  
                 i1l2542 0D9A                   i1l2534 0D5C                   i1l2526 0D24  
                 u210_20 0589                   i1l1912 03DC                   i1l1920 03EC  
                 i1l1904 03CC                   i1l1832 0A38                   i1l2296 02A8  
                 i1l2288 021D                   i1l2392 0CE0                   i1l2384 0CB7  
                 i1l2376 0C8E                   i1l2368 0C68                   i1l2560 0DE1  
                 i1l2552 0DB9                   i1l2544 0DA2                   i1l2536 0D6A  
                 i1l2528 0D35                   u210_21 0588                   i1l1930 040A  
                 i1l1922 03FA                   i1l1914 03E1                   i1l1906 03D2  
                 i1l1834 0A3C                   i1l2298 02B1                   i1l1850 0B21  
                 i1l1842 0AE2                   i1l2394 0CE1                   i1l2386 0CC1  
                 i1l2378 0C9E                   i1l2562 0DE7                   i1l2546 0DA7  
                 i1l2538 0D7B                   i1l1940 041E                   i1l1932 040E  
                 i1l1924 03FE                   i1l1916 03E9                   i1l1908 03D6  
                 i1l1836 0A4B                   i1l1828 0A2F                   i1l1852 0B22  
                 i1l1844 0AF3                   i1l2388 0CD7                   i1l2564 0DED  
                 i1l2548 0DAC                   i1l2556 0DBE                   u202_25 04DE  
                 i1l1950 0432                   i1l1942 0422                   i1l1934 0412  
                 i1l1926 0402                   i1l1918 03EA                   i1l1838 0A50  
                 i1l1854 0B2A                   i1l2398 0B81                   i1l2574 0DFB  
                 i1l2558 0DDD                   u211_20 058E                   u203_20 0500  
                 i1l1960 0456                   i1l1952 0436                   i1l1944 0426  
                 i1l1936 0416                   i1l1928 0406                   i1l1880 0398  
                 i1l1872 0B55                   i1l1864 0B38                   i1l1856 0B2C  
                 i1l1848 0AFC                   i1l2584 0E1F                   i1l2568 0DF6  
                 u211_21 058D                   u203_21 04FF                   i1l1970 0486  
                 i1l1962 0476                   i1l1954 043A                   i1l1946 042A  
                 i1l1938 041A                   i1l1890 03AD                   i1l1882 039E  
                 i1l1874 0B6D                   i1l1858 0B30                   i1l1866 0B4E  
                 i1l2578 0E17                   u203_23 04FC                   i1l1972 048F  
                 i1l1964 047F                   i1l1948 042E                   i1l1956 043E  
                 i1l1892 03B5                   i1l1884 03A2                   i1l1876 0B72  
                 i1l2780 0E29                   i1l1990 04D5                   i1l1982 04AD  
                 i1l1966 0481                   i1l1974 0493                   i1l1958 043F  
                 i1l1894 03B6                   i1l1886 03A3                   i1l1878 0391  
                 u220_20 05E6                   u212_20 0598                   i1l1992 04D7  
                 i1l1984 04C4                   i1l1976 049F                   i1l1968 0485  
                 i1l1888 03A8                   i1l1896 03B8                   u300_20 0CAD  
                 i1l2776 0DC8                   u220_21 05E5                   u212_21 0597  
                 u204_21 0517                   u300_21 0CAC                   u204_22 0518  
                 i1l1994 04DB                   i1l1986 04C8                   i1l1978 04A4  
                 i1l1898 03C0                   i1l2778 0E05                   u204_23 051D  
                 u204_24 051E                   i1l1996 04DC                   i1l1988 04CC  
                 u204_25 0523                   u204_26 0524                   i1l1998 04E5  
                 u221_20 05EF                   u213_20 059E                   u205_20 052B  
                 u301_20 0CB3                   u221_21 05EE                   u213_21 059D  
                 u205_21 052C                   u301_21 0CB2                   u205_22 0531  
                 u205_23 0532                   u222_20 05F4                   u214_20 05A3  
                 u206_20 0549                   u230_20 065D                   u302_20 0CB7  
                 u310_20 0D41                   u222_21 05F3                   u214_21 05A2  
                 u206_21 0548                   u230_21 065C                   u302_21 0CB6  
                 u310_21 0D40                   u223_20 0601                   u215_20 05A9  
                 u207_20 056E                   u231_20 0662                   u303_20 0CCC  
                 u311_20 0DA7                   u223_21 0600                   u215_21 05A8  
                 u207_21 056D                   u231_21 0661                   u311_21 0DA6  
                 u303_25 0CC7                   u224_20 0606                   u216_20 05B0  
                 u208_20 0573                   u240_20 0720                   u232_20 067D  
                 u304_20 0CDC                   u312_20 0DB9                   u224_21 0605  
                 u216_21 05AF                   u208_21 0572                   u240_21 071F  
                 u232_21 067C                   u304_21 0CDB                   u312_21 0DB8  
                 u225_20 0617                   u217_20 05B6                   u241_20 0728  
                 u233_20 069B                   u305_20 0CE0                   u313_20 0DDD  
                 u225_21 0616                   u217_21 05B5                   u241_21 0727  
                 u233_21 069A                   u305_21 0CDF                   u313_21 0DDC  
                 u209_25 057E                   u218_20 05C8                   u250_20 0783  
                 u234_20 06D5                   u226_20 062A                   u170_20 0AF3  
                 u314_20 0DE1                   u218_21 05C7                   u250_21 0782  
                 u234_21 06D4                   u226_21 0629                   u170_21 0AF2  
                 u314_21 0DE0                   u242_25 072C                   u219_20 05D7  
                 u251_20 0792                   u243_20 0737                   u227_20 0630  
                 u171_20 0B18                   u315_20 0DED                   u307_20 0CF0  
                 u243_21 0736                   u227_21 062F                   u315_21 0DEC  
                 u307_21 0CEF                   u219_25 05D2                   u251_25 078D  
                 u235_25 06D7                   u171_25 0B13                   u180_20 03A2  
                 u252_20 07AF                   u228_20 0635                   u260_20 0078  
                 u172_20 0B30                   u316_20 0DF3                   u308_20 0CF5  
                 u180_21 03A1                   u252_21 07AE                   u228_21 0634  
                 u260_21 0077                   u172_21 0B2F                   u316_21 0DF2  
                 u308_21 0CF4                   u252_25 07AB                   u244_25 073A  
                 u236_25 06E0                   u181_20 03A8                   u253_20 07CC  
                 u245_20 074B                   u237_20 06EB                   u229_20 0657  
                 u261_20 008F                   u173_20 0B37                   u317_20 0E14  
                 u309_20 0CFB                   u181_21 03A7                   u253_21 07CB  
                 u245_21 074A                   u237_21 06EA                   u229_21 0656  
                 u261_21 008E                   u173_21 0B36                   u317_21 0E13  
                 u309_21 0CFA                   u253_25 07C8                   u190_20 0461  
                 u182_20 03AD                   u254_20 07E3                   u246_20 0750  
                 u262_20 0094                   u190_21 045F                   u182_21 03AC  
                 u254_21 07E2                   u246_21 074F                   u262_21 0093  
                 u238_25 06EE                   u270_25 01BC                   u174_25 0B39  
                 u191_20 0462                   u183_20 03CB                   u247_20 0764  
                 u239_20 0707                   u167_20 0A3C                   u255_20 0041  
                 u175_20 0B4D                   u183_21 03CA                   u247_21 0763  
                 u239_21 0706                   u167_21 0A3B                   u271_21 01E2  
                 u263_21 00E5                   u255_21 0040                   u175_21 0B4C  
                 u271_22 01E9                   u263_22 00EC                   u271_23 01F0  
                 u263_23 00F3                   u239_25 0703                   u192_20 0476  
                 u184_20 03D6                   u248_20 076B                   u280_20 02CC  
                 u256_20 0047                   u176_20 0B54                   u192_21 0475  
                 u184_21 03D5                   u248_21 076A                   u280_21 02CB  
                 u272_21 020F                   u264_21 0101                   u256_21 0046  
                 u176_21 0B53                   u272_22 0216                   u264_22 0108  
                 u272_23 021D                   u264_23 010F                   u168_25 0A43  
                 u193_20 0485                   u185_20 03DC                   u249_20 0771  
                 u169_20 0A50                   u257_20 004C                   u193_21 0484  
                 u185_21 03DB                   u249_21 0770                   u169_21 0A4F  
                 u273_21 023C                   u265_21 012D                   u257_21 004B  
                 u273_22 0243                   u265_22 0134                   u273_23 024A  
                 u265_23 013B                   u281_25 02CF                   u177_25 0B59  
                 u186_20 03E1                   u290_20 035E                   u282_20 02E0  
                 u274_20 0266                   u258_20 006D                   u178_20 0B6D  
                 u186_21 03E0                   u290_21 035D                   u282_21 02DF  
                 u266_21 0149                   u258_21 006C                   u178_21 0B6C  
                 u266_22 0150                   u266_23 0157                   u194_25 0488  
                 u290_25 035A                   u274_25 0261                   u195_20 049B  
                 u187_20 03FA                   u291_20 037C                   u283_20 02E5  
                 u259_20 0073                   u179_20 0B72                   u195_21 049A  
                 u187_21 03F9                   u291_21 037B                   u283_21 02E4  
                 u275_21 0272                   u259_21 0072                   u179_21 0B71  
                 u275_22 0279                   u275_23 0280                   u267_25 0159  
                 u196_20 049F                   u188_20 03FE                   u284_20 02F9  
                 u276_20 028E                   u292_20 0C36                   u196_21 049E  
                 u188_21 03FD                   u284_21 02F8                   u268_21 017F  
                 u292_21 0C35                   u268_22 0186                   u268_23 018D  
                 u276_25 0289                   u197_20 04A4                   u189_20 0456  
                 u285_20 0300                   u293_20 0C3A                   u197_21 04A3  
                 u189_21 0455                   u285_21 02FF                   u277_21 029A  
                 u269_21 01AC                   u293_21 0C39                   u277_22 02A1  
                 u269_22 01B3                   u277_23 02A8                   u269_23 01BA  
                 u189_25 0452                   u286_20 0306                   u294_20 0C5A  
                 u198_21 04B6                   u286_21 0305                   u294_21 0C59  
                 u198_22 04BD                   u198_23 04C4                   u278_25 02AA  
                 u199_20 04C8                   u287_20 0318                   u199_21 04C7  
                 u287_21 0317                   u279_25 02C1                   u295_25 0C6D  
                 u288_20 0327                   u296_20 0C7B                   u296_21 0C7A  
                 u288_25 0322                   u289_20 0344                   u289_21 0343  
                 u289_25 0340                   u297_25 0C8F                   u298_20 0C9D  
                 u298_21 0C9C                   u299_25 0CA2                   _SSPBUF 0013  
       __end_of___xxtofl 0CEA                ??___fladd 005C                ??___fldiv 0028  
              ??___flmul 0042                ??___fltol 00A0                   saved_w 007E  
           ___xxtofl@arg 007A             ___xxtofl@exp 0079             ___xxtofl@val 0070  
__end_of__initialization 002C               ___fltol@f1 0068           __pcstackCOMMON 0070  
           __pidataBANK1 07F6            __end_of_setup 0AE2       read_EEPROM@address 00B2  
             _addresPos1 00D1               _addresPos2 00CD           _OPTION_REGbits 0081  
       write_EEPROM@data 00B2                  ??_setup 00B2               __pbssBANK0 006F  
             __pbssBANK1 00BA        __end_of__Umul8_16 0A55               __pmaintext 0E42  
             __pintentry 0004                  _CCP1CON 0017                  _CCP2CON 001D  
              ?___xxtofl 0070                  ___fladd 0391                  ___fldiv 0619  
                ___flmul 0030                  ___fltol 0AE2                  _address 00C9  
                __ptext1 0A13                  __ptext2 0A55                  __ptext3 09F1  
                __ptext4 0CEA                  __ptext5 0B7E                  __ptext6 0C30  
                __ptext7 0AE2                  __ptext8 0030                  __ptext9 0A2E  
              _T2CONbits 0012                  _read_fg 00C6               ??___xxtofl 0074  
                clrloop0 09EA     end_of_initialization 002C      write_EEPROM@address 00B3  
              _PORTBbits 0006              ___fladd@grs 0067            ___xxtofl@sign 0078  
              _TRISCbits 0087              ___fldiv@grs 0034              ___fldiv@rem 002D  
            ___flmul@grs 0048              _CCP1CONbits 0017              _CCP2CONbits 001D  
    start_initialization 0015              __end_of_map 0C30              __end_of_isr 0E42  
          ??_read_EEPROM 00B2               init_fetch0 0A00                __Umul8_16 0A2E  
            __pdataBANK1 00CD                ___fladd@a 0058                ___fladd@b 0054  
              ___fldiv@a 0020                ___fldiv@b 0024                ___flmul@a 003E  
              ___flmul@b 003A                ___latbits 0002            __pcstackBANK0 0020  
          __pcstackBANK1 00A0                 ?___fladd 0054                 ?___fldiv 0020  
               ?___flmul 003A                 ?___fltol 0068               ?__Umul8_16 0070  
    __end_of_read_EEPROM 0A00            ?_write_EEPROM 00B2        interrupt_function 0004  
              clear_ram0 09E9                 _PIE1bits 008C                 _PIR1bits 000C  
             _ADCON0bits 001F               _ADCON1bits 009F           ??_write_EEPROM 00B3  
             _EECON1bits 018C              _read_EEPROM 09F1              ??__Umul8_16 0072  
               ___xxtofl 0C30                 __ptext10 0619                 __ptext11 0391  
               _val_temp 006F                 _write_fg 00C7               _INTCONbits 000B  
               init_ram0 0A04                 intlevel1 0000     __end_of_write_EEPROM 0A2E  
             _OSCCONbits 008F   __Umul8_16@multiplicand 0070               _POT1_slave 00CC  
             _POT2_slave 00CB            ___fladd@signs 0064             ___fladd@aexp 0065  
           ___fladd@bexp 0066     __Umul8_16@multiplier 0078               _SSPCONbits 0014  
      __Umul8_16@product 0074  
