

Microchip MPLAB XC8 Assembler V2.35 build 20211206165544 
                                                                                               Mon May 30 16:08:06 2022

Microchip MPLAB XC8 C Compiler v2.35 (Free license) build 20211206165544 Og1 
     1                           	processor	16F887
     2                           	pagewidth 120
     3                           	opt	flic
     4                           	psect	cinit,global,class=CODE,merge=1,delta=2
     5                           	psect	bssBANK0,global,class=BANK0,space=1,delta=1,noexec
     6                           	psect	bssBANK1,global,class=BANK1,space=1,delta=1,noexec
     7                           	psect	clrtext,global,class=CODE,delta=2
     8                           	psect	cstackBANK1,global,class=BANK1,space=1,delta=1,noexec
     9                           	psect	cstackCOMMON,global,class=COMMON,space=1,delta=1,noexec
    10                           	psect	cstackBANK0,global,class=BANK0,space=1,delta=1,noexec
    11                           	psect	maintext,global,class=CODE,split=1,delta=2
    12                           	psect	text1,local,class=CODE,merge=1,delta=2
    13                           	psect	text2,local,class=CODE,merge=1,delta=2
    14                           	psect	text3,local,class=CODE,merge=1,delta=2
    15                           	psect	text4,local,class=CODE,merge=1,delta=2
    16                           	psect	intentry,global,class=CODE,delta=2
    17                           	psect	text5,local,class=CODE,merge=1,delta=2
    18                           	psect	text6,local,class=CODE,merge=1,delta=2,group=1
    19                           	psect	text7,local,class=CODE,merge=1,delta=2,group=1
    20                           	psect	text8,local,class=CODE,merge=1,delta=2,group=1
    21                           	psect	text9,local,class=CODE,merge=1,delta=2,group=1
    22                           	psect	text10,local,class=CODE,merge=1,delta=2,group=1
    23                           	psect	text11,local,class=CODE,merge=1,delta=2,group=1
    24                           	psect	idloc,global,abs,ovrld,class=IDLOC,space=5,delta=2,noexec
    25                           	psect	config,global,abs,ovrld,class=CONFIG,space=4,delta=2,noexec
    26                           	dabs	1,0x7E,2
    27  0000                     
    28                           ; Version 2.40
    29                           ; Generated 17/11/2021 GMT
    30                           ; 
    31                           ; Copyright © 2021, Microchip Technology Inc. and its subsidiaries ("Microchip")
    32                           ; All rights reserved.
    33                           ; 
    34                           ; This software is developed by Microchip Technology Inc. and its subsidiaries ("Microch
      +                          ip").
    35                           ; 
    36                           ; Redistribution and use in source and binary forms, with or without modification, are
    37                           ; permitted provided that the following conditions are met:
    38                           ; 
    39                           ;     1. Redistributions of source code must retain the above copyright notice, this lis
      +                          t of
    40                           ;        conditions and the following disclaimer.
    41                           ; 
    42                           ;     2. Redistributions in binary form must reproduce the above copyright notice, this 
      +                          list
    43                           ;        of conditions and the following disclaimer in the documentation and/or other
    44                           ;        materials provided with the distribution. Publication is not required when
    45                           ;        this file is used in an embedded application.
    46                           ; 
    47                           ;     3. Microchip's name may not be used to endorse or promote products derived from th
      +                          is
    48                           ;        software without specific prior written permission.
    49                           ; 
    50                           ; THIS SOFTWARE IS PROVIDED BY MICROCHIP "AS IS" AND ANY EXPRESS OR IMPLIED WARRANTIES,
    51                           ; INCLUDING, BUT NOT LIMITED TO, THE IMPLIED WARRANTIES OF MERCHANTABILITY AND FITNESS F
      +                          OR
    52                           ; PURPOSE ARE DISCLAIMED.  IN NO EVENT SHALL MICROCHIP BE LIABLE FOR ANY DIRECT, INDIREC
      +                          T,
    53                           ; INCIDENTAL, SPECIAL, EXEMPLARY, OR CONSEQUENTIAL DAMAGES (INCLUDING BUT NOT LIMITED TO
    54                           ; PROCUREMENT OF SUBSTITUTE GOODS OR SERVICES; LOSS OF USE, DATA OR PROFITS; OR BUSINESS
    55                           ; INTERRUPTION) HOWSOEVER CAUSED AND ON ANY THEORY OF LIABILITY, WHETHER IN CONTRACT, ST
      +                          RICT
    56                           ; LIABILITY, OR TORT (INCLUDING NEGLIGENCE OR OTHERWISE) ARISING IN ANY WAY OUT OF THE U
      +                          SE OF
    57                           ; THIS SOFTWARE, EVEN IF ADVISED OF THE POSSIBILITY OF SUCH DAMAGE.
    58                           ; 
    59                           ; 
    60                           ; Code-generator required, PIC16F887 Definitions
    61                           ; 
    62                           ; SFR Addresses
    63  0000                     	;# 
    64  0001                     	;# 
    65  0002                     	;# 
    66  0003                     	;# 
    67  0004                     	;# 
    68  0005                     	;# 
    69  0006                     	;# 
    70  0007                     	;# 
    71  0008                     	;# 
    72  0009                     	;# 
    73  000A                     	;# 
    74  000B                     	;# 
    75  000C                     	;# 
    76  000D                     	;# 
    77  000E                     	;# 
    78  000E                     	;# 
    79  000F                     	;# 
    80  0010                     	;# 
    81  0011                     	;# 
    82  0012                     	;# 
    83  0013                     	;# 
    84  0014                     	;# 
    85  0015                     	;# 
    86  0015                     	;# 
    87  0016                     	;# 
    88  0017                     	;# 
    89  0018                     	;# 
    90  0019                     	;# 
    91  001A                     	;# 
    92  001B                     	;# 
    93  001B                     	;# 
    94  001C                     	;# 
    95  001D                     	;# 
    96  001E                     	;# 
    97  001F                     	;# 
    98  0081                     	;# 
    99  0085                     	;# 
   100  0086                     	;# 
   101  0087                     	;# 
   102  0088                     	;# 
   103  0089                     	;# 
   104  008C                     	;# 
   105  008D                     	;# 
   106  008E                     	;# 
   107  008F                     	;# 
   108  0090                     	;# 
   109  0091                     	;# 
   110  0092                     	;# 
   111  0093                     	;# 
   112  0093                     	;# 
   113  0093                     	;# 
   114  0094                     	;# 
   115  0095                     	;# 
   116  0096                     	;# 
   117  0097                     	;# 
   118  0098                     	;# 
   119  0099                     	;# 
   120  009A                     	;# 
   121  009B                     	;# 
   122  009C                     	;# 
   123  009D                     	;# 
   124  009E                     	;# 
   125  009F                     	;# 
   126  0105                     	;# 
   127  0107                     	;# 
   128  0108                     	;# 
   129  0109                     	;# 
   130  010C                     	;# 
   131  010C                     	;# 
   132  010D                     	;# 
   133  010E                     	;# 
   134  010F                     	;# 
   135  0185                     	;# 
   136  0187                     	;# 
   137  0188                     	;# 
   138  0189                     	;# 
   139  018C                     	;# 
   140  018D                     	;# 
   141  0000                     	;# 
   142  0001                     	;# 
   143  0002                     	;# 
   144  0003                     	;# 
   145  0004                     	;# 
   146  0005                     	;# 
   147  0006                     	;# 
   148  0007                     	;# 
   149  0008                     	;# 
   150  0009                     	;# 
   151  000A                     	;# 
   152  000B                     	;# 
   153  000C                     	;# 
   154  000D                     	;# 
   155  000E                     	;# 
   156  000E                     	;# 
   157  000F                     	;# 
   158  0010                     	;# 
   159  0011                     	;# 
   160  0012                     	;# 
   161  0013                     	;# 
   162  0014                     	;# 
   163  0015                     	;# 
   164  0015                     	;# 
   165  0016                     	;# 
   166  0017                     	;# 
   167  0018                     	;# 
   168  0019                     	;# 
   169  001A                     	;# 
   170  001B                     	;# 
   171  001B                     	;# 
   172  001C                     	;# 
   173  001D                     	;# 
   174  001E                     	;# 
   175  001F                     	;# 
   176  0081                     	;# 
   177  0085                     	;# 
   178  0086                     	;# 
   179  0087                     	;# 
   180  0088                     	;# 
   181  0089                     	;# 
   182  008C                     	;# 
   183  008D                     	;# 
   184  008E                     	;# 
   185  008F                     	;# 
   186  0090                     	;# 
   187  0091                     	;# 
   188  0092                     	;# 
   189  0093                     	;# 
   190  0093                     	;# 
   191  0093                     	;# 
   192  0094                     	;# 
   193  0095                     	;# 
   194  0096                     	;# 
   195  0097                     	;# 
   196  0098                     	;# 
   197  0099                     	;# 
   198  009A                     	;# 
   199  009B                     	;# 
   200  009C                     	;# 
   201  009D                     	;# 
   202  009E                     	;# 
   203  009F                     	;# 
   204  0105                     	;# 
   205  0107                     	;# 
   206  0108                     	;# 
   207  0109                     	;# 
   208  010C                     	;# 
   209  010C                     	;# 
   210  010D                     	;# 
   211  010E                     	;# 
   212  010F                     	;# 
   213  0185                     	;# 
   214  0187                     	;# 
   215  0188                     	;# 
   216  0189                     	;# 
   217  018C                     	;# 
   218  018D                     	;# 
   219  0018                     _RCSTAbits	set	24
   220  0014                     _SSPCONbits	set	20
   221  0007                     _PORTC	set	7
   222  0012                     _T2CONbits	set	18
   223  001D                     _CCP2CON	set	29
   224  0017                     _CCP1CON	set	23
   225  0005                     _PORTA	set	5
   226  0008                     _PORTD	set	8
   227  0006                     _PORTB	set	6
   228  0013                     _SSPBUF	set	19
   229  001F                     _ADCON0bits	set	31
   230  0009                     _PORTE	set	9
   231  001A                     _RCREG	set	26
   232  0006                     _PORTBbits	set	6
   233  000B                     _INTCONbits	set	11
   234  001D                     _CCP2CONbits	set	29
   235  001B                     _CCPR2L	set	27
   236  0017                     _CCP1CONbits	set	23
   237  0015                     _CCPR1L	set	21
   238  001E                     _ADRESH	set	30
   239  000C                     _PIR1bits	set	12
   240  008C                     _PIE1bits	set	140
   241  009A                     _SPBRGH	set	154
   242  0099                     _SPBRG	set	153
   243  0098                     _TXSTAbits	set	152
   244  0092                     _PR2	set	146
   245  0087                     _TRISCbits	set	135
   246  009F                     _ADCON1bits	set	159
   247  008F                     _OSCCONbits	set	143
   248  0096                     _IOCB	set	150
   249  0095                     _WPUB	set	149
   250  0081                     _OPTION_REGbits	set	129
   251  0085                     _TRISA	set	133
   252  0089                     _TRISE	set	137
   253  0088                     _TRISD	set	136
   254  0086                     _TRISB	set	134
   255  0094                     _SSPSTATbits	set	148
   256  010C                     _EEDAT	set	268
   257  010D                     _EEADR	set	269
   258  018D                     _EECON2	set	397
   259  018C                     _EECON1bits	set	396
   260  0187                     _BAUDCTLbits	set	391
   261  0189                     _ANSELH	set	393
   262  0188                     _ANSEL	set	392
   263                           
   264                           	psect	cinit
   265  0015                     start_initialization:	
   266                           ; #config settings
   267                           
   268  0015                     __initialization:
   269                           
   270                           ; Clear objects allocated to BANK0
   271  0015  1283               	bcf	3,5	;RP0=0, select bank0
   272  0016  1303               	bcf	3,6	;RP1=0, select bank0
   273  0017  01EF               	clrf	__pbssBANK0& (0+127)
   274                           
   275                           ; Clear objects allocated to BANK1
   276  0018  1383               	bcf	3,7	;select IRP bank0
   277  0019  30BA               	movlw	low __pbssBANK1
   278  001A  0084               	movwf	4
   279  001B  30CE               	movlw	low (__pbssBANK1+20)
   280  001C  120A  158A  216D  120A  118A  	fcall	clear_ram0
   281  0021                     end_of_initialization:	
   282                           ;End of C runtime variable initialization code
   283                           
   284  0021                     __end_of__initialization:
   285  0021  0183               	clrf	3
   286  0022  120A  158A  2DB8   	ljmp	_main	;jump to C main() function
   287                           
   288                           	psect	bssBANK0
   289  006F                     __pbssBANK0:
   290  006F                     _val_temp:
   291  006F                     	ds	1
   292                           
   293                           	psect	bssBANK1
   294  00BA                     __pbssBANK1:
   295  00BA                     _array:
   296  00BA                     	ds	4
   297  00BE                     _CCPR_2:
   298  00BE                     	ds	2
   299  00C0                     _CCPR:
   300  00C0                     	ds	2
   301  00C2                     _flag:
   302  00C2                     	ds	1
   303  00C3                     _POTc:
   304  00C3                     	ds	1
   305  00C4                     _selector:
   306  00C4                     	ds	1
   307  00C5                     _read_fg:
   308  00C5                     	ds	1
   309  00C6                     _write_fg:
   310  00C6                     	ds	1
   311  00C7                     _MODO:
   312  00C7                     	ds	1
   313  00C8                     _address:
   314  00C8                     	ds	1
   315  00C9                     _canal:
   316  00C9                     	ds	1
   317  00CA                     _POT_compu:
   318  00CA                     	ds	1
   319  00CB                     _SERIAL:
   320  00CB                     	ds	1
   321  00CC                     _POT2_slave:
   322  00CC                     	ds	1
   323  00CD                     _POT1_slave:
   324  00CD                     	ds	1
   325                           
   326                           	psect	clrtext
   327  096D                     clear_ram0:	
   328                           ;	Called with FSR containing the base address, and
   329                           ;	W with the last address+1
   330                           
   331  096D  0064               	clrwdt	;clear the watchdog before getting into this loop
   332  096E                     clrloop0:
   333  096E  0180               	clrf	0	;clear RAM location pointed to by FSR
   334  096F  0A84               	incf	4,f	;increment pointer
   335  0970  0604               	xorwf	4,w	;XOR with final address
   336  0971  1903               	btfsc	3,2	;have we reached the end yet?
   337  0972  3400               	retlw	0	;all done for this memory range, return
   338  0973  0604               	xorwf	4,w	;XOR again to restore value
   339  0974  296E               	goto	clrloop0	;do the next byte
   340                           
   341                           	psect	cstackBANK1
   342  00A0                     __pcstackBANK1:
   343  00A0                     ??___fltol:
   344                           
   345                           ; 1 bytes @ 0x0
   346  00A0                     	ds	5
   347  00A5                     ?_map:
   348  00A5                     map@x0:	
   349                           ; 2 bytes @ 0x5
   350                           
   351                           
   352                           ; 1 bytes @ 0x5
   353  00A5                     	ds	1
   354  00A6                     map@x1:
   355                           
   356                           ; 1 bytes @ 0x6
   357  00A6                     	ds	1
   358  00A7                     map@y0:
   359                           
   360                           ; 2 bytes @ 0x7
   361  00A7                     	ds	2
   362  00A9                     map@y1:
   363                           
   364                           ; 2 bytes @ 0x9
   365  00A9                     	ds	2
   366  00AB                     ??_isr:
   367                           
   368                           ; 1 bytes @ 0xB
   369  00AB                     	ds	7
   370  00B2                     ??_setup:
   371  00B2                     ?_write_EEPROM:	
   372                           ; 1 bytes @ 0x12
   373                           
   374  00B2                     ??_read_EEPROM:	
   375                           ; 1 bytes @ 0x12
   376                           
   377  00B2                     read_EEPROM@address:	
   378                           ; 1 bytes @ 0x12
   379                           
   380  00B2                     write_EEPROM@data:	
   381                           ; 1 bytes @ 0x12
   382                           
   383                           
   384                           ; 1 bytes @ 0x12
   385  00B2                     	ds	1
   386  00B3                     ??_write_EEPROM:
   387  00B3                     write_EEPROM@address:	
   388                           ; 1 bytes @ 0x13
   389                           
   390                           
   391                           ; 1 bytes @ 0x13
   392  00B3                     	ds	1
   393  00B4                     ??_main:
   394                           
   395                           ; 1 bytes @ 0x14
   396  00B4                     	ds	2
   397  00B6                     main@i:
   398                           
   399                           ; 2 bytes @ 0x16
   400  00B6                     	ds	2
   401  00B8                     main@j:
   402                           
   403                           ; 2 bytes @ 0x18
   404  00B8                     	ds	2
   405                           
   406                           	psect	cstackCOMMON
   407  0070                     __pcstackCOMMON:
   408  0070                     ?_setup:
   409  0070                     ?_read_EEPROM:	
   410                           ; 1 bytes @ 0x0
   411                           
   412  0070                     ?_isr:	
   413                           ; 1 bytes @ 0x0
   414                           
   415  0070                     ?_main:	
   416                           ; 1 bytes @ 0x0
   417                           
   418  0070                     ?__Umul8_16:	
   419                           ; 1 bytes @ 0x0
   420                           
   421  0070                     ?___xxtofl:	
   422                           ; 2 bytes @ 0x0
   423                           
   424  0070                     __Umul8_16@multiplicand:	
   425                           ; 4 bytes @ 0x0
   426                           
   427  0070                     ___xxtofl@val:	
   428                           ; 1 bytes @ 0x0
   429                           
   430                           
   431                           ; 4 bytes @ 0x0
   432  0070                     	ds	2
   433  0072                     ??__Umul8_16:
   434                           
   435                           ; 1 bytes @ 0x2
   436  0072                     	ds	2
   437  0074                     ??___xxtofl:
   438  0074                     __Umul8_16@product:	
   439                           ; 1 bytes @ 0x4
   440                           
   441                           
   442                           ; 2 bytes @ 0x4
   443  0074                     	ds	2
   444  0076                     __Umul8_16@word_mpld:
   445                           
   446                           ; 2 bytes @ 0x6
   447  0076                     	ds	2
   448  0078                     __Umul8_16@multiplier:
   449  0078                     ___xxtofl@sign:	
   450                           ; 1 bytes @ 0x8
   451                           
   452                           
   453                           ; 1 bytes @ 0x8
   454  0078                     	ds	1
   455  0079                     ___xxtofl@exp:
   456                           
   457                           ; 1 bytes @ 0x9
   458  0079                     	ds	1
   459  007A                     ___xxtofl@arg:
   460                           
   461                           ; 4 bytes @ 0xA
   462  007A                     	ds	4
   463  007E                     ??_map:
   464                           
   465                           	psect	cstackBANK0
   466  0020                     __pcstackBANK0:	
   467                           ; 1 bytes @ 0xE
   468                           
   469  0020                     ?___fldiv:
   470  0020                     ___fldiv@a:	
   471                           ; 4 bytes @ 0x0
   472                           
   473                           
   474                           ; 4 bytes @ 0x0
   475  0020                     	ds	4
   476  0024                     ___fldiv@b:
   477                           
   478                           ; 4 bytes @ 0x4
   479  0024                     	ds	4
   480  0028                     ??___fldiv:
   481                           
   482                           ; 1 bytes @ 0x8
   483  0028                     	ds	5
   484  002D                     ___fldiv@rem:
   485                           
   486                           ; 4 bytes @ 0xD
   487  002D                     	ds	4
   488  0031                     ___fldiv@sign:
   489                           
   490                           ; 1 bytes @ 0x11
   491  0031                     	ds	1
   492  0032                     ___fldiv@new_exp:
   493                           
   494                           ; 2 bytes @ 0x12
   495  0032                     	ds	2
   496  0034                     ___fldiv@grs:
   497                           
   498                           ; 4 bytes @ 0x14
   499  0034                     	ds	4
   500  0038                     ___fldiv@bexp:
   501                           
   502                           ; 1 bytes @ 0x18
   503  0038                     	ds	1
   504  0039                     ___fldiv@aexp:
   505                           
   506                           ; 1 bytes @ 0x19
   507  0039                     	ds	1
   508  003A                     ?___flmul:
   509  003A                     ___flmul@b:	
   510                           ; 4 bytes @ 0x1A
   511                           
   512                           
   513                           ; 4 bytes @ 0x1A
   514  003A                     	ds	4
   515  003E                     ___flmul@a:
   516                           
   517                           ; 4 bytes @ 0x1E
   518  003E                     	ds	4
   519  0042                     ??___flmul:
   520                           
   521                           ; 1 bytes @ 0x22
   522  0042                     	ds	5
   523  0047                     ___flmul@sign:
   524                           
   525                           ; 1 bytes @ 0x27
   526  0047                     	ds	1
   527  0048                     ___flmul@grs:
   528                           
   529                           ; 4 bytes @ 0x28
   530  0048                     	ds	4
   531  004C                     ___flmul@aexp:
   532                           
   533                           ; 1 bytes @ 0x2C
   534  004C                     	ds	1
   535  004D                     ___flmul@bexp:
   536                           
   537                           ; 1 bytes @ 0x2D
   538  004D                     	ds	1
   539  004E                     ___flmul@prod:
   540                           
   541                           ; 4 bytes @ 0x2E
   542  004E                     	ds	4
   543  0052                     ___flmul@temp:
   544                           
   545                           ; 2 bytes @ 0x32
   546  0052                     	ds	2
   547  0054                     ?___fladd:
   548  0054                     ___fladd@b:	
   549                           ; 4 bytes @ 0x34
   550                           
   551                           
   552                           ; 4 bytes @ 0x34
   553  0054                     	ds	4
   554  0058                     ___fladd@a:
   555                           
   556                           ; 4 bytes @ 0x38
   557  0058                     	ds	4
   558  005C                     ??___fladd:
   559                           
   560                           ; 1 bytes @ 0x3C
   561  005C                     	ds	8
   562  0064                     ___fladd@signs:
   563                           
   564                           ; 1 bytes @ 0x44
   565  0064                     	ds	1
   566  0065                     ___fladd@aexp:
   567                           
   568                           ; 1 bytes @ 0x45
   569  0065                     	ds	1
   570  0066                     ___fladd@bexp:
   571                           
   572                           ; 1 bytes @ 0x46
   573  0066                     	ds	1
   574  0067                     ___fladd@grs:
   575                           
   576                           ; 1 bytes @ 0x47
   577  0067                     	ds	1
   578  0068                     ?___fltol:
   579  0068                     ___fltol@f1:	
   580                           ; 4 bytes @ 0x48
   581                           
   582                           
   583                           ; 4 bytes @ 0x48
   584  0068                     	ds	4
   585  006C                     ___fltol@sign1:
   586                           
   587                           ; 1 bytes @ 0x4C
   588  006C                     	ds	1
   589  006D                     ___fltol@exp1:
   590                           
   591                           ; 1 bytes @ 0x4D
   592  006D                     	ds	1
   593  006E                     map@x:
   594                           
   595                           ; 1 bytes @ 0x4E
   596  006E                     	ds	1
   597                           
   598                           	psect	maintext
   599  0DB8                     __pmaintext:	
   600 ;;
   601 ;;Main: autosize = 0, tempsize = 2, incstack = 0, save=0
   602 ;;
   603 ;; *************** function _main *****************
   604 ;; Defined at:
   605 ;;		line 133 in file "main_master.c"
   606 ;; Parameters:    Size  Location     Type
   607 ;;		None
   608 ;; Auto vars:     Size  Location     Type
   609 ;;  j               2   24[BANK1 ] int 
   610 ;;  i               2   22[BANK1 ] int 
   611 ;; Return value:  Size  Location     Type
   612 ;;                  1    wreg      void 
   613 ;; Registers used:
   614 ;;		wreg, fsr0l, fsr0h, status,2, status,0, btemp+1, pclath, cstack
   615 ;; Tracked objects:
   616 ;;		On entry : B00/0
   617 ;;		On exit  : 0/0
   618 ;;		Unchanged: 0/0
   619 ;; Data sizes:     COMMON   BANK0   BANK1   BANK3   BANK2
   620 ;;      Params:         0       0       0       0       0
   621 ;;      Locals:         0       0       4       0       0
   622 ;;      Temps:          0       0       2       0       0
   623 ;;      Totals:         0       0       6       0       0
   624 ;;Total ram usage:        6 bytes
   625 ;; Hardware stack levels required when called: 5
   626 ;; This function calls:
   627 ;;		_read_EEPROM
   628 ;;		_setup
   629 ;;		_write_EEPROM
   630 ;; This function is called by:
   631 ;;		Startup code after reset
   632 ;; This function uses a non-reentrant model
   633 ;;
   634                           
   635  0DB8                     _main:	
   636                           ;psect for function _main
   637                           
   638  0DB8                     l2703:	
   639                           ;incstack = 0
   640                           ; Regs used in _main: [wreg-fsr0h+status,2+status,0+btemp+1+pclath+cstack]
   641                           
   642                           
   643                           ;main_master.c: 134:     setup();
   644  0DB8  120A  158A  2253  120A  158A  	fcall	_setup
   645  0DBD                     l2705:
   646                           
   647                           ;main_master.c: 137:         PORTE = MODO;
   648  0DBD  1683               	bsf	3,5	;RP0=1, select bank1
   649  0DBE  1303               	bcf	3,6	;RP1=0, select bank1
   650  0DBF  0847               	movf	_MODO^(0+128),w
   651  0DC0  1283               	bcf	3,5	;RP0=0, select bank0
   652  0DC1  1303               	bcf	3,6	;RP1=0, select bank0
   653  0DC2  0089               	movwf	9	;volatile
   654                           
   655                           ;main_master.c: 139:         switch(MODO){
   656  0DC3  2FE7               	goto	l2815
   657  0DC4                     l169:	
   658                           ;main_master.c: 140:             case 0:
   659                           
   660                           
   661                           ;main_master.c: 142:                 if(ADCON0bits.GO == 0){
   662  0DC4  1283               	bcf	3,5	;RP0=0, select bank0
   663  0DC5  1303               	bcf	3,6	;RP1=0, select bank0
   664  0DC6  189F               	btfsc	31,1	;volatile
   665  0DC7  2DC9               	goto	u3211
   666  0DC8  2DCA               	goto	u3210
   667  0DC9                     u3211:
   668  0DC9  2E33               	goto	l2735
   669  0DCA                     u3210:
   670  0DCA                     l2707:
   671                           
   672                           ;main_master.c: 143:                     if(ADCON0bits.CHS == 0){
   673  0DCA  0C1F               	rrf	31,w	;volatile
   674  0DCB  1683               	bsf	3,5	;RP0=1, select bank1
   675  0DCC  1303               	bcf	3,6	;RP1=0, select bank1
   676  0DCD  00B4               	movwf	??_main^(0+128)
   677  0DCE  0C34               	rrf	??_main^(0+128),w
   678  0DCF  390F               	andlw	15
   679  0DD0  3A00               	xorlw	0
   680  0DD1  1D03               	skipz
   681  0DD2  2DD4               	goto	u3221
   682  0DD3  2DD5               	goto	u3220
   683  0DD4                     u3221:
   684  0DD4  2DE0               	goto	l2713
   685  0DD5                     u3220:
   686  0DD5                     l2709:
   687                           
   688                           ;main_master.c: 144:                         ADCON0bits.CHS = 1;
   689  0DD5  1283               	bcf	3,5	;RP0=0, select bank0
   690  0DD6  1303               	bcf	3,6	;RP1=0, select bank0
   691  0DD7  081F               	movf	31,w	;volatile
   692  0DD8  39C3               	andlw	-61
   693  0DD9  3804               	iorlw	4
   694  0DDA  009F               	movwf	31	;volatile
   695  0DDB                     l2711:
   696                           
   697                           ;main_master.c: 145:                         canal = 1;
   698  0DDB  1683               	bsf	3,5	;RP0=1, select bank1
   699  0DDC  1303               	bcf	3,6	;RP1=0, select bank1
   700  0DDD  01C9               	clrf	_canal^(0+128)
   701  0DDE  0AC9               	incf	_canal^(0+128),f
   702                           
   703                           ;main_master.c: 146:                     }
   704  0DDF  2E29               	goto	l2731
   705  0DE0                     l2713:
   706  0DE0  1283               	bcf	3,5	;RP0=0, select bank0
   707  0DE1  1303               	bcf	3,6	;RP1=0, select bank0
   708  0DE2  0C1F               	rrf	31,w	;volatile
   709  0DE3  1683               	bsf	3,5	;RP0=1, select bank1
   710  0DE4  1303               	bcf	3,6	;RP1=0, select bank1
   711  0DE5  00B4               	movwf	??_main^(0+128)
   712  0DE6  0C34               	rrf	??_main^(0+128),w
   713  0DE7  390F               	andlw	15
   714  0DE8  3A01               	xorlw	1
   715  0DE9  1D03               	skipz
   716  0DEA  2DEC               	goto	u3231
   717  0DEB  2DED               	goto	u3230
   718  0DEC                     u3231:
   719  0DEC  2DFA               	goto	l2719
   720  0DED                     u3230:
   721  0DED                     l2715:
   722                           
   723                           ;main_master.c: 148:                         ADCON0bits.CHS = 2;
   724  0DED  1283               	bcf	3,5	;RP0=0, select bank0
   725  0DEE  1303               	bcf	3,6	;RP1=0, select bank0
   726  0DEF  081F               	movf	31,w	;volatile
   727  0DF0  39C3               	andlw	-61
   728  0DF1  3808               	iorlw	8
   729  0DF2  009F               	movwf	31	;volatile
   730  0DF3                     l2717:
   731                           
   732                           ;main_master.c: 149:                         canal = 2;
   733  0DF3  3002               	movlw	2
   734  0DF4  1683               	bsf	3,5	;RP0=1, select bank1
   735  0DF5  1303               	bcf	3,6	;RP1=0, select bank1
   736  0DF6  00B4               	movwf	??_main^(0+128)
   737  0DF7  0834               	movf	??_main^(0+128),w
   738  0DF8  00C9               	movwf	_canal^(0+128)
   739                           
   740                           ;main_master.c: 150:                     }
   741  0DF9  2E29               	goto	l2731
   742  0DFA                     l2719:
   743  0DFA  1283               	bcf	3,5	;RP0=0, select bank0
   744  0DFB  1303               	bcf	3,6	;RP1=0, select bank0
   745  0DFC  0C1F               	rrf	31,w	;volatile
   746  0DFD  1683               	bsf	3,5	;RP0=1, select bank1
   747  0DFE  1303               	bcf	3,6	;RP1=0, select bank1
   748  0DFF  00B4               	movwf	??_main^(0+128)
   749  0E00  0C34               	rrf	??_main^(0+128),w
   750  0E01  390F               	andlw	15
   751  0E02  3A02               	xorlw	2
   752  0E03  1D03               	skipz
   753  0E04  2E06               	goto	u3241
   754  0E05  2E07               	goto	u3240
   755  0E06                     u3241:
   756  0E06  2E14               	goto	l2725
   757  0E07                     u3240:
   758  0E07                     l2721:
   759                           
   760                           ;main_master.c: 152:                         ADCON0bits.CHS = 3;
   761  0E07  1283               	bcf	3,5	;RP0=0, select bank0
   762  0E08  1303               	bcf	3,6	;RP1=0, select bank0
   763  0E09  081F               	movf	31,w	;volatile
   764  0E0A  39C3               	andlw	-61
   765  0E0B  380C               	iorlw	12
   766  0E0C  009F               	movwf	31	;volatile
   767  0E0D                     l2723:
   768                           
   769                           ;main_master.c: 153:                         canal = 3;
   770  0E0D  3003               	movlw	3
   771  0E0E  1683               	bsf	3,5	;RP0=1, select bank1
   772  0E0F  1303               	bcf	3,6	;RP1=0, select bank1
   773  0E10  00B4               	movwf	??_main^(0+128)
   774  0E11  0834               	movf	??_main^(0+128),w
   775  0E12  00C9               	movwf	_canal^(0+128)
   776                           
   777                           ;main_master.c: 154:                     }
   778  0E13  2E29               	goto	l2731
   779  0E14                     l2725:
   780  0E14  1283               	bcf	3,5	;RP0=0, select bank0
   781  0E15  1303               	bcf	3,6	;RP1=0, select bank0
   782  0E16  0C1F               	rrf	31,w	;volatile
   783  0E17  1683               	bsf	3,5	;RP0=1, select bank1
   784  0E18  1303               	bcf	3,6	;RP1=0, select bank1
   785  0E19  00B4               	movwf	??_main^(0+128)
   786  0E1A  0C34               	rrf	??_main^(0+128),w
   787  0E1B  390F               	andlw	15
   788  0E1C  3A03               	xorlw	3
   789  0E1D  1D03               	skipz
   790  0E1E  2E20               	goto	u3251
   791  0E1F  2E21               	goto	u3250
   792  0E20                     u3251:
   793  0E20  2E29               	goto	l174
   794  0E21                     u3250:
   795  0E21                     l2727:
   796                           
   797                           ;main_master.c: 156:                         ADCON0bits.CHS = 0;
   798  0E21  30C3               	movlw	-61
   799  0E22  1283               	bcf	3,5	;RP0=0, select bank0
   800  0E23  1303               	bcf	3,6	;RP1=0, select bank0
   801  0E24  059F               	andwf	31,f	;volatile
   802  0E25                     l2729:
   803                           
   804                           ;main_master.c: 157:                         canal = 0;
   805  0E25  1683               	bsf	3,5	;RP0=1, select bank1
   806  0E26  1303               	bcf	3,6	;RP1=0, select bank1
   807  0E27  01C9               	clrf	_canal^(0+128)
   808  0E28  2E29               	goto	l2731
   809  0E29                     l174:
   810  0E29                     l2731:
   811                           
   812                           ;main_master.c: 159:                         _delay((unsigned long)((40)*(1000000/400000
      +                          0.0)));
   813  0E29  3002               	movlw	2
   814  0E2A  1683               	bsf	3,5	;RP0=1, select bank1
   815  0E2B  1303               	bcf	3,6	;RP1=0, select bank1
   816  0E2C  00B4               	movwf	??_main^(0+128)
   817  0E2D                     u3437:
   818  0E2D  0BB4               	decfsz	??_main^(0+128),f
   819  0E2E  2E2D               	goto	u3437
   820  0E2F  0000               	nop
   821  0E30                     l2733:
   822                           
   823                           ;main_master.c: 160:                     ADCON0bits.GO = 1;
   824  0E30  1283               	bcf	3,5	;RP0=0, select bank0
   825  0E31  1303               	bcf	3,6	;RP1=0, select bank0
   826  0E32  149F               	bsf	31,1	;volatile
   827  0E33                     l2735:
   828                           
   829                           ;main_master.c: 164:                 SSPBUF = POT1_slave;
   830  0E33  1683               	bsf	3,5	;RP0=1, select bank1
   831  0E34  1303               	bcf	3,6	;RP1=0, select bank1
   832  0E35  084D               	movf	_POT1_slave^(0+128),w
   833  0E36  1283               	bcf	3,5	;RP0=0, select bank0
   834  0E37  1303               	bcf	3,6	;RP1=0, select bank0
   835  0E38  0093               	movwf	19	;volatile
   836  0E39                     l178:	
   837                           ;main_master.c: 165:                 while(!SSPSTATbits.BF){}
   838                           
   839  0E39  1683               	bsf	3,5	;RP0=1, select bank1
   840  0E3A  1303               	bcf	3,6	;RP1=0, select bank1
   841  0E3B  1C14               	btfss	20,0	;volatile
   842  0E3C  2E3E               	goto	u3261
   843  0E3D  2E3F               	goto	u3260
   844  0E3E                     u3261:
   845  0E3E  2E39               	goto	l178
   846  0E3F                     u3260:
   847  0E3F                     l2737:
   848                           
   849                           ;main_master.c: 166:                 _delay((unsigned long)((40)*(1000000/4000.0)));
   850  0E3F  300D               	movlw	13
   851  0E40  1683               	bsf	3,5	;RP0=1, select bank1
   852  0E41  1303               	bcf	3,6	;RP1=0, select bank1
   853  0E42  00B5               	movwf	(??_main^(0+128)+1)
   854  0E43  30FB               	movlw	251
   855  0E44  00B4               	movwf	??_main^(0+128)
   856  0E45                     u3447:
   857  0E45  0BB4               	decfsz	??_main^(0+128),f
   858  0E46  2E45               	goto	u3447
   859  0E47  0BB5               	decfsz	(??_main^(0+128)+1),f
   860  0E48  2E45               	goto	u3447
   861                           
   862                           ;main_master.c: 169:                 SSPBUF = POT2_slave;
   863  0E49  1683               	bsf	3,5	;RP0=1, select bank1
   864  0E4A  1303               	bcf	3,6	;RP1=0, select bank1
   865  0E4B  084C               	movf	_POT2_slave^(0+128),w
   866  0E4C  1283               	bcf	3,5	;RP0=0, select bank0
   867  0E4D  1303               	bcf	3,6	;RP1=0, select bank0
   868  0E4E  0093               	movwf	19	;volatile
   869  0E4F                     l181:	
   870                           ;main_master.c: 170:                 while(!SSPSTATbits.BF){}
   871                           
   872  0E4F  1683               	bsf	3,5	;RP0=1, select bank1
   873  0E50  1303               	bcf	3,6	;RP1=0, select bank1
   874  0E51  1C14               	btfss	20,0	;volatile
   875  0E52  2E54               	goto	u3271
   876  0E53  2E55               	goto	u3270
   877  0E54                     u3271:
   878  0E54  2E4F               	goto	l181
   879  0E55                     u3270:
   880  0E55                     l2739:
   881                           
   882                           ;main_master.c: 171:                 _delay((unsigned long)((40)*(1000000/4000.0)));
   883  0E55  300D               	movlw	13
   884  0E56  1683               	bsf	3,5	;RP0=1, select bank1
   885  0E57  1303               	bcf	3,6	;RP1=0, select bank1
   886  0E58  00B5               	movwf	(??_main^(0+128)+1)
   887  0E59  30FB               	movlw	251
   888  0E5A  00B4               	movwf	??_main^(0+128)
   889  0E5B                     u3457:
   890  0E5B  0BB4               	decfsz	??_main^(0+128),f
   891  0E5C  2E5B               	goto	u3457
   892  0E5D  0BB5               	decfsz	(??_main^(0+128)+1),f
   893  0E5E  2E5B               	goto	u3457
   894  0E5F                     l2741:
   895                           
   896                           ;main_master.c: 173:                 if (write_fg){
   897  0E5F  1683               	bsf	3,5	;RP0=1, select bank1
   898  0E60  1303               	bcf	3,6	;RP1=0, select bank1
   899  0E61  0846               	movf	_write_fg^(0+128),w
   900  0E62  1903               	btfsc	3,2
   901  0E63  2E65               	goto	u3281
   902  0E64  2E66               	goto	u3280
   903  0E65                     u3281:
   904  0E65  2DBD               	goto	l2705
   905  0E66                     u3280:
   906  0E66                     l2743:
   907                           
   908                           ;main_master.c: 174:                     for (int i=0; i<4; ++i){
   909  0E66  01B6               	clrf	main@i^(0+128)
   910  0E67  01B7               	clrf	(main@i+1)^(0+128)
   911  0E68                     l2749:
   912                           
   913                           ;main_master.c: 175:                         write_EEPROM(address, (uint8_t)array[i]);
   914  0E68  1683               	bsf	3,5	;RP0=1, select bank1
   915  0E69  1303               	bcf	3,6	;RP1=0, select bank1
   916  0E6A  0836               	movf	main@i^(0+128),w
   917  0E6B  3EBA               	addlw	(low (_array| 0))& (0+255)
   918  0E6C  0084               	movwf	4
   919  0E6D  1383               	bcf	3,7	;select IRP bank1
   920  0E6E  0800               	movf	0,w
   921  0E6F  00B4               	movwf	??_main^(0+128)
   922  0E70  0834               	movf	??_main^(0+128),w
   923  0E71  00B2               	movwf	write_EEPROM@data^(0+128)
   924  0E72  0848               	movf	_address^(0+128),w
   925  0E73  120A  158A  2175  120A  158A  	fcall	_write_EEPROM
   926  0E78                     l2751:
   927                           
   928                           ;main_master.c: 176:                         _delay((unsigned long)((25)*(1000000/4000.0
      +                          )));
   929  0E78  3009               	movlw	9
   930  0E79  1683               	bsf	3,5	;RP0=1, select bank1
   931  0E7A  1303               	bcf	3,6	;RP1=0, select bank1
   932  0E7B  00B5               	movwf	(??_main^(0+128)+1)
   933  0E7C  301B               	movlw	27
   934  0E7D  00B4               	movwf	??_main^(0+128)
   935  0E7E                     u3467:
   936  0E7E  0BB4               	decfsz	??_main^(0+128),f
   937  0E7F  2E7E               	goto	u3467
   938  0E80  0BB5               	decfsz	(??_main^(0+128)+1),f
   939  0E81  2E7E               	goto	u3467
   940  0E82  2E83               	nop2
   941  0E83                     l2753:
   942                           
   943                           ;main_master.c: 177:                         address++;
   944  0E83  3001               	movlw	1
   945  0E84  1683               	bsf	3,5	;RP0=1, select bank1
   946  0E85  1303               	bcf	3,6	;RP1=0, select bank1
   947  0E86  00B4               	movwf	??_main^(0+128)
   948  0E87  0834               	movf	??_main^(0+128),w
   949  0E88  07C8               	addwf	_address^(0+128),f
   950  0E89                     l2755:
   951                           
   952                           ;main_master.c: 178:                     }
   953  0E89  3001               	movlw	1
   954  0E8A  07B6               	addwf	main@i^(0+128),f
   955  0E8B  1803               	skipnc
   956  0E8C  0AB7               	incf	(main@i+1)^(0+128),f
   957  0E8D  3000               	movlw	0
   958  0E8E  07B7               	addwf	(main@i+1)^(0+128),f
   959  0E8F                     l2757:
   960  0E8F  0837               	movf	(main@i+1)^(0+128),w
   961  0E90  3A80               	xorlw	128
   962  0E91  00FF               	movwf	btemp+1
   963  0E92  3080               	movlw	128
   964  0E93  027F               	subwf	btemp+1,w
   965  0E94  1D03               	skipz
   966  0E95  2E98               	goto	u3295
   967  0E96  3004               	movlw	4
   968  0E97  0236               	subwf	main@i^(0+128),w
   969  0E98                     u3295:
   970  0E98  1C03               	skipc
   971  0E99  2E9B               	goto	u3291
   972  0E9A  2E9C               	goto	u3290
   973  0E9B                     u3291:
   974  0E9B  2E68               	goto	l2749
   975  0E9C                     u3290:
   976  0E9C                     l2759:
   977                           
   978                           ;main_master.c: 179:                     write_fg = 0;
   979  0E9C  1683               	bsf	3,5	;RP0=1, select bank1
   980  0E9D  1303               	bcf	3,6	;RP1=0, select bank1
   981  0E9E  01C6               	clrf	_write_fg^(0+128)
   982  0E9F  2DBD               	goto	l2705
   983  0EA0                     l2761:
   984                           
   985                           ;main_master.c: 185:                 if (read_fg){
   986  0EA0  0845               	movf	_read_fg^(0+128),w
   987  0EA1  1903               	btfsc	3,2
   988  0EA2  2EA4               	goto	u3301
   989  0EA3  2EA5               	goto	u3300
   990  0EA4                     u3301:
   991  0EA4  2DBD               	goto	l2705
   992  0EA5                     u3300:
   993  0EA5                     l2763:
   994                           
   995                           ;main_master.c: 186:                     for (int j=0; j<4; ++j){
   996  0EA5  01B8               	clrf	main@j^(0+128)
   997  0EA6  01B9               	clrf	(main@j+1)^(0+128)
   998  0EA7                     l2769:
   999                           
  1000                           ;main_master.c: 187:                         array[j] = read_EEPROM(address);
  1001  0EA7  1683               	bsf	3,5	;RP0=1, select bank1
  1002  0EA8  1303               	bcf	3,6	;RP1=0, select bank1
  1003  0EA9  0848               	movf	_address^(0+128),w
  1004  0EAA  120A  118A  27EB  120A  158A  	fcall	_read_EEPROM
  1005  0EAF  1683               	bsf	3,5	;RP0=1, select bank1
  1006  0EB0  1303               	bcf	3,6	;RP1=0, select bank1
  1007  0EB1  00B4               	movwf	??_main^(0+128)
  1008  0EB2  0838               	movf	main@j^(0+128),w
  1009  0EB3  3EBA               	addlw	(low (_array| 0))& (0+255)
  1010  0EB4  0084               	movwf	4
  1011  0EB5  0834               	movf	??_main^(0+128),w
  1012  0EB6  1383               	bcf	3,7	;select IRP bank1
  1013  0EB7  0080               	movwf	0
  1014  0EB8                     l2771:
  1015                           
  1016                           ;main_master.c: 188:                         _delay((unsigned long)((25)*(1000000/4000.0
      +                          )));
  1017  0EB8  3009               	movlw	9
  1018  0EB9  1683               	bsf	3,5	;RP0=1, select bank1
  1019  0EBA  1303               	bcf	3,6	;RP1=0, select bank1
  1020  0EBB  00B5               	movwf	(??_main^(0+128)+1)
  1021  0EBC  301B               	movlw	27
  1022  0EBD  00B4               	movwf	??_main^(0+128)
  1023  0EBE                     u3477:
  1024  0EBE  0BB4               	decfsz	??_main^(0+128),f
  1025  0EBF  2EBE               	goto	u3477
  1026  0EC0  0BB5               	decfsz	(??_main^(0+128)+1),f
  1027  0EC1  2EBE               	goto	u3477
  1028  0EC2  2EC3               	nop2
  1029  0EC3                     l2773:
  1030                           
  1031                           ;main_master.c: 189:                         address++;
  1032  0EC3  3001               	movlw	1
  1033  0EC4  1683               	bsf	3,5	;RP0=1, select bank1
  1034  0EC5  1303               	bcf	3,6	;RP1=0, select bank1
  1035  0EC6  00B4               	movwf	??_main^(0+128)
  1036  0EC7  0834               	movf	??_main^(0+128),w
  1037  0EC8  07C8               	addwf	_address^(0+128),f
  1038  0EC9                     l2775:
  1039                           
  1040                           ;main_master.c: 190:                     }
  1041  0EC9  3001               	movlw	1
  1042  0ECA  07B8               	addwf	main@j^(0+128),f
  1043  0ECB  1803               	skipnc
  1044  0ECC  0AB9               	incf	(main@j+1)^(0+128),f
  1045  0ECD  3000               	movlw	0
  1046  0ECE  07B9               	addwf	(main@j+1)^(0+128),f
  1047  0ECF                     l2777:
  1048  0ECF  0839               	movf	(main@j+1)^(0+128),w
  1049  0ED0  3A80               	xorlw	128
  1050  0ED1  00FF               	movwf	btemp+1
  1051  0ED2  3080               	movlw	128
  1052  0ED3  027F               	subwf	btemp+1,w
  1053  0ED4  1D03               	skipz
  1054  0ED5  2ED8               	goto	u3315
  1055  0ED6  3004               	movlw	4
  1056  0ED7  0238               	subwf	main@j^(0+128),w
  1057  0ED8                     u3315:
  1058  0ED8  1C03               	skipc
  1059  0ED9  2EDB               	goto	u3311
  1060  0EDA  2EDC               	goto	u3310
  1061  0EDB                     u3311:
  1062  0EDB  2EA7               	goto	l2769
  1063  0EDC                     u3310:
  1064  0EDC                     l2779:
  1065                           
  1066                           ;main_master.c: 193:                     CCPR1L = (array[0]>>2);
  1067  0EDC  1683               	bsf	3,5	;RP0=1, select bank1
  1068  0EDD  1303               	bcf	3,6	;RP1=0, select bank1
  1069  0EDE  083A               	movf	_array^(0+128),w
  1070  0EDF  00B4               	movwf	??_main^(0+128)
  1071  0EE0  3002               	movlw	2
  1072  0EE1                     u3325:
  1073  0EE1  1003               	clrc
  1074  0EE2  0CB4               	rrf	??_main^(0+128),f
  1075  0EE3  3EFF               	addlw	-1
  1076  0EE4  1D03               	skipz
  1077  0EE5  2EE1               	goto	u3325
  1078  0EE6  0834               	movf	??_main^(0+128),w
  1079  0EE7  1283               	bcf	3,5	;RP0=0, select bank0
  1080  0EE8  1303               	bcf	3,6	;RP1=0, select bank0
  1081  0EE9  0095               	movwf	21	;volatile
  1082                           
  1083                           ;main_master.c: 194:                     CCP1CONbits.DC1B = array[0] & 0b11;
  1084  0EEA  1683               	bsf	3,5	;RP0=1, select bank1
  1085  0EEB  1303               	bcf	3,6	;RP1=0, select bank1
  1086  0EEC  083A               	movf	_array^(0+128),w
  1087  0EED  3903               	andlw	3
  1088  0EEE  00B4               	movwf	??_main^(0+128)
  1089  0EEF  0EB4               	swapf	??_main^(0+128),f
  1090  0EF0  1283               	bcf	3,5	;RP0=0, select bank0
  1091  0EF1  1303               	bcf	3,6	;RP1=0, select bank0
  1092  0EF2  0817               	movf	23,w	;volatile
  1093  0EF3  1683               	bsf	3,5	;RP0=1, select bank1
  1094  0EF4  1303               	bcf	3,6	;RP1=0, select bank1
  1095  0EF5  0634               	xorwf	??_main^(0+128),w
  1096  0EF6  39CF               	andlw	-49
  1097  0EF7  0634               	xorwf	??_main^(0+128),w
  1098  0EF8  1283               	bcf	3,5	;RP0=0, select bank0
  1099  0EF9  1303               	bcf	3,6	;RP1=0, select bank0
  1100  0EFA  0097               	movwf	23	;volatile
  1101                           
  1102                           ;main_master.c: 197:                     CCPR2L = (array[1]>>2);
  1103  0EFB  1683               	bsf	3,5	;RP0=1, select bank1
  1104  0EFC  1303               	bcf	3,6	;RP1=0, select bank1
  1105  0EFD  083B               	movf	(_array^(0+128)+1),w
  1106  0EFE  00B4               	movwf	??_main^(0+128)
  1107  0EFF  3002               	movlw	2
  1108  0F00                     u3335:
  1109  0F00  1003               	clrc
  1110  0F01  0CB4               	rrf	??_main^(0+128),f
  1111  0F02  3EFF               	addlw	-1
  1112  0F03  1D03               	skipz
  1113  0F04  2F00               	goto	u3335
  1114  0F05  0834               	movf	??_main^(0+128),w
  1115  0F06  1283               	bcf	3,5	;RP0=0, select bank0
  1116  0F07  1303               	bcf	3,6	;RP1=0, select bank0
  1117  0F08  009B               	movwf	27	;volatile
  1118                           
  1119                           ;main_master.c: 198:                     CCP2CONbits.DC2B0 = array[1] & 0b01;
  1120  0F09  1683               	bsf	3,5	;RP0=1, select bank1
  1121  0F0A  1303               	bcf	3,6	;RP1=0, select bank1
  1122  0F0B  083B               	movf	(_array^(0+128)+1),w
  1123  0F0C  3901               	andlw	1
  1124  0F0D  00B4               	movwf	??_main^(0+128)
  1125  0F0E  0EB4               	swapf	??_main^(0+128),f
  1126  0F0F  1283               	bcf	3,5	;RP0=0, select bank0
  1127  0F10  1303               	bcf	3,6	;RP1=0, select bank0
  1128  0F11  081D               	movf	29,w	;volatile
  1129  0F12  1683               	bsf	3,5	;RP0=1, select bank1
  1130  0F13  1303               	bcf	3,6	;RP1=0, select bank1
  1131  0F14  0634               	xorwf	??_main^(0+128),w
  1132  0F15  39EF               	andlw	-17
  1133  0F16  0634               	xorwf	??_main^(0+128),w
  1134  0F17  1283               	bcf	3,5	;RP0=0, select bank0
  1135  0F18  1303               	bcf	3,6	;RP1=0, select bank0
  1136  0F19  009D               	movwf	29	;volatile
  1137                           
  1138                           ;main_master.c: 199:                     CCP2CONbits.DC2B0 = (array[1] & 0b10)>>1;
  1139  0F1A  1683               	bsf	3,5	;RP0=1, select bank1
  1140  0F1B  1303               	bcf	3,6	;RP1=0, select bank1
  1141  0F1C  083B               	movf	(_array^(0+128)+1),w
  1142  0F1D  00B4               	movwf	??_main^(0+128)
  1143  0F1E  1003               	clrc
  1144  0F1F  0C34               	rrf	??_main^(0+128),w
  1145  0F20  3901               	andlw	1
  1146  0F21  00B5               	movwf	(??_main+1)^(0+128)
  1147  0F22  0EB5               	swapf	(??_main+1)^(0+128),f
  1148  0F23  1283               	bcf	3,5	;RP0=0, select bank0
  1149  0F24  1303               	bcf	3,6	;RP1=0, select bank0
  1150  0F25  081D               	movf	29,w	;volatile
  1151  0F26  1683               	bsf	3,5	;RP0=1, select bank1
  1152  0F27  1303               	bcf	3,6	;RP1=0, select bank1
  1153  0F28  0635               	xorwf	(??_main+1)^(0+128),w
  1154  0F29  39EF               	andlw	-17
  1155  0F2A  0635               	xorwf	(??_main+1)^(0+128),w
  1156  0F2B  1283               	bcf	3,5	;RP0=0, select bank0
  1157  0F2C  1303               	bcf	3,6	;RP1=0, select bank0
  1158  0F2D  009D               	movwf	29	;volatile
  1159  0F2E                     l2781:
  1160                           
  1161                           ;main_master.c: 202:                     SSPBUF = array[2];
  1162  0F2E  1683               	bsf	3,5	;RP0=1, select bank1
  1163  0F2F  1303               	bcf	3,6	;RP1=0, select bank1
  1164  0F30  083C               	movf	(_array^(0+128)+2),w
  1165  0F31  1283               	bcf	3,5	;RP0=0, select bank0
  1166  0F32  1303               	bcf	3,6	;RP1=0, select bank0
  1167  0F33  0093               	movwf	19	;volatile
  1168  0F34                     l192:	
  1169                           ;main_master.c: 203:                     while(!SSPSTATbits.BF){}
  1170                           
  1171  0F34  1683               	bsf	3,5	;RP0=1, select bank1
  1172  0F35  1303               	bcf	3,6	;RP1=0, select bank1
  1173  0F36  1C14               	btfss	20,0	;volatile
  1174  0F37  2F39               	goto	u3341
  1175  0F38  2F3A               	goto	u3340
  1176  0F39                     u3341:
  1177  0F39  2F34               	goto	l192
  1178  0F3A                     u3340:
  1179  0F3A                     l2783:
  1180                           
  1181                           ;main_master.c: 204:                     _delay((unsigned long)((40)*(1000000/4000.0)));
  1182  0F3A  300D               	movlw	13
  1183  0F3B  1683               	bsf	3,5	;RP0=1, select bank1
  1184  0F3C  1303               	bcf	3,6	;RP1=0, select bank1
  1185  0F3D  00B5               	movwf	(??_main^(0+128)+1)
  1186  0F3E  30FB               	movlw	251
  1187  0F3F  00B4               	movwf	??_main^(0+128)
  1188  0F40                     u3487:
  1189  0F40  0BB4               	decfsz	??_main^(0+128),f
  1190  0F41  2F40               	goto	u3487
  1191  0F42  0BB5               	decfsz	(??_main^(0+128)+1),f
  1192  0F43  2F40               	goto	u3487
  1193                           
  1194                           ;main_master.c: 207:                     SSPBUF = array[3];
  1195  0F44  1683               	bsf	3,5	;RP0=1, select bank1
  1196  0F45  1303               	bcf	3,6	;RP1=0, select bank1
  1197  0F46  083D               	movf	(_array^(0+128)+3),w
  1198  0F47  1283               	bcf	3,5	;RP0=0, select bank0
  1199  0F48  1303               	bcf	3,6	;RP1=0, select bank0
  1200  0F49  0093               	movwf	19	;volatile
  1201  0F4A                     l195:	
  1202                           ;main_master.c: 208:                     while(!SSPSTATbits.BF){}
  1203                           
  1204  0F4A  1683               	bsf	3,5	;RP0=1, select bank1
  1205  0F4B  1303               	bcf	3,6	;RP1=0, select bank1
  1206  0F4C  1C14               	btfss	20,0	;volatile
  1207  0F4D  2F4F               	goto	u3351
  1208  0F4E  2F50               	goto	u3350
  1209  0F4F                     u3351:
  1210  0F4F  2F4A               	goto	l195
  1211  0F50                     u3350:
  1212  0F50                     l2785:
  1213                           
  1214                           ;main_master.c: 209:                     _delay((unsigned long)((40)*(1000000/4000.0)));
  1215  0F50  300D               	movlw	13
  1216  0F51  1683               	bsf	3,5	;RP0=1, select bank1
  1217  0F52  1303               	bcf	3,6	;RP1=0, select bank1
  1218  0F53  00B5               	movwf	(??_main^(0+128)+1)
  1219  0F54  30FB               	movlw	251
  1220  0F55  00B4               	movwf	??_main^(0+128)
  1221  0F56                     u3497:
  1222  0F56  0BB4               	decfsz	??_main^(0+128),f
  1223  0F57  2F56               	goto	u3497
  1224  0F58  0BB5               	decfsz	(??_main^(0+128)+1),f
  1225  0F59  2F56               	goto	u3497
  1226  0F5A                     l2787:
  1227                           
  1228                           ;main_master.c: 211:                     read_fg = 0;
  1229  0F5A  1683               	bsf	3,5	;RP0=1, select bank1
  1230  0F5B  1303               	bcf	3,6	;RP1=0, select bank1
  1231  0F5C  01C5               	clrf	_read_fg^(0+128)
  1232  0F5D  2DBD               	goto	l2705
  1233  0F5E                     l2789:
  1234                           
  1235                           ;main_master.c: 217:                 if (SERIAL == 0 || SERIAL == 1){
  1236  0F5E  084B               	movf	_SERIAL^(0+128),w
  1237  0F5F  1903               	btfsc	3,2
  1238  0F60  2F62               	goto	u3361
  1239  0F61  2F63               	goto	u3360
  1240  0F62                     u3361:
  1241  0F62  2F68               	goto	l201
  1242  0F63                     u3360:
  1243  0F63                     l2791:
  1244  0F63  034B               	decf	_SERIAL^(0+128),w
  1245  0F64  1D03               	btfss	3,2
  1246  0F65  2F67               	goto	u3371
  1247  0F66  2F68               	goto	u3370
  1248  0F67                     u3371:
  1249  0F67  2F6F               	goto	l2795
  1250  0F68                     u3370:
  1251  0F68                     l201:
  1252                           
  1253                           ;main_master.c: 218:                     flag = 1;
  1254  0F68  01C2               	clrf	_flag^(0+128)
  1255  0F69  0AC2               	incf	_flag^(0+128),f
  1256  0F6A                     l2793:
  1257                           
  1258                           ;main_master.c: 219:                     selector = SERIAL;
  1259  0F6A  084B               	movf	_SERIAL^(0+128),w
  1260  0F6B  00B4               	movwf	??_main^(0+128)
  1261  0F6C  0834               	movf	??_main^(0+128),w
  1262  0F6D  00C4               	movwf	_selector^(0+128)
  1263                           
  1264                           ;main_master.c: 220:                 }
  1265  0F6E  2F81               	goto	l2803
  1266  0F6F                     l2795:
  1267  0F6F  3002               	movlw	2
  1268  0F70  064B               	xorwf	_SERIAL^(0+128),w
  1269  0F71  1903               	btfsc	3,2
  1270  0F72  2F74               	goto	u3381
  1271  0F73  2F75               	goto	u3380
  1272  0F74                     u3381:
  1273  0F74  2F7B               	goto	l2799
  1274  0F75                     u3380:
  1275  0F75                     l2797:
  1276  0F75  3003               	movlw	3
  1277  0F76  064B               	xorwf	_SERIAL^(0+128),w
  1278  0F77  1D03               	btfss	3,2
  1279  0F78  2F7A               	goto	u3391
  1280  0F79  2F7B               	goto	u3390
  1281  0F7A                     u3391:
  1282  0F7A  2F7D               	goto	l2801
  1283  0F7B                     u3390:
  1284  0F7B                     l2799:
  1285                           
  1286                           ;main_master.c: 222:                     flag = 0;
  1287  0F7B  01C2               	clrf	_flag^(0+128)
  1288                           
  1289                           ;main_master.c: 223:                 }
  1290  0F7C  2F81               	goto	l2803
  1291  0F7D                     l2801:
  1292                           
  1293                           ;main_master.c: 225:                     POTc = SERIAL;
  1294  0F7D  084B               	movf	_SERIAL^(0+128),w
  1295  0F7E  00B4               	movwf	??_main^(0+128)
  1296  0F7F  0834               	movf	??_main^(0+128),w
  1297  0F80  00C3               	movwf	_POTc^(0+128)
  1298  0F81                     l2803:
  1299                           
  1300                           ;main_master.c: 227:                 if (flag){
  1301  0F81  0842               	movf	_flag^(0+128),w
  1302  0F82  1903               	btfsc	3,2
  1303  0F83  2F85               	goto	u3401
  1304  0F84  2F86               	goto	u3400
  1305  0F85                     u3401:
  1306  0F85  2DBD               	goto	l2705
  1307  0F86                     u3400:
  1308  0F86  2FD7               	goto	l2813
  1309  0F87                     l2807:
  1310                           
  1311                           ;main_master.c: 230:                             CCPR1L = (POTc>>2);
  1312  0F87  0843               	movf	_POTc^(0+128),w
  1313  0F88  00B4               	movwf	??_main^(0+128)
  1314  0F89  3002               	movlw	2
  1315  0F8A                     u3415:
  1316  0F8A  1003               	clrc
  1317  0F8B  0CB4               	rrf	??_main^(0+128),f
  1318  0F8C  3EFF               	addlw	-1
  1319  0F8D  1D03               	skipz
  1320  0F8E  2F8A               	goto	u3415
  1321  0F8F  0834               	movf	??_main^(0+128),w
  1322  0F90  1283               	bcf	3,5	;RP0=0, select bank0
  1323  0F91  1303               	bcf	3,6	;RP1=0, select bank0
  1324  0F92  0095               	movwf	21	;volatile
  1325                           
  1326                           ;main_master.c: 231:                             CCP1CONbits.DC1B = POTc & 0b11;;
  1327  0F93  1683               	bsf	3,5	;RP0=1, select bank1
  1328  0F94  1303               	bcf	3,6	;RP1=0, select bank1
  1329  0F95  0843               	movf	_POTc^(0+128),w
  1330  0F96  3903               	andlw	3
  1331  0F97  00B4               	movwf	??_main^(0+128)
  1332  0F98  0EB4               	swapf	??_main^(0+128),f
  1333  0F99  1283               	bcf	3,5	;RP0=0, select bank0
  1334  0F9A  1303               	bcf	3,6	;RP1=0, select bank0
  1335  0F9B  0817               	movf	23,w	;volatile
  1336  0F9C  1683               	bsf	3,5	;RP0=1, select bank1
  1337  0F9D  1303               	bcf	3,6	;RP1=0, select bank1
  1338  0F9E  0634               	xorwf	??_main^(0+128),w
  1339  0F9F  39CF               	andlw	-49
  1340  0FA0  0634               	xorwf	??_main^(0+128),w
  1341  0FA1  1283               	bcf	3,5	;RP0=0, select bank0
  1342  0FA2  1303               	bcf	3,6	;RP1=0, select bank0
  1343  0FA3  0097               	movwf	23	;volatile
  1344                           
  1345                           ;main_master.c: 232:                             break;
  1346  0FA4  2DBD               	goto	l2705
  1347  0FA5                     l2809:
  1348                           
  1349                           ;main_master.c: 234:                             CCPR2L = (POTc>>2);
  1350  0FA5  0843               	movf	_POTc^(0+128),w
  1351  0FA6  00B4               	movwf	??_main^(0+128)
  1352  0FA7  3002               	movlw	2
  1353  0FA8                     u3425:
  1354  0FA8  1003               	clrc
  1355  0FA9  0CB4               	rrf	??_main^(0+128),f
  1356  0FAA  3EFF               	addlw	-1
  1357  0FAB  1D03               	skipz
  1358  0FAC  2FA8               	goto	u3425
  1359  0FAD  0834               	movf	??_main^(0+128),w
  1360  0FAE  1283               	bcf	3,5	;RP0=0, select bank0
  1361  0FAF  1303               	bcf	3,6	;RP1=0, select bank0
  1362  0FB0  009B               	movwf	27	;volatile
  1363                           
  1364                           ;main_master.c: 235:                             CCP2CONbits.DC2B0 = POTc & 0b01;
  1365  0FB1  1683               	bsf	3,5	;RP0=1, select bank1
  1366  0FB2  1303               	bcf	3,6	;RP1=0, select bank1
  1367  0FB3  0843               	movf	_POTc^(0+128),w
  1368  0FB4  3901               	andlw	1
  1369  0FB5  00B4               	movwf	??_main^(0+128)
  1370  0FB6  0EB4               	swapf	??_main^(0+128),f
  1371  0FB7  1283               	bcf	3,5	;RP0=0, select bank0
  1372  0FB8  1303               	bcf	3,6	;RP1=0, select bank0
  1373  0FB9  081D               	movf	29,w	;volatile
  1374  0FBA  1683               	bsf	3,5	;RP0=1, select bank1
  1375  0FBB  1303               	bcf	3,6	;RP1=0, select bank1
  1376  0FBC  0634               	xorwf	??_main^(0+128),w
  1377  0FBD  39EF               	andlw	-17
  1378  0FBE  0634               	xorwf	??_main^(0+128),w
  1379  0FBF  1283               	bcf	3,5	;RP0=0, select bank0
  1380  0FC0  1303               	bcf	3,6	;RP1=0, select bank0
  1381  0FC1  009D               	movwf	29	;volatile
  1382                           
  1383                           ;main_master.c: 236:                             CCP2CONbits.DC2B0 = (POTc & 0b10)>>1;
  1384  0FC2  1683               	bsf	3,5	;RP0=1, select bank1
  1385  0FC3  1303               	bcf	3,6	;RP1=0, select bank1
  1386  0FC4  0843               	movf	_POTc^(0+128),w
  1387  0FC5  00B4               	movwf	??_main^(0+128)
  1388  0FC6  1003               	clrc
  1389  0FC7  0C34               	rrf	??_main^(0+128),w
  1390  0FC8  3901               	andlw	1
  1391  0FC9  00B5               	movwf	(??_main+1)^(0+128)
  1392  0FCA  0EB5               	swapf	(??_main+1)^(0+128),f
  1393  0FCB  1283               	bcf	3,5	;RP0=0, select bank0
  1394  0FCC  1303               	bcf	3,6	;RP1=0, select bank0
  1395  0FCD  081D               	movf	29,w	;volatile
  1396  0FCE  1683               	bsf	3,5	;RP0=1, select bank1
  1397  0FCF  1303               	bcf	3,6	;RP1=0, select bank1
  1398  0FD0  0635               	xorwf	(??_main+1)^(0+128),w
  1399  0FD1  39EF               	andlw	-17
  1400  0FD2  0635               	xorwf	(??_main+1)^(0+128),w
  1401  0FD3  1283               	bcf	3,5	;RP0=0, select bank0
  1402  0FD4  1303               	bcf	3,6	;RP1=0, select bank0
  1403  0FD5  009D               	movwf	29	;volatile
  1404                           
  1405                           ;main_master.c: 237:                             break;
  1406  0FD6  2DBD               	goto	l2705
  1407  0FD7                     l2813:
  1408  0FD7  0844               	movf	_selector^(0+128),w
  1409  0FD8  00B4               	movwf	??_main^(0+128)
  1410  0FD9  01B5               	clrf	(??_main^(0+128)+1)
  1411                           
  1412                           ; Switch on 2 bytes has been partitioned into a top level switch of size 1, and 1 sub-sw
      +                          itches
  1413                           ; Switch size 1, requested type "simple"
  1414                           ; Number of cases is 1, Range of values is 0 to 0
  1415                           ; switch strategies available:
  1416                           ; Name         Instructions Cycles
  1417                           ; simple_byte            4     3 (average)
  1418                           ; direct_byte           11     8 (fixed)
  1419                           ; jumptable            260     6 (fixed)
  1420                           ;	Chosen strategy is simple_byte
  1421  0FDA  0835               	movf	(??_main+1)^(0+128),w
  1422  0FDB  3A00               	xorlw	0	; case 0
  1423  0FDC  1903               	skipnz
  1424  0FDD  2FDF               	goto	l2925
  1425  0FDE  2FFC               	goto	l187
  1426  0FDF                     l2925:
  1427                           
  1428                           ; Switch size 1, requested type "simple"
  1429                           ; Number of cases is 2, Range of values is 0 to 1
  1430                           ; switch strategies available:
  1431                           ; Name         Instructions Cycles
  1432                           ; simple_byte            7     4 (average)
  1433                           ; direct_byte           14     8 (fixed)
  1434                           ; jumptable            260     6 (fixed)
  1435                           ;	Chosen strategy is simple_byte
  1436  0FDF  0834               	movf	??_main^(0+128),w
  1437  0FE0  3A00               	xorlw	0	; case 0
  1438  0FE1  1903               	skipnz
  1439  0FE2  2F87               	goto	l2807
  1440  0FE3  3A01               	xorlw	1	; case 1
  1441  0FE4  1903               	skipnz
  1442  0FE5  2FA5               	goto	l2809
  1443  0FE6  2FFC               	goto	l187
  1444  0FE7                     l2815:
  1445  0FE7  1683               	bsf	3,5	;RP0=1, select bank1
  1446  0FE8  1303               	bcf	3,6	;RP1=0, select bank1
  1447  0FE9  0847               	movf	_MODO^(0+128),w
  1448  0FEA  00B4               	movwf	??_main^(0+128)
  1449  0FEB  01B5               	clrf	(??_main^(0+128)+1)
  1450                           
  1451                           ; Switch on 2 bytes has been partitioned into a top level switch of size 1, and 1 sub-sw
      +                          itches
  1452                           ; Switch size 1, requested type "simple"
  1453                           ; Number of cases is 1, Range of values is 0 to 0
  1454                           ; switch strategies available:
  1455                           ; Name         Instructions Cycles
  1456                           ; simple_byte            4     3 (average)
  1457                           ; direct_byte           11     8 (fixed)
  1458                           ; jumptable            260     6 (fixed)
  1459                           ;	Chosen strategy is simple_byte
  1460  0FEC  0835               	movf	(??_main+1)^(0+128),w
  1461  0FED  3A00               	xorlw	0	; case 0
  1462  0FEE  1903               	skipnz
  1463  0FEF  2FF1               	goto	l2927
  1464  0FF0  2DBD               	goto	l2705
  1465  0FF1                     l2927:
  1466                           
  1467                           ; Switch size 1, requested type "simple"
  1468                           ; Number of cases is 3, Range of values is 0 to 2
  1469                           ; switch strategies available:
  1470                           ; Name         Instructions Cycles
  1471                           ; simple_byte           10     6 (average)
  1472                           ; direct_byte           17     8 (fixed)
  1473                           ; jumptable            260     6 (fixed)
  1474                           ;	Chosen strategy is simple_byte
  1475  0FF1  0834               	movf	??_main^(0+128),w
  1476  0FF2  3A00               	xorlw	0	; case 0
  1477  0FF3  1903               	skipnz
  1478  0FF4  2DC4               	goto	l169
  1479  0FF5  3A01               	xorlw	1	; case 1
  1480  0FF6  1903               	skipnz
  1481  0FF7  2EA0               	goto	l2761
  1482  0FF8  3A03               	xorlw	3	; case 2
  1483  0FF9  1903               	skipnz
  1484  0FFA  2F5E               	goto	l2789
  1485  0FFB  2DBD               	goto	l2705
  1486  0FFC                     l187:
  1487  0FFC  2DBD               	goto	l2705
  1488  0FFD  120A  118A  2812   	ljmp	start
  1489  1000                     __end_of_main:
  1490                           
  1491                           	psect	text1
  1492  0975                     __ptext1:	
  1493 ;; *************** function _write_EEPROM *****************
  1494 ;; Defined at:
  1495 ;;		line 359 in file "main_master.c"
  1496 ;; Parameters:    Size  Location     Type
  1497 ;;  address         1    wreg     unsigned char 
  1498 ;;  data            1   18[BANK1 ] unsigned char 
  1499 ;; Auto vars:     Size  Location     Type
  1500 ;;  address         1   19[BANK1 ] unsigned char 
  1501 ;; Return value:  Size  Location     Type
  1502 ;;                  1    wreg      void 
  1503 ;; Registers used:
  1504 ;;		wreg
  1505 ;; Tracked objects:
  1506 ;;		On entry : 0/0
  1507 ;;		On exit  : 0/0
  1508 ;;		Unchanged: 0/0
  1509 ;; Data sizes:     COMMON   BANK0   BANK1   BANK3   BANK2
  1510 ;;      Params:         0       0       1       0       0
  1511 ;;      Locals:         0       0       1       0       0
  1512 ;;      Temps:          0       0       0       0       0
  1513 ;;      Totals:         0       0       2       0       0
  1514 ;;Total ram usage:        2 bytes
  1515 ;; Hardware stack levels used: 1
  1516 ;; Hardware stack levels required when called: 4
  1517 ;; This function calls:
  1518 ;;		Nothing
  1519 ;; This function is called by:
  1520 ;;		_main
  1521 ;; This function uses a non-reentrant model
  1522 ;;
  1523                           
  1524  0975                     _write_EEPROM:	
  1525                           ;psect for function _write_EEPROM
  1526                           
  1527                           
  1528                           ;incstack = 0
  1529                           ; Regs used in _write_EEPROM: [wreg]
  1530                           ;write_EEPROM@address stored from wreg
  1531  0975  1683               	bsf	3,5	;RP0=1, select bank1
  1532  0976  1303               	bcf	3,6	;RP1=0, select bank1
  1533  0977  00B3               	movwf	write_EEPROM@address^(0+128)
  1534  0978                     l2601:
  1535                           
  1536                           ;main_master.c: 360:     EEADR = address;
  1537  0978  0833               	movf	write_EEPROM@address^(0+128),w
  1538  0979  1283               	bcf	3,5	;RP0=0, select bank2
  1539  097A  1703               	bsf	3,6	;RP1=1, select bank2
  1540  097B  008D               	movwf	13	;volatile
  1541                           
  1542                           ;main_master.c: 361:     EEDAT = data;
  1543  097C  1683               	bsf	3,5	;RP0=1, select bank1
  1544  097D  1303               	bcf	3,6	;RP1=0, select bank1
  1545  097E  0832               	movf	write_EEPROM@data^(0+128),w
  1546  097F  1283               	bcf	3,5	;RP0=0, select bank2
  1547  0980  1703               	bsf	3,6	;RP1=1, select bank2
  1548  0981  008C               	movwf	12	;volatile
  1549  0982                     l2603:
  1550                           
  1551                           ;main_master.c: 362:     EECON1bits.EEPGD = 0;
  1552  0982  1683               	bsf	3,5	;RP0=1, select bank3
  1553  0983  1703               	bsf	3,6	;RP1=1, select bank3
  1554  0984  138C               	bcf	12,7	;volsfr
  1555  0985                     l2605:
  1556                           
  1557                           ;main_master.c: 363:     EECON1bits.WREN = 1;
  1558  0985  150C               	bsf	12,2	;volsfr
  1559  0986                     l2607:
  1560                           
  1561                           ;main_master.c: 365:     INTCONbits.GIE = 0;
  1562  0986  138B               	bcf	11,7	;volatile
  1563                           
  1564                           ;main_master.c: 366:     EECON2 = 0x55;
  1565  0987  3055               	movlw	85
  1566  0988  008D               	movwf	13	;volsfr
  1567                           
  1568                           ;main_master.c: 367:     EECON2 = 0xAA;
  1569  0989  30AA               	movlw	170
  1570  098A  008D               	movwf	13	;volsfr
  1571  098B                     l2609:
  1572                           
  1573                           ;main_master.c: 369:     EECON1bits.WR = 1;
  1574  098B  148C               	bsf	12,1	;volsfr
  1575  098C                     l2611:
  1576                           
  1577                           ;main_master.c: 371:     EECON1bits.WREN = 0;
  1578  098C  110C               	bcf	12,2	;volsfr
  1579  098D                     l2613:
  1580                           
  1581                           ;main_master.c: 372:     INTCONbits.RBIF = 0;
  1582  098D  100B               	bcf	11,0	;volatile
  1583  098E                     l2615:
  1584                           
  1585                           ;main_master.c: 373:     INTCONbits.GIE = 1;
  1586  098E  178B               	bsf	11,7	;volatile
  1587  098F                     l229:
  1588  098F  0008               	return
  1589  0990                     __end_of_write_EEPROM:
  1590                           
  1591                           	psect	text2
  1592  0A53                     __ptext2:	
  1593 ;; *************** function _setup *****************
  1594 ;; Defined at:
  1595 ;;		line 245 in file "main_master.c"
  1596 ;; Parameters:    Size  Location     Type
  1597 ;;		None
  1598 ;; Auto vars:     Size  Location     Type
  1599 ;;		None
  1600 ;; Return value:  Size  Location     Type
  1601 ;;                  1    wreg      void 
  1602 ;; Registers used:
  1603 ;;		wreg, status,2, status,0
  1604 ;; Tracked objects:
  1605 ;;		On entry : 0/0
  1606 ;;		On exit  : 0/0
  1607 ;;		Unchanged: 0/0
  1608 ;; Data sizes:     COMMON   BANK0   BANK1   BANK3   BANK2
  1609 ;;      Params:         0       0       0       0       0
  1610 ;;      Locals:         0       0       0       0       0
  1611 ;;      Temps:          0       0       1       0       0
  1612 ;;      Totals:         0       0       1       0       0
  1613 ;;Total ram usage:        1 bytes
  1614 ;; Hardware stack levels used: 1
  1615 ;; Hardware stack levels required when called: 4
  1616 ;; This function calls:
  1617 ;;		Nothing
  1618 ;; This function is called by:
  1619 ;;		_main
  1620 ;; This function uses a non-reentrant model
  1621 ;;
  1622                           
  1623  0A53                     _setup:	
  1624                           ;psect for function _setup
  1625                           
  1626  0A53                     l2495:	
  1627                           ;incstack = 0
  1628                           ; Regs used in _setup: [wreg+status,2+status,0]
  1629                           
  1630                           
  1631                           ;main_master.c: 246:     ANSEL = 0b00001111;
  1632  0A53  300F               	movlw	15
  1633  0A54  1683               	bsf	3,5	;RP0=1, select bank3
  1634  0A55  1703               	bsf	3,6	;RP1=1, select bank3
  1635  0A56  0088               	movwf	8	;volatile
  1636  0A57                     l2497:
  1637                           
  1638                           ;main_master.c: 247:     ANSELH = 0;
  1639  0A57  0189               	clrf	9	;volatile
  1640  0A58                     l2499:
  1641                           
  1642                           ;main_master.c: 249:     TRISB = 0b00000111;
  1643  0A58  3007               	movlw	7
  1644  0A59  1683               	bsf	3,5	;RP0=1, select bank1
  1645  0A5A  1303               	bcf	3,6	;RP1=0, select bank1
  1646  0A5B  0086               	movwf	6	;volatile
  1647                           
  1648                           ;main_master.c: 250:     PORTB = 0;
  1649  0A5C  1283               	bcf	3,5	;RP0=0, select bank0
  1650  0A5D  1303               	bcf	3,6	;RP1=0, select bank0
  1651  0A5E  0186               	clrf	6	;volatile
  1652                           
  1653                           ;main_master.c: 251:     TRISD = 0;
  1654  0A5F  1683               	bsf	3,5	;RP0=1, select bank1
  1655  0A60  1303               	bcf	3,6	;RP1=0, select bank1
  1656  0A61  0188               	clrf	8	;volatile
  1657                           
  1658                           ;main_master.c: 252:     PORTD = 0;
  1659  0A62  1283               	bcf	3,5	;RP0=0, select bank0
  1660  0A63  1303               	bcf	3,6	;RP1=0, select bank0
  1661  0A64  0188               	clrf	8	;volatile
  1662                           
  1663                           ;main_master.c: 253:     TRISE = 0;
  1664  0A65  1683               	bsf	3,5	;RP0=1, select bank1
  1665  0A66  1303               	bcf	3,6	;RP1=0, select bank1
  1666  0A67  0189               	clrf	9	;volatile
  1667                           
  1668                           ;main_master.c: 254:     PORTE = 0;
  1669  0A68  1283               	bcf	3,5	;RP0=0, select bank0
  1670  0A69  1303               	bcf	3,6	;RP1=0, select bank0
  1671  0A6A  0189               	clrf	9	;volatile
  1672  0A6B                     l2501:
  1673                           
  1674                           ;main_master.c: 256:     TRISA = 0b00001111;
  1675  0A6B  300F               	movlw	15
  1676  0A6C  1683               	bsf	3,5	;RP0=1, select bank1
  1677  0A6D  1303               	bcf	3,6	;RP1=0, select bank1
  1678  0A6E  0085               	movwf	5	;volatile
  1679  0A6F                     l2503:
  1680                           
  1681                           ;main_master.c: 257:     PORTA = 0;
  1682  0A6F  1283               	bcf	3,5	;RP0=0, select bank0
  1683  0A70  1303               	bcf	3,6	;RP1=0, select bank0
  1684  0A71  0185               	clrf	5	;volatile
  1685  0A72                     l2505:
  1686                           
  1687                           ;main_master.c: 259:     OPTION_REGbits.nRBPU = 0;
  1688  0A72  1683               	bsf	3,5	;RP0=1, select bank1
  1689  0A73  1303               	bcf	3,6	;RP1=0, select bank1
  1690  0A74  1381               	bcf	1,7	;volatile
  1691                           
  1692                           ;main_master.c: 260:     WPUB = 0b00000111;
  1693  0A75  3007               	movlw	7
  1694  0A76  0095               	movwf	21	;volatile
  1695                           
  1696                           ;main_master.c: 261:     IOCB = 0b00000111;
  1697  0A77  3007               	movlw	7
  1698  0A78  0096               	movwf	22	;volatile
  1699  0A79                     l2507:
  1700                           
  1701                           ;main_master.c: 263:     OSCCONbits.IRCF = 0b100;
  1702  0A79  080F               	movf	15,w	;volatile
  1703  0A7A  398F               	andlw	-113
  1704  0A7B  3840               	iorlw	64
  1705  0A7C  008F               	movwf	15	;volatile
  1706  0A7D                     l2509:
  1707                           
  1708                           ;main_master.c: 264:     OSCCONbits.SCS = 1;
  1709  0A7D  140F               	bsf	15,0	;volatile
  1710  0A7E                     l2511:
  1711                           
  1712                           ;main_master.c: 267:     ADCON0bits.ADCS = 0b01;
  1713  0A7E  1283               	bcf	3,5	;RP0=0, select bank0
  1714  0A7F  1303               	bcf	3,6	;RP1=0, select bank0
  1715  0A80  081F               	movf	31,w	;volatile
  1716  0A81  393F               	andlw	-193
  1717  0A82  3840               	iorlw	64
  1718  0A83  009F               	movwf	31	;volatile
  1719  0A84                     l2513:
  1720                           
  1721                           ;main_master.c: 268:     ADCON1bits.VCFG0 = 0;
  1722  0A84  1683               	bsf	3,5	;RP0=1, select bank1
  1723  0A85  1303               	bcf	3,6	;RP1=0, select bank1
  1724  0A86  121F               	bcf	31,4	;volatile
  1725  0A87                     l2515:
  1726                           
  1727                           ;main_master.c: 269:     ADCON1bits.VCFG1 = 0;
  1728  0A87  129F               	bcf	31,5	;volatile
  1729  0A88                     l2517:
  1730                           
  1731                           ;main_master.c: 270:     ADCON0bits.CHS = 0b0000;
  1732  0A88  30C3               	movlw	-61
  1733  0A89  1283               	bcf	3,5	;RP0=0, select bank0
  1734  0A8A  1303               	bcf	3,6	;RP1=0, select bank0
  1735  0A8B  059F               	andwf	31,f	;volatile
  1736  0A8C                     l2519:
  1737                           
  1738                           ;main_master.c: 271:     ADCON1bits.ADFM = 0;
  1739  0A8C  1683               	bsf	3,5	;RP0=1, select bank1
  1740  0A8D  1303               	bcf	3,6	;RP1=0, select bank1
  1741  0A8E  139F               	bcf	31,7	;volatile
  1742  0A8F                     l2521:
  1743                           
  1744                           ;main_master.c: 272:     ADCON0bits.ADON = 1;
  1745  0A8F  1283               	bcf	3,5	;RP0=0, select bank0
  1746  0A90  1303               	bcf	3,6	;RP1=0, select bank0
  1747  0A91  141F               	bsf	31,0	;volatile
  1748  0A92                     l2523:
  1749                           
  1750                           ;main_master.c: 273:     _delay((unsigned long)((40)*(1000000/4000000.0)));
  1751  0A92  3002               	movlw	2
  1752  0A93  1683               	bsf	3,5	;RP0=1, select bank1
  1753  0A94  1303               	bcf	3,6	;RP1=0, select bank1
  1754  0A95  00B2               	movwf	??_setup^(0+128)
  1755  0A96                     u3507:
  1756  0A96  0BB2               	decfsz	??_setup^(0+128),f
  1757  0A97  2A96               	goto	u3507
  1758  0A98  0000               	nop
  1759  0A99                     l2525:
  1760                           
  1761                           ;main_master.c: 276:     TRISCbits.TRISC2 = 1;
  1762  0A99  1683               	bsf	3,5	;RP0=1, select bank1
  1763  0A9A  1303               	bcf	3,6	;RP1=0, select bank1
  1764  0A9B  1507               	bsf	7,2	;volatile
  1765  0A9C                     l2527:
  1766                           
  1767                           ;main_master.c: 277:     TRISCbits.TRISC1 = 1;
  1768  0A9C  1487               	bsf	7,1	;volatile
  1769  0A9D                     l2529:
  1770                           
  1771                           ;main_master.c: 278:     PR2 = 61;
  1772  0A9D  303D               	movlw	61
  1773  0A9E  0092               	movwf	18	;volatile
  1774  0A9F                     l2531:
  1775                           
  1776                           ;main_master.c: 281:     CCP1CON = 0;
  1777  0A9F  1283               	bcf	3,5	;RP0=0, select bank0
  1778  0AA0  1303               	bcf	3,6	;RP1=0, select bank0
  1779  0AA1  0197               	clrf	23	;volatile
  1780  0AA2                     l2533:
  1781                           
  1782                           ;main_master.c: 282:     CCP1CONbits.P1M = 0;
  1783  0AA2  303F               	movlw	-193
  1784  0AA3  0597               	andwf	23,f	;volatile
  1785  0AA4                     l2535:
  1786                           
  1787                           ;main_master.c: 283:     CCP1CONbits.CCP1M = 0b1100;
  1788  0AA4  0817               	movf	23,w	;volatile
  1789  0AA5  39F0               	andlw	-16
  1790  0AA6  380C               	iorlw	12
  1791  0AA7  0097               	movwf	23	;volatile
  1792  0AA8                     l2537:
  1793                           
  1794                           ;main_master.c: 284:     CCPR1L = 61>>2;
  1795  0AA8  300F               	movlw	15
  1796  0AA9  0095               	movwf	21	;volatile
  1797  0AAA                     l2539:
  1798                           
  1799                           ;main_master.c: 285:     CCP1CONbits.DC1B = 61 & 0b11;
  1800  0AAA  0817               	movf	23,w	;volatile
  1801  0AAB  39CF               	andlw	-49
  1802  0AAC  3810               	iorlw	16
  1803  0AAD  0097               	movwf	23	;volatile
  1804                           
  1805                           ;main_master.c: 288:     CCP2CON = 0;
  1806  0AAE  019D               	clrf	29	;volatile
  1807  0AAF                     l2541:
  1808                           
  1809                           ;main_master.c: 289:     CCP2CONbits.CCP2M = 0b1100;
  1810  0AAF  081D               	movf	29,w	;volatile
  1811  0AB0  39F0               	andlw	-16
  1812  0AB1  380C               	iorlw	12
  1813  0AB2  009D               	movwf	29	;volatile
  1814  0AB3                     l2543:
  1815                           
  1816                           ;main_master.c: 290:     CCPR2L = 61>>2;
  1817  0AB3  300F               	movlw	15
  1818  0AB4  009B               	movwf	27	;volatile
  1819  0AB5                     l2545:
  1820                           
  1821                           ;main_master.c: 291:     CCP2CONbits.DC2B0 = 61 & 0b01;
  1822  0AB5  161D               	bsf	29,4	;volatile
  1823  0AB6                     l2547:
  1824                           
  1825                           ;main_master.c: 292:     CCP2CONbits.DC2B1 = (61 & 0b10)>>1;
  1826  0AB6  129D               	bcf	29,5	;volatile
  1827  0AB7                     l2549:
  1828                           
  1829                           ;main_master.c: 295:     PIR1bits.TMR2IF = 0;
  1830  0AB7  108C               	bcf	12,1	;volatile
  1831  0AB8                     l2551:
  1832                           
  1833                           ;main_master.c: 296:     T2CONbits.T2CKPS = 0b11;
  1834  0AB8  3003               	movlw	3
  1835  0AB9  0492               	iorwf	18,f	;volatile
  1836  0ABA                     l2553:
  1837                           
  1838                           ;main_master.c: 297:     T2CONbits.TMR2ON = 1;
  1839  0ABA  1512               	bsf	18,2	;volatile
  1840  0ABB                     l217:	
  1841                           ;main_master.c: 298:     while(!PIR1bits.TMR2IF);
  1842                           
  1843  0ABB  1C8C               	btfss	12,1	;volatile
  1844  0ABC  2ABE               	goto	u3111
  1845  0ABD  2ABF               	goto	u3110
  1846  0ABE                     u3111:
  1847  0ABE  2ABB               	goto	l217
  1848  0ABF                     u3110:
  1849  0ABF                     l219:
  1850                           
  1851                           ;main_master.c: 299:     PIR1bits.TMR2IF = 0;
  1852  0ABF  108C               	bcf	12,1	;volatile
  1853                           
  1854                           ;main_master.c: 301:     TRISCbits.TRISC2 = 0;
  1855  0AC0  1683               	bsf	3,5	;RP0=1, select bank1
  1856  0AC1  1303               	bcf	3,6	;RP1=0, select bank1
  1857  0AC2  1107               	bcf	7,2	;volatile
  1858                           
  1859                           ;main_master.c: 302:     TRISCbits.TRISC1 = 0;
  1860  0AC3  1087               	bcf	7,1	;volatile
  1861                           
  1862                           ;main_master.c: 307:     TRISCbits.TRISC4 = 1;
  1863  0AC4  1607               	bsf	7,4	;volatile
  1864                           
  1865                           ;main_master.c: 308:     TRISCbits.TRISC3 = 0;
  1866  0AC5  1187               	bcf	7,3	;volatile
  1867                           
  1868                           ;main_master.c: 309:     TRISCbits.TRISC5 = 0;
  1869  0AC6  1287               	bcf	7,5	;volatile
  1870  0AC7                     l2555:
  1871                           
  1872                           ;main_master.c: 310:     PORTC = 0;
  1873  0AC7  1283               	bcf	3,5	;RP0=0, select bank0
  1874  0AC8  1303               	bcf	3,6	;RP1=0, select bank0
  1875  0AC9  0187               	clrf	7	;volatile
  1876  0ACA                     l2557:
  1877                           
  1878                           ;main_master.c: 313:     SSPCONbits.SSPM = 0b0000;
  1879  0ACA  30F0               	movlw	-16
  1880  0ACB  0594               	andwf	20,f	;volatile
  1881  0ACC                     l2559:
  1882                           
  1883                           ;main_master.c: 314:     SSPCONbits.CKP = 0;
  1884  0ACC  1214               	bcf	20,4	;volatile
  1885  0ACD                     l2561:
  1886                           
  1887                           ;main_master.c: 315:     SSPCONbits.SSPEN = 1;
  1888  0ACD  1694               	bsf	20,5	;volatile
  1889  0ACE                     l2563:
  1890                           
  1891                           ;main_master.c: 317:     SSPSTATbits.CKE = 1;
  1892  0ACE  1683               	bsf	3,5	;RP0=1, select bank1
  1893  0ACF  1303               	bcf	3,6	;RP1=0, select bank1
  1894  0AD0  1714               	bsf	20,6	;volatile
  1895  0AD1                     l2565:
  1896                           
  1897                           ;main_master.c: 318:     SSPSTATbits.SMP = 1;
  1898  0AD1  1794               	bsf	20,7	;volatile
  1899  0AD2                     l2567:
  1900                           
  1901                           ;main_master.c: 319:     SSPBUF = POT1_slave;
  1902  0AD2  084D               	movf	_POT1_slave^(0+128),w
  1903  0AD3  1283               	bcf	3,5	;RP0=0, select bank0
  1904  0AD4  1303               	bcf	3,6	;RP1=0, select bank0
  1905  0AD5  0093               	movwf	19	;volatile
  1906  0AD6                     l2569:
  1907                           
  1908                           ;main_master.c: 323:     TXSTAbits.SYNC = 0;
  1909  0AD6  1683               	bsf	3,5	;RP0=1, select bank1
  1910  0AD7  1303               	bcf	3,6	;RP1=0, select bank1
  1911  0AD8  1218               	bcf	24,4	;volatile
  1912  0AD9                     l2571:
  1913                           
  1914                           ;main_master.c: 324:     TXSTAbits.BRGH = 1;
  1915  0AD9  1518               	bsf	24,2	;volatile
  1916  0ADA                     l2573:
  1917                           
  1918                           ;main_master.c: 325:     BAUDCTLbits.BRG16 = 1;
  1919  0ADA  1683               	bsf	3,5	;RP0=1, select bank3
  1920  0ADB  1703               	bsf	3,6	;RP1=1, select bank3
  1921  0ADC  1587               	bsf	7,3	;volatile
  1922  0ADD                     l2575:
  1923                           
  1924                           ;main_master.c: 327:     SPBRG = 25;
  1925  0ADD  3019               	movlw	25
  1926  0ADE  1683               	bsf	3,5	;RP0=1, select bank1
  1927  0ADF  1303               	bcf	3,6	;RP1=0, select bank1
  1928  0AE0  0099               	movwf	25	;volatile
  1929  0AE1                     l2577:
  1930                           
  1931                           ;main_master.c: 328:     SPBRGH = 0;
  1932  0AE1  019A               	clrf	26	;volatile
  1933  0AE2                     l2579:
  1934                           
  1935                           ;main_master.c: 330:     RCSTAbits.SPEN = 1;
  1936  0AE2  1283               	bcf	3,5	;RP0=0, select bank0
  1937  0AE3  1303               	bcf	3,6	;RP1=0, select bank0
  1938  0AE4  1798               	bsf	24,7	;volatile
  1939  0AE5                     l2581:
  1940                           
  1941                           ;main_master.c: 331:     RCSTAbits.RX9 = 0;
  1942  0AE5  1318               	bcf	24,6	;volatile
  1943  0AE6                     l2583:
  1944                           
  1945                           ;main_master.c: 333:     TXSTAbits.TXEN = 1;
  1946  0AE6  1683               	bsf	3,5	;RP0=1, select bank1
  1947  0AE7  1303               	bcf	3,6	;RP1=0, select bank1
  1948  0AE8  1698               	bsf	24,5	;volatile
  1949  0AE9                     l2585:
  1950                           
  1951                           ;main_master.c: 334:     RCSTAbits.CREN = 1;
  1952  0AE9  1283               	bcf	3,5	;RP0=0, select bank0
  1953  0AEA  1303               	bcf	3,6	;RP1=0, select bank0
  1954  0AEB  1618               	bsf	24,4	;volatile
  1955  0AEC                     l2587:
  1956                           
  1957                           ;main_master.c: 337:     INTCONbits.GIE = 1;
  1958  0AEC  178B               	bsf	11,7	;volatile
  1959  0AED                     l2589:
  1960                           
  1961                           ;main_master.c: 338:     INTCONbits.PEIE = 1;
  1962  0AED  170B               	bsf	11,6	;volatile
  1963  0AEE                     l2591:
  1964                           
  1965                           ;main_master.c: 339:     PIE1bits.RCIE = 1;
  1966  0AEE  1683               	bsf	3,5	;RP0=1, select bank1
  1967  0AEF  1303               	bcf	3,6	;RP1=0, select bank1
  1968  0AF0  168C               	bsf	12,5	;volatile
  1969  0AF1                     l2593:
  1970                           
  1971                           ;main_master.c: 340:     PIE1bits.ADIE = 1;
  1972  0AF1  170C               	bsf	12,6	;volatile
  1973  0AF2                     l2595:
  1974                           
  1975                           ;main_master.c: 341:     PIR1bits.ADIF = 0;
  1976  0AF2  1283               	bcf	3,5	;RP0=0, select bank0
  1977  0AF3  1303               	bcf	3,6	;RP1=0, select bank0
  1978  0AF4  130C               	bcf	12,6	;volatile
  1979  0AF5                     l2597:
  1980                           
  1981                           ;main_master.c: 342:     INTCONbits.RBIE = 1;
  1982  0AF5  158B               	bsf	11,3	;volatile
  1983  0AF6                     l2599:
  1984                           
  1985                           ;main_master.c: 343:     INTCONbits.RBIF = 0;
  1986  0AF6  100B               	bcf	11,0	;volatile
  1987  0AF7                     l220:
  1988  0AF7  0008               	return
  1989  0AF8                     __end_of_setup:
  1990                           
  1991                           	psect	text3
  1992  07EB                     __ptext3:	
  1993 ;; *************** function _read_EEPROM *****************
  1994 ;; Defined at:
  1995 ;;		line 352 in file "main_master.c"
  1996 ;; Parameters:    Size  Location     Type
  1997 ;;  address         1    wreg     unsigned char 
  1998 ;; Auto vars:     Size  Location     Type
  1999 ;;  address         1   18[BANK1 ] unsigned char 
  2000 ;; Return value:  Size  Location     Type
  2001 ;;                  1    wreg      unsigned char 
  2002 ;; Registers used:
  2003 ;;		wreg
  2004 ;; Tracked objects:
  2005 ;;		On entry : 0/0
  2006 ;;		On exit  : 0/0
  2007 ;;		Unchanged: 0/0
  2008 ;; Data sizes:     COMMON   BANK0   BANK1   BANK3   BANK2
  2009 ;;      Params:         0       0       0       0       0
  2010 ;;      Locals:         0       0       1       0       0
  2011 ;;      Temps:          0       0       0       0       0
  2012 ;;      Totals:         0       0       1       0       0
  2013 ;;Total ram usage:        1 bytes
  2014 ;; Hardware stack levels used: 1
  2015 ;; Hardware stack levels required when called: 4
  2016 ;; This function calls:
  2017 ;;		Nothing
  2018 ;; This function is called by:
  2019 ;;		_main
  2020 ;; This function uses a non-reentrant model
  2021 ;;
  2022                           
  2023  07EB                     _read_EEPROM:	
  2024                           ;psect for function _read_EEPROM
  2025                           
  2026                           
  2027                           ;incstack = 0
  2028                           ; Regs used in _read_EEPROM: [wreg]
  2029                           ;read_EEPROM@address stored from wreg
  2030  07EB  1683               	bsf	3,5	;RP0=1, select bank1
  2031  07EC  1303               	bcf	3,6	;RP1=0, select bank1
  2032  07ED  00B2               	movwf	read_EEPROM@address^(0+128)
  2033  07EE                     l2617:
  2034                           
  2035                           ;main_master.c: 353:     EEADR = address;
  2036  07EE  0832               	movf	read_EEPROM@address^(0+128),w
  2037  07EF  1283               	bcf	3,5	;RP0=0, select bank2
  2038  07F0  1703               	bsf	3,6	;RP1=1, select bank2
  2039  07F1  008D               	movwf	13	;volatile
  2040  07F2                     l2619:
  2041                           
  2042                           ;main_master.c: 354:     EECON1bits.EEPGD = 0;
  2043  07F2  1683               	bsf	3,5	;RP0=1, select bank3
  2044  07F3  1703               	bsf	3,6	;RP1=1, select bank3
  2045  07F4  138C               	bcf	12,7	;volsfr
  2046  07F5                     l2621:
  2047                           
  2048                           ;main_master.c: 355:     EECON1bits.RD = 1;
  2049  07F5  140C               	bsf	12,0	;volsfr
  2050                           
  2051                           ;main_master.c: 356:     return EEDAT;
  2052  07F6  1283               	bcf	3,5	;RP0=0, select bank2
  2053  07F7  1703               	bsf	3,6	;RP1=1, select bank2
  2054  07F8  080C               	movf	12,w	;volatile
  2055  07F9                     l226:
  2056  07F9  0008               	return
  2057  07FA                     __end_of_read_EEPROM:
  2058                           
  2059                           	psect	text4
  2060  0C64                     __ptext4:	
  2061 ;; *************** function _isr *****************
  2062 ;; Defined at:
  2063 ;;		line 51 in file "main_master.c"
  2064 ;; Parameters:    Size  Location     Type
  2065 ;;		None
  2066 ;; Auto vars:     Size  Location     Type
  2067 ;;		None
  2068 ;; Return value:  Size  Location     Type
  2069 ;;                  1    wreg      void 
  2070 ;; Registers used:
  2071 ;;		wreg, fsr0l, fsr0h, status,2, status,0, btemp+1, pclath, cstack
  2072 ;; Tracked objects:
  2073 ;;		On entry : 0/0
  2074 ;;		On exit  : 0/0
  2075 ;;		Unchanged: 0/0
  2076 ;; Data sizes:     COMMON   BANK0   BANK1   BANK3   BANK2
  2077 ;;      Params:         0       0       0       0       0
  2078 ;;      Locals:         0       0       0       0       0
  2079 ;;      Temps:          0       0       7       0       0
  2080 ;;      Totals:         0       0       7       0       0
  2081 ;;Total ram usage:        7 bytes
  2082 ;; Hardware stack levels used: 1
  2083 ;; Hardware stack levels required when called: 3
  2084 ;; This function calls:
  2085 ;;		_map
  2086 ;; This function is called by:
  2087 ;;		Interrupt level 1
  2088 ;; This function uses a non-reentrant model
  2089 ;;
  2090                           
  2091  0C64                     _isr:	
  2092                           ;psect for function _isr
  2093                           
  2094  0C64                     i1l2625:
  2095                           
  2096                           ;main_master.c: 52:     if (PIR1bits.SSPIF){
  2097  0C64  1283               	bcf	3,5	;RP0=0, select bank0
  2098  0C65  1303               	bcf	3,6	;RP1=0, select bank0
  2099  0C66  1D8C               	btfss	12,3	;volatile
  2100  0C67  2C69               	goto	u312_21
  2101  0C68  2C6A               	goto	u312_20
  2102  0C69                     u312_21:
  2103  0C69  2C6B               	goto	i1l135
  2104  0C6A                     u312_20:
  2105  0C6A                     i1l2627:
  2106                           
  2107                           ;main_master.c: 53:         PIR1bits.SSPIF = 0;
  2108  0C6A  118C               	bcf	12,3	;volatile
  2109  0C6B                     i1l135:	
  2110                           ;main_master.c: 54:     }
  2111                           
  2112                           
  2113                           ;main_master.c: 56:     if(PIR1bits.ADIF){
  2114  0C6B  1F0C               	btfss	12,6	;volatile
  2115  0C6C  2C6E               	goto	u313_21
  2116  0C6D  2C6F               	goto	u313_20
  2117  0C6E                     u313_21:
  2118  0C6E  2D44               	goto	i1l136
  2119  0C6F                     u313_20:
  2120  0C6F                     i1l2629:
  2121                           
  2122                           ;main_master.c: 57:         if (MODO == 0){
  2123  0C6F  1683               	bsf	3,5	;RP0=1, select bank1
  2124  0C70  1303               	bcf	3,6	;RP1=0, select bank1
  2125  0C71  0847               	movf	_MODO^(0+128),w
  2126  0C72  1D03               	btfss	3,2
  2127  0C73  2C75               	goto	u314_21
  2128  0C74  2C76               	goto	u314_20
  2129  0C75                     u314_21:
  2130  0C75  2D41               	goto	i1l137
  2131  0C76                     u314_20:
  2132  0C76  2D2B               	goto	i1l2657
  2133  0C77                     i1l2633:
  2134                           
  2135                           ;main_master.c: 60:                         CCPR = map(ADRESH, 0, 255, 60, 130);
  2136  0C77  01A5               	clrf	map@x0^(0+128)
  2137  0C78  30FF               	movlw	255
  2138  0C79  00AB               	movwf	??_isr^(0+128)
  2139  0C7A  082B               	movf	??_isr^(0+128),w
  2140  0C7B  00A6               	movwf	map@x1^(0+128)
  2141  0C7C  303C               	movlw	60
  2142  0C7D  00A7               	movwf	map@y0^(0+128)
  2143  0C7E  3000               	movlw	0
  2144  0C7F  00A8               	movwf	(map@y0^(0+128)+1)
  2145  0C80  3082               	movlw	130
  2146  0C81  00A9               	movwf	map@y1^(0+128)
  2147  0C82  3000               	movlw	0
  2148  0C83  00AA               	movwf	(map@y1^(0+128)+1)
  2149  0C84  1283               	bcf	3,5	;RP0=0, select bank0
  2150  0C85  1303               	bcf	3,6	;RP1=0, select bank0
  2151  0C86  081E               	movf	30,w	;volatile
  2152  0C87  120A  158A  22F8  120A  158A  	fcall	_map
  2153  0C8C  1683               	bsf	3,5	;RP0=1, select bank1
  2154  0C8D  1303               	bcf	3,6	;RP1=0, select bank1
  2155  0C8E  0826               	movf	(?_map+1)^(0+128),w
  2156  0C8F  00C1               	movwf	(_CCPR+1)^(0+128)
  2157  0C90  0825               	movf	?_map^(0+128),w
  2158  0C91  00C0               	movwf	_CCPR^(0+128)
  2159  0C92                     i1l2635:
  2160                           
  2161                           ;main_master.c: 61:                         CCPR1L = (uint8_t)(CCPR>>2);
  2162  0C92  0841               	movf	(_CCPR+1)^(0+128),w
  2163  0C93  00AC               	movwf	(??_isr^(0+128)+1)
  2164  0C94  0840               	movf	_CCPR^(0+128),w
  2165  0C95  00AB               	movwf	??_isr^(0+128)
  2166  0C96  1003               	clrc
  2167  0C97  0CAC               	rrf	(??_isr^(0+128)+1),f
  2168  0C98  0CAB               	rrf	??_isr^(0+128),f
  2169  0C99  1003               	clrc
  2170  0C9A  0CAC               	rrf	(??_isr^(0+128)+1),f
  2171  0C9B  0CAB               	rrf	??_isr^(0+128),f
  2172  0C9C  082B               	movf	??_isr^(0+128),w
  2173  0C9D  1283               	bcf	3,5	;RP0=0, select bank0
  2174  0C9E  1303               	bcf	3,6	;RP1=0, select bank0
  2175  0C9F  0095               	movwf	21	;volatile
  2176  0CA0                     i1l2637:
  2177                           
  2178                           ;main_master.c: 62:                         CCP1CONbits.DC1B = CCPR & 0b11;
  2179  0CA0  1683               	bsf	3,5	;RP0=1, select bank1
  2180  0CA1  1303               	bcf	3,6	;RP1=0, select bank1
  2181  0CA2  0840               	movf	_CCPR^(0+128),w
  2182  0CA3  3903               	andlw	3
  2183  0CA4  00AB               	movwf	??_isr^(0+128)
  2184  0CA5  0EAB               	swapf	??_isr^(0+128),f
  2185  0CA6  1283               	bcf	3,5	;RP0=0, select bank0
  2186  0CA7  1303               	bcf	3,6	;RP1=0, select bank0
  2187  0CA8  0817               	movf	23,w	;volatile
  2188  0CA9  1683               	bsf	3,5	;RP0=1, select bank1
  2189  0CAA  1303               	bcf	3,6	;RP1=0, select bank1
  2190  0CAB  062B               	xorwf	??_isr^(0+128),w
  2191  0CAC  39CF               	andlw	-49
  2192  0CAD  062B               	xorwf	??_isr^(0+128),w
  2193  0CAE  1283               	bcf	3,5	;RP0=0, select bank0
  2194  0CAF  1303               	bcf	3,6	;RP1=0, select bank0
  2195  0CB0  0097               	movwf	23	;volatile
  2196  0CB1                     i1l2639:
  2197                           
  2198                           ;main_master.c: 63:                         array[0] = (char)CCPR;
  2199  0CB1  1683               	bsf	3,5	;RP0=1, select bank1
  2200  0CB2  1303               	bcf	3,6	;RP1=0, select bank1
  2201  0CB3  0840               	movf	_CCPR^(0+128),w
  2202  0CB4  00AB               	movwf	??_isr^(0+128)
  2203  0CB5  082B               	movf	??_isr^(0+128),w
  2204  0CB6  00BA               	movwf	_array^(0+128)
  2205                           
  2206                           ;main_master.c: 64:                     break;
  2207  0CB7  2D41               	goto	i1l137
  2208  0CB8                     i1l2641:
  2209                           
  2210                           ;main_master.c: 66:                         CCPR_2 = map(ADRESH, 0, 255, 60, 130);
  2211  0CB8  01A5               	clrf	map@x0^(0+128)
  2212  0CB9  30FF               	movlw	255
  2213  0CBA  00AB               	movwf	??_isr^(0+128)
  2214  0CBB  082B               	movf	??_isr^(0+128),w
  2215  0CBC  00A6               	movwf	map@x1^(0+128)
  2216  0CBD  303C               	movlw	60
  2217  0CBE  00A7               	movwf	map@y0^(0+128)
  2218  0CBF  3000               	movlw	0
  2219  0CC0  00A8               	movwf	(map@y0^(0+128)+1)
  2220  0CC1  3082               	movlw	130
  2221  0CC2  00A9               	movwf	map@y1^(0+128)
  2222  0CC3  3000               	movlw	0
  2223  0CC4  00AA               	movwf	(map@y1^(0+128)+1)
  2224  0CC5  1283               	bcf	3,5	;RP0=0, select bank0
  2225  0CC6  1303               	bcf	3,6	;RP1=0, select bank0
  2226  0CC7  081E               	movf	30,w	;volatile
  2227  0CC8  120A  158A  22F8  120A  158A  	fcall	_map
  2228  0CCD  1683               	bsf	3,5	;RP0=1, select bank1
  2229  0CCE  1303               	bcf	3,6	;RP1=0, select bank1
  2230  0CCF  0826               	movf	(?_map+1)^(0+128),w
  2231  0CD0  00BF               	movwf	(_CCPR_2+1)^(0+128)
  2232  0CD1  0825               	movf	?_map^(0+128),w
  2233  0CD2  00BE               	movwf	_CCPR_2^(0+128)
  2234  0CD3                     i1l2643:
  2235                           
  2236                           ;main_master.c: 67:                         CCPR2L = (uint8_t)(CCPR_2>>2);
  2237  0CD3  083F               	movf	(_CCPR_2+1)^(0+128),w
  2238  0CD4  00AC               	movwf	(??_isr^(0+128)+1)
  2239  0CD5  083E               	movf	_CCPR_2^(0+128),w
  2240  0CD6  00AB               	movwf	??_isr^(0+128)
  2241  0CD7  1003               	clrc
  2242  0CD8  0CAC               	rrf	(??_isr^(0+128)+1),f
  2243  0CD9  0CAB               	rrf	??_isr^(0+128),f
  2244  0CDA  1003               	clrc
  2245  0CDB  0CAC               	rrf	(??_isr^(0+128)+1),f
  2246  0CDC  0CAB               	rrf	??_isr^(0+128),f
  2247  0CDD  082B               	movf	??_isr^(0+128),w
  2248  0CDE  1283               	bcf	3,5	;RP0=0, select bank0
  2249  0CDF  1303               	bcf	3,6	;RP1=0, select bank0
  2250  0CE0  009B               	movwf	27	;volatile
  2251  0CE1                     i1l2645:
  2252                           
  2253                           ;main_master.c: 68:                         CCP2CONbits.DC2B0 = CCPR_2 & 0b01;
  2254  0CE1  1683               	bsf	3,5	;RP0=1, select bank1
  2255  0CE2  1303               	bcf	3,6	;RP1=0, select bank1
  2256  0CE3  083E               	movf	_CCPR_2^(0+128),w
  2257  0CE4  3901               	andlw	1
  2258  0CE5  00AB               	movwf	??_isr^(0+128)
  2259  0CE6  0EAB               	swapf	??_isr^(0+128),f
  2260  0CE7  1283               	bcf	3,5	;RP0=0, select bank0
  2261  0CE8  1303               	bcf	3,6	;RP1=0, select bank0
  2262  0CE9  081D               	movf	29,w	;volatile
  2263  0CEA  1683               	bsf	3,5	;RP0=1, select bank1
  2264  0CEB  1303               	bcf	3,6	;RP1=0, select bank1
  2265  0CEC  062B               	xorwf	??_isr^(0+128),w
  2266  0CED  39EF               	andlw	-17
  2267  0CEE  062B               	xorwf	??_isr^(0+128),w
  2268  0CEF  1283               	bcf	3,5	;RP0=0, select bank0
  2269  0CF0  1303               	bcf	3,6	;RP1=0, select bank0
  2270  0CF1  009D               	movwf	29	;volatile
  2271  0CF2                     i1l2647:
  2272                           
  2273                           ;main_master.c: 69:                         CCP2CONbits.DC2B0 = (CCPR_2 & 0b10)>>1;
  2274  0CF2  1683               	bsf	3,5	;RP0=1, select bank1
  2275  0CF3  1303               	bcf	3,6	;RP1=0, select bank1
  2276  0CF4  083F               	movf	(_CCPR_2+1)^(0+128),w
  2277  0CF5  00AC               	movwf	(??_isr^(0+128)+1)
  2278  0CF6  083E               	movf	_CCPR_2^(0+128),w
  2279  0CF7  00AB               	movwf	??_isr^(0+128)
  2280  0CF8  1003               	clrc
  2281  0CF9  0CAC               	rrf	(??_isr^(0+128)+1),f
  2282  0CFA  0CAB               	rrf	??_isr^(0+128),f
  2283  0CFB  082B               	movf	??_isr^(0+128),w
  2284  0CFC  3901               	andlw	1
  2285  0CFD  00AD               	movwf	(??_isr+2)^(0+128)
  2286  0CFE  0EAD               	swapf	(??_isr+2)^(0+128),f
  2287  0CFF  1283               	bcf	3,5	;RP0=0, select bank0
  2288  0D00  1303               	bcf	3,6	;RP1=0, select bank0
  2289  0D01  081D               	movf	29,w	;volatile
  2290  0D02  1683               	bsf	3,5	;RP0=1, select bank1
  2291  0D03  1303               	bcf	3,6	;RP1=0, select bank1
  2292  0D04  062D               	xorwf	(??_isr+2)^(0+128),w
  2293  0D05  39EF               	andlw	-17
  2294  0D06  062D               	xorwf	(??_isr+2)^(0+128),w
  2295  0D07  1283               	bcf	3,5	;RP0=0, select bank0
  2296  0D08  1303               	bcf	3,6	;RP1=0, select bank0
  2297  0D09  009D               	movwf	29	;volatile
  2298  0D0A                     i1l2649:
  2299                           
  2300                           ;main_master.c: 70:                         array[1] = (char)CCPR_2;
  2301  0D0A  1683               	bsf	3,5	;RP0=1, select bank1
  2302  0D0B  1303               	bcf	3,6	;RP1=0, select bank1
  2303  0D0C  083E               	movf	_CCPR_2^(0+128),w
  2304  0D0D  00AB               	movwf	??_isr^(0+128)
  2305  0D0E  082B               	movf	??_isr^(0+128),w
  2306  0D0F  00BB               	movwf	(_array^(0+128)+1)
  2307                           
  2308                           ;main_master.c: 71:                     break;
  2309  0D10  2D41               	goto	i1l137
  2310  0D11                     i1l2651:
  2311                           
  2312                           ;main_master.c: 73:                     POT1_slave = ADRESH;
  2313  0D11  1283               	bcf	3,5	;RP0=0, select bank0
  2314  0D12  1303               	bcf	3,6	;RP1=0, select bank0
  2315  0D13  081E               	movf	30,w	;volatile
  2316  0D14  1683               	bsf	3,5	;RP0=1, select bank1
  2317  0D15  1303               	bcf	3,6	;RP1=0, select bank1
  2318  0D16  00AB               	movwf	??_isr^(0+128)
  2319  0D17  082B               	movf	??_isr^(0+128),w
  2320  0D18  00CD               	movwf	_POT1_slave^(0+128)
  2321                           
  2322                           ;main_master.c: 74:                         array[2] = POT1_slave;
  2323  0D19  084D               	movf	_POT1_slave^(0+128),w
  2324  0D1A  00AB               	movwf	??_isr^(0+128)
  2325  0D1B  082B               	movf	??_isr^(0+128),w
  2326  0D1C  00BC               	movwf	(_array^(0+128)+2)
  2327                           
  2328                           ;main_master.c: 75:                     break;
  2329  0D1D  2D41               	goto	i1l137
  2330  0D1E                     i1l2653:
  2331                           
  2332                           ;main_master.c: 77:                     POT2_slave = ADRESH;
  2333  0D1E  1283               	bcf	3,5	;RP0=0, select bank0
  2334  0D1F  1303               	bcf	3,6	;RP1=0, select bank0
  2335  0D20  081E               	movf	30,w	;volatile
  2336  0D21  1683               	bsf	3,5	;RP0=1, select bank1
  2337  0D22  1303               	bcf	3,6	;RP1=0, select bank1
  2338  0D23  00AB               	movwf	??_isr^(0+128)
  2339  0D24  082B               	movf	??_isr^(0+128),w
  2340  0D25  00CC               	movwf	_POT2_slave^(0+128)
  2341                           
  2342                           ;main_master.c: 78:                         array[3] = POT2_slave;
  2343  0D26  084C               	movf	_POT2_slave^(0+128),w
  2344  0D27  00AB               	movwf	??_isr^(0+128)
  2345  0D28  082B               	movf	??_isr^(0+128),w
  2346  0D29  00BD               	movwf	(_array^(0+128)+3)
  2347                           
  2348                           ;main_master.c: 79:                     break;
  2349  0D2A  2D41               	goto	i1l137
  2350  0D2B                     i1l2657:
  2351  0D2B  0849               	movf	_canal^(0+128),w
  2352  0D2C  00AB               	movwf	??_isr^(0+128)
  2353  0D2D  01AC               	clrf	(??_isr^(0+128)+1)
  2354                           
  2355                           ; Switch on 2 bytes has been partitioned into a top level switch of size 1, and 1 sub-sw
      +                          itches
  2356                           ; Switch size 1, requested type "simple"
  2357                           ; Number of cases is 1, Range of values is 0 to 0
  2358                           ; switch strategies available:
  2359                           ; Name         Instructions Cycles
  2360                           ; simple_byte            4     3 (average)
  2361                           ; direct_byte           11     8 (fixed)
  2362                           ; jumptable            260     6 (fixed)
  2363                           ;	Chosen strategy is simple_byte
  2364  0D2E  082C               	movf	(??_isr+1)^(0+128),w
  2365  0D2F  3A00               	xorlw	0	; case 0
  2366  0D30  1903               	skipnz
  2367  0D31  2D33               	goto	i1l2929
  2368  0D32  2D41               	goto	i1l137
  2369  0D33                     i1l2929:
  2370                           
  2371                           ; Switch size 1, requested type "simple"
  2372                           ; Number of cases is 4, Range of values is 0 to 3
  2373                           ; switch strategies available:
  2374                           ; Name         Instructions Cycles
  2375                           ; simple_byte           13     7 (average)
  2376                           ; direct_byte           20     8 (fixed)
  2377                           ; jumptable            260     6 (fixed)
  2378                           ;	Chosen strategy is simple_byte
  2379  0D33  082B               	movf	??_isr^(0+128),w
  2380  0D34  3A00               	xorlw	0	; case 0
  2381  0D35  1903               	skipnz
  2382  0D36  2C77               	goto	i1l2633
  2383  0D37  3A01               	xorlw	1	; case 1
  2384  0D38  1903               	skipnz
  2385  0D39  2CB8               	goto	i1l2641
  2386  0D3A  3A03               	xorlw	3	; case 2
  2387  0D3B  1903               	skipnz
  2388  0D3C  2D11               	goto	i1l2651
  2389  0D3D  3A01               	xorlw	1	; case 3
  2390  0D3E  1903               	skipnz
  2391  0D3F  2D1E               	goto	i1l2653
  2392  0D40  2D41               	goto	i1l137
  2393  0D41                     i1l137:	
  2394                           ;main_master.c: 81:         }
  2395                           
  2396                           
  2397                           ;main_master.c: 82:         PIR1bits.ADIF = 0;
  2398  0D41  1283               	bcf	3,5	;RP0=0, select bank0
  2399  0D42  1303               	bcf	3,6	;RP1=0, select bank0
  2400  0D43  130C               	bcf	12,6	;volatile
  2401  0D44                     i1l136:	
  2402                           ;main_master.c: 83:     }
  2403                           
  2404                           
  2405                           ;main_master.c: 85:     if (INTCONbits.RBIF){
  2406  0D44  1C0B               	btfss	11,0	;volatile
  2407  0D45  2D47               	goto	u315_21
  2408  0D46  2D48               	goto	u315_20
  2409  0D47                     u315_21:
  2410  0D47  2DA0               	goto	i1l144
  2411  0D48                     u315_20:
  2412  0D48                     i1l2659:
  2413                           
  2414                           ;main_master.c: 86:         if (!PORTBbits.RB0){
  2415  0D48  1806               	btfsc	6,0	;volatile
  2416  0D49  2D4B               	goto	u316_21
  2417  0D4A  2D4C               	goto	u316_20
  2418  0D4B                     u316_21:
  2419  0D4B  2D5A               	goto	i1l145
  2420  0D4C                     u316_20:
  2421  0D4C                     i1l2661:
  2422                           
  2423                           ;main_master.c: 87:             MODO++;
  2424  0D4C  3001               	movlw	1
  2425  0D4D  1683               	bsf	3,5	;RP0=1, select bank1
  2426  0D4E  1303               	bcf	3,6	;RP1=0, select bank1
  2427  0D4F  00AB               	movwf	??_isr^(0+128)
  2428  0D50  082B               	movf	??_isr^(0+128),w
  2429  0D51  07C7               	addwf	_MODO^(0+128),f
  2430  0D52                     i1l2663:
  2431                           
  2432                           ;main_master.c: 88:             if (MODO > 2)
  2433  0D52  3003               	movlw	3
  2434  0D53  0247               	subwf	_MODO^(0+128),w
  2435  0D54  1C03               	skipc
  2436  0D55  2D57               	goto	u317_21
  2437  0D56  2D58               	goto	u317_20
  2438  0D57                     u317_21:
  2439  0D57  2D9F               	goto	i1l147
  2440  0D58                     u317_20:
  2441  0D58                     i1l2665:
  2442                           
  2443                           ;main_master.c: 89:                 MODO = 0;
  2444  0D58  01C7               	clrf	_MODO^(0+128)
  2445  0D59  2D9F               	goto	i1l147
  2446  0D5A                     i1l145:	
  2447                           ;main_master.c: 92:         else if (!PORTBbits.RB1){
  2448                           
  2449  0D5A  1886               	btfsc	6,1	;volatile
  2450  0D5B  2D5D               	goto	u318_21
  2451  0D5C  2D5E               	goto	u318_20
  2452  0D5D                     u318_21:
  2453  0D5D  2D7B               	goto	i1l148
  2454  0D5E                     u318_20:
  2455  0D5E  2D66               	goto	i1l2675
  2456  0D5F                     i1l150:	
  2457                           ;main_master.c: 94:                 case 0:
  2458                           
  2459                           
  2460                           ;main_master.c: 95:                     write_fg = 1;
  2461  0D5F  01C6               	clrf	_write_fg^(0+128)
  2462  0D60  0AC6               	incf	_write_fg^(0+128),f
  2463  0D61                     i1l2669:
  2464                           
  2465                           ;main_master.c: 96:                     address = 0x00;
  2466  0D61  01C8               	clrf	_address^(0+128)
  2467                           
  2468                           ;main_master.c: 97:                     break;
  2469  0D62  2D9F               	goto	i1l147
  2470  0D63                     i1l152:	
  2471                           ;main_master.c: 98:                 case 1:
  2472                           
  2473                           
  2474                           ;main_master.c: 99:                     read_fg = 1;
  2475  0D63  01C5               	clrf	_read_fg^(0+128)
  2476  0D64  0AC5               	incf	_read_fg^(0+128),f
  2477  0D65  2D61               	goto	i1l2669
  2478  0D66                     i1l2675:
  2479  0D66  1683               	bsf	3,5	;RP0=1, select bank1
  2480  0D67  1303               	bcf	3,6	;RP1=0, select bank1
  2481  0D68  0847               	movf	_MODO^(0+128),w
  2482  0D69  00AB               	movwf	??_isr^(0+128)
  2483  0D6A  01AC               	clrf	(??_isr^(0+128)+1)
  2484                           
  2485                           ; Switch on 2 bytes has been partitioned into a top level switch of size 1, and 1 sub-sw
      +                          itches
  2486                           ; Switch size 1, requested type "simple"
  2487                           ; Number of cases is 1, Range of values is 0 to 0
  2488                           ; switch strategies available:
  2489                           ; Name         Instructions Cycles
  2490                           ; simple_byte            4     3 (average)
  2491                           ; direct_byte           11     8 (fixed)
  2492                           ; jumptable            260     6 (fixed)
  2493                           ;	Chosen strategy is simple_byte
  2494  0D6B  082C               	movf	(??_isr+1)^(0+128),w
  2495  0D6C  3A00               	xorlw	0	; case 0
  2496  0D6D  1903               	skipnz
  2497  0D6E  2D70               	goto	i1l2931
  2498  0D6F  2D9F               	goto	i1l147
  2499  0D70                     i1l2931:
  2500                           
  2501                           ; Switch size 1, requested type "simple"
  2502                           ; Number of cases is 3, Range of values is 0 to 2
  2503                           ; switch strategies available:
  2504                           ; Name         Instructions Cycles
  2505                           ; simple_byte           10     6 (average)
  2506                           ; direct_byte           17     8 (fixed)
  2507                           ; jumptable            260     6 (fixed)
  2508                           ;	Chosen strategy is simple_byte
  2509  0D70  082B               	movf	??_isr^(0+128),w
  2510  0D71  3A00               	xorlw	0	; case 0
  2511  0D72  1903               	skipnz
  2512  0D73  2D5F               	goto	i1l150
  2513  0D74  3A01               	xorlw	1	; case 1
  2514  0D75  1903               	skipnz
  2515  0D76  2D63               	goto	i1l152
  2516  0D77  3A03               	xorlw	3	; case 2
  2517  0D78  1903               	skipnz
  2518  0D79  2D9F               	goto	i1l147
  2519  0D7A  2D9F               	goto	i1l147
  2520  0D7B                     i1l148:	
  2521                           ;main_master.c: 107:         else if (!PORTBbits.RB2){
  2522                           
  2523  0D7B  1906               	btfsc	6,2	;volatile
  2524  0D7C  2D7E               	goto	u319_21
  2525  0D7D  2D7F               	goto	u319_20
  2526  0D7E                     u319_21:
  2527  0D7E  2D9F               	goto	i1l147
  2528  0D7F                     u319_20:
  2529  0D7F  2D8A               	goto	i1l2685
  2530  0D80                     i1l157:	
  2531                           ;main_master.c: 109:                 case 0:
  2532                           
  2533                           
  2534                           ;main_master.c: 110:                     write_fg = 1;
  2535  0D80  01C6               	clrf	_write_fg^(0+128)
  2536  0D81  0AC6               	incf	_write_fg^(0+128),f
  2537  0D82                     i1l2679:
  2538                           
  2539                           ;main_master.c: 111:                     address = 0x05;
  2540  0D82  3005               	movlw	5
  2541  0D83  00AB               	movwf	??_isr^(0+128)
  2542  0D84  082B               	movf	??_isr^(0+128),w
  2543  0D85  00C8               	movwf	_address^(0+128)
  2544                           
  2545                           ;main_master.c: 112:                     break;
  2546  0D86  2D9F               	goto	i1l147
  2547  0D87                     i1l159:	
  2548                           ;main_master.c: 113:                 case 1:
  2549                           
  2550                           
  2551                           ;main_master.c: 114:                     read_fg = 1;
  2552  0D87  01C5               	clrf	_read_fg^(0+128)
  2553  0D88  0AC5               	incf	_read_fg^(0+128),f
  2554  0D89  2D82               	goto	i1l2679
  2555  0D8A                     i1l2685:
  2556  0D8A  1683               	bsf	3,5	;RP0=1, select bank1
  2557  0D8B  1303               	bcf	3,6	;RP1=0, select bank1
  2558  0D8C  0847               	movf	_MODO^(0+128),w
  2559  0D8D  00AB               	movwf	??_isr^(0+128)
  2560  0D8E  01AC               	clrf	(??_isr^(0+128)+1)
  2561                           
  2562                           ; Switch on 2 bytes has been partitioned into a top level switch of size 1, and 1 sub-sw
      +                          itches
  2563                           ; Switch size 1, requested type "simple"
  2564                           ; Number of cases is 1, Range of values is 0 to 0
  2565                           ; switch strategies available:
  2566                           ; Name         Instructions Cycles
  2567                           ; simple_byte            4     3 (average)
  2568                           ; direct_byte           11     8 (fixed)
  2569                           ; jumptable            260     6 (fixed)
  2570                           ;	Chosen strategy is simple_byte
  2571  0D8F  082C               	movf	(??_isr+1)^(0+128),w
  2572  0D90  3A00               	xorlw	0	; case 0
  2573  0D91  1903               	skipnz
  2574  0D92  2D94               	goto	i1l2933
  2575  0D93  2D9F               	goto	i1l147
  2576  0D94                     i1l2933:
  2577                           
  2578                           ; Switch size 1, requested type "simple"
  2579                           ; Number of cases is 3, Range of values is 0 to 2
  2580                           ; switch strategies available:
  2581                           ; Name         Instructions Cycles
  2582                           ; simple_byte           10     6 (average)
  2583                           ; direct_byte           17     8 (fixed)
  2584                           ; jumptable            260     6 (fixed)
  2585                           ;	Chosen strategy is simple_byte
  2586  0D94  082B               	movf	??_isr^(0+128),w
  2587  0D95  3A00               	xorlw	0	; case 0
  2588  0D96  1903               	skipnz
  2589  0D97  2D80               	goto	i1l157
  2590  0D98  3A01               	xorlw	1	; case 1
  2591  0D99  1903               	skipnz
  2592  0D9A  2D87               	goto	i1l159
  2593  0D9B  3A03               	xorlw	3	; case 2
  2594  0D9C  1903               	skipnz
  2595  0D9D  2D9F               	goto	i1l147
  2596  0D9E  2D9F               	goto	i1l147
  2597  0D9F                     i1l147:
  2598                           
  2599                           ;main_master.c: 122:         INTCONbits.RBIF = 0;
  2600  0D9F  100B               	bcf	11,0	;volatile
  2601  0DA0                     i1l144:	
  2602                           ;main_master.c: 123:     }
  2603                           
  2604                           
  2605                           ;main_master.c: 125:     if(PIR1bits.RCIF){
  2606  0DA0  1283               	bcf	3,5	;RP0=0, select bank0
  2607  0DA1  1E8C               	btfss	12,5	;volatile
  2608  0DA2  2DA4               	goto	u320_21
  2609  0DA3  2DA5               	goto	u320_20
  2610  0DA4                     u320_21:
  2611  0DA4  2DAB               	goto	i1l162
  2612  0DA5                     u320_20:
  2613  0DA5                     i1l2687:
  2614                           
  2615                           ;main_master.c: 126:         SERIAL = RCREG;
  2616  0DA5  081A               	movf	26,w	;volatile
  2617  0DA6  1683               	bsf	3,5	;RP0=1, select bank1
  2618  0DA7  1303               	bcf	3,6	;RP1=0, select bank1
  2619  0DA8  00AB               	movwf	??_isr^(0+128)
  2620  0DA9  082B               	movf	??_isr^(0+128),w
  2621  0DAA  00CB               	movwf	_SERIAL^(0+128)
  2622  0DAB                     i1l162:
  2623  0DAB  1683               	bsf	3,5	;RP0=1, select bank1
  2624  0DAC  1303               	bcf	3,6	;RP1=0, select bank1
  2625  0DAD  0831               	movf	(??_isr+6)^(0+128),w
  2626  0DAE  00FF               	movwf	btemp+1
  2627  0DAF  0830               	movf	(??_isr+5)^(0+128),w
  2628  0DB0  008A               	movwf	10
  2629  0DB1  082F               	movf	(??_isr+4)^(0+128),w
  2630  0DB2  0084               	movwf	4
  2631  0DB3  0E2E               	swapf	(??_isr+3)^(0+128),w
  2632  0DB4  0083               	movwf	3
  2633  0DB5  0EFE               	swapf	btemp,f
  2634  0DB6  0E7E               	swapf	btemp,w
  2635  0DB7  0009               	retfie
  2636  0DB8                     __end_of_isr:
  2637                           
  2638                           	psect	intentry
  2639  0004                     __pintentry:	
  2640                           ;incstack = 0
  2641                           ; Regs used in _isr: [wreg-fsr0h+status,2+status,0+btemp+1+pclath+cstack]
  2642                           
  2643  0004                     interrupt_function:
  2644  007E                     saved_w	set	btemp
  2645  0004  00FE               	movwf	btemp
  2646  0005  0E03               	swapf	3,w
  2647  0006  1683               	bsf	3,5	;RP0=1, select bank1
  2648  0007  1303               	bcf	3,6	;RP1=0, select bank1
  2649  0008  00AE               	movwf	(??_isr+3)^(0+128)
  2650  0009  0804               	movf	4,w
  2651  000A  00AF               	movwf	(??_isr+4)^(0+128)
  2652  000B  080A               	movf	10,w
  2653  000C  00B0               	movwf	(??_isr+5)^(0+128)
  2654  000D  087F               	movf	btemp+1,w
  2655  000E  00B1               	movwf	(??_isr+6)^(0+128)
  2656  000F  120A  158A  2C64   	ljmp	_isr
  2657                           
  2658                           	psect	text5
  2659  0AF8                     __ptext5:	
  2660 ;; *************** function _map *****************
  2661 ;; Defined at:
  2662 ;;		line 347 in file "main_master.c"
  2663 ;; Parameters:    Size  Location     Type
  2664 ;;  x               1    wreg     unsigned char 
  2665 ;;  x0              1    5[BANK1 ] unsigned char 
  2666 ;;  x1              1    6[BANK1 ] unsigned char 
  2667 ;;  y0              2    7[BANK1 ] unsigned short 
  2668 ;;  y1              2    9[BANK1 ] unsigned short 
  2669 ;; Auto vars:     Size  Location     Type
  2670 ;;  x               1   78[BANK0 ] unsigned char 
  2671 ;; Return value:  Size  Location     Type
  2672 ;;                  2    5[BANK1 ] unsigned short 
  2673 ;; Registers used:
  2674 ;;		wreg, status,2, status,0, btemp+1, pclath, cstack
  2675 ;; Tracked objects:
  2676 ;;		On entry : 0/0
  2677 ;;		On exit  : 0/0
  2678 ;;		Unchanged: 0/0
  2679 ;; Data sizes:     COMMON   BANK0   BANK1   BANK3   BANK2
  2680 ;;      Params:         0       0       6       0       0
  2681 ;;      Locals:         0       1       0       0       0
  2682 ;;      Temps:          0       0       0       0       0
  2683 ;;      Totals:         0       1       6       0       0
  2684 ;;Total ram usage:        7 bytes
  2685 ;; Hardware stack levels used: 1
  2686 ;; Hardware stack levels required when called: 2
  2687 ;; This function calls:
  2688 ;;		___fladd
  2689 ;;		___fldiv
  2690 ;;		___flmul
  2691 ;;		___fltol
  2692 ;;		___xxtofl
  2693 ;; This function is called by:
  2694 ;;		_isr
  2695 ;; This function uses a non-reentrant model
  2696 ;;
  2697                           
  2698  0AF8                     _map:	
  2699                           ;psect for function _map
  2700                           
  2701                           
  2702                           ;incstack = 0
  2703                           ; Regs used in _map: [wreg+status,2+status,0+btemp+1+pclath+cstack]
  2704                           ;map@x stored from wreg
  2705  0AF8  1283               	bcf	3,5	;RP0=0, select bank0
  2706  0AF9  1303               	bcf	3,6	;RP1=0, select bank0
  2707  0AFA  00EE               	movwf	map@x
  2708  0AFB                     i1l2491:
  2709                           
  2710                           ;main_master.c: 347: unsigned short map(uint8_t x, uint8_t x0, uint8_t x1,;main_master.c
      +                          : 348:             unsigned short y0, unsigned short y1){;main_master.c: 349:     return
      +                           (unsigned short)(y0+((float)(y1-y0)/(x1-x0))*(x-x0));
  2711  0AFB  1683               	bsf	3,5	;RP0=1, select bank1
  2712  0AFC  1303               	bcf	3,6	;RP1=0, select bank1
  2713  0AFD  0827               	movf	map@y0^(0+128),w
  2714  0AFE  00F0               	movwf	___xxtofl@val
  2715  0AFF  0828               	movf	(map@y0+1)^(0+128),w
  2716  0B00  00F1               	movwf	___xxtofl@val+1
  2717  0B01  01F2               	clrf	___xxtofl@val+2
  2718  0B02  01F3               	clrf	___xxtofl@val+3
  2719  0B03  3000               	movlw	0
  2720  0B04  120A  158A  23AA  120A  158A  	fcall	___xxtofl
  2721  0B09  0873               	movf	?___xxtofl+3,w
  2722  0B0A  1283               	bcf	3,5	;RP0=0, select bank0
  2723  0B0B  1303               	bcf	3,6	;RP1=0, select bank0
  2724  0B0C  00DB               	movwf	___fladd@a+3
  2725  0B0D  0872               	movf	?___xxtofl+2,w
  2726  0B0E  00DA               	movwf	___fladd@a+2
  2727  0B0F  0871               	movf	?___xxtofl+1,w
  2728  0B10  00D9               	movwf	___fladd@a+1
  2729  0B11  0870               	movf	?___xxtofl,w
  2730  0B12  00D8               	movwf	___fladd@a
  2731  0B13  1683               	bsf	3,5	;RP0=1, select bank1
  2732  0B14  1303               	bcf	3,6	;RP1=0, select bank1
  2733  0B15  0827               	movf	map@y0^(0+128),w
  2734  0B16  0229               	subwf	map@y1^(0+128),w
  2735  0B17  00F0               	movwf	___xxtofl@val
  2736  0B18  0828               	movf	(map@y0+1)^(0+128),w
  2737  0B19  1C03               	skipc
  2738  0B1A  0A28               	incf	(map@y0+1)^(0+128),w
  2739  0B1B  022A               	subwf	(map@y1+1)^(0+128),w
  2740  0B1C  00F1               	movwf	___xxtofl@val+1
  2741  0B1D  01F2               	clrf	___xxtofl@val+2
  2742  0B1E  01F3               	clrf	___xxtofl@val+3
  2743  0B1F  3000               	movlw	0
  2744  0B20  120A  158A  23AA  120A  158A  	fcall	___xxtofl
  2745  0B25  0873               	movf	?___xxtofl+3,w
  2746  0B26  1283               	bcf	3,5	;RP0=0, select bank0
  2747  0B27  1303               	bcf	3,6	;RP1=0, select bank0
  2748  0B28  00A7               	movwf	___fldiv@b+3
  2749  0B29  0872               	movf	?___xxtofl+2,w
  2750  0B2A  00A6               	movwf	___fldiv@b+2
  2751  0B2B  0871               	movf	?___xxtofl+1,w
  2752  0B2C  00A5               	movwf	___fldiv@b+1
  2753  0B2D  0870               	movf	?___xxtofl,w
  2754  0B2E  00A4               	movwf	___fldiv@b
  2755  0B2F  1683               	bsf	3,5	;RP0=1, select bank1
  2756  0B30  1303               	bcf	3,6	;RP1=0, select bank1
  2757  0B31  0825               	movf	map@x0^(0+128),w
  2758  0B32  0226               	subwf	map@x1^(0+128),w
  2759  0B33  00F0               	movwf	___xxtofl@val
  2760  0B34  01F1               	clrf	___xxtofl@val+1
  2761  0B35  1C03               	skipc
  2762  0B36  03F1               	decf	___xxtofl@val+1,f
  2763  0B37  01F2               	clrf	___xxtofl@val+2
  2764  0B38  1BF1               	btfsc	___xxtofl@val+1,7
  2765  0B39  03F2               	decf	___xxtofl@val+2,f
  2766  0B3A  0872               	movf	___xxtofl@val+2,w
  2767  0B3B  00F3               	movwf	___xxtofl@val+3
  2768  0B3C  3001               	movlw	1
  2769  0B3D  120A  158A  23AA  120A  158A  	fcall	___xxtofl
  2770  0B42  0873               	movf	?___xxtofl+3,w
  2771  0B43  1283               	bcf	3,5	;RP0=0, select bank0
  2772  0B44  1303               	bcf	3,6	;RP1=0, select bank0
  2773  0B45  00A3               	movwf	___fldiv@a+3
  2774  0B46  0872               	movf	?___xxtofl+2,w
  2775  0B47  00A2               	movwf	___fldiv@a+2
  2776  0B48  0871               	movf	?___xxtofl+1,w
  2777  0B49  00A1               	movwf	___fldiv@a+1
  2778  0B4A  0870               	movf	?___xxtofl,w
  2779  0B4B  00A0               	movwf	___fldiv@a
  2780  0B4C  120A  118A  260E  120A  158A  	fcall	___fldiv
  2781  0B51  1283               	bcf	3,5	;RP0=0, select bank0
  2782  0B52  1303               	bcf	3,6	;RP1=0, select bank0
  2783  0B53  0823               	movf	?___fldiv+3,w
  2784  0B54  00C1               	movwf	___flmul@a+3
  2785  0B55  0822               	movf	?___fldiv+2,w
  2786  0B56  00C0               	movwf	___flmul@a+2
  2787  0B57  0821               	movf	?___fldiv+1,w
  2788  0B58  00BF               	movwf	___flmul@a+1
  2789  0B59  0820               	movf	?___fldiv,w
  2790  0B5A  00BE               	movwf	___flmul@a
  2791  0B5B  1683               	bsf	3,5	;RP0=1, select bank1
  2792  0B5C  1303               	bcf	3,6	;RP1=0, select bank1
  2793  0B5D  0825               	movf	map@x0^(0+128),w
  2794  0B5E  1283               	bcf	3,5	;RP0=0, select bank0
  2795  0B5F  1303               	bcf	3,6	;RP1=0, select bank0
  2796  0B60  026E               	subwf	map@x,w
  2797  0B61  00F0               	movwf	___xxtofl@val
  2798  0B62  01F1               	clrf	___xxtofl@val+1
  2799  0B63  1C03               	skipc
  2800  0B64  03F1               	decf	___xxtofl@val+1,f
  2801  0B65  01F2               	clrf	___xxtofl@val+2
  2802  0B66  1BF1               	btfsc	___xxtofl@val+1,7
  2803  0B67  03F2               	decf	___xxtofl@val+2,f
  2804  0B68  0872               	movf	___xxtofl@val+2,w
  2805  0B69  00F3               	movwf	___xxtofl@val+3
  2806  0B6A  3001               	movlw	1
  2807  0B6B  120A  158A  23AA  120A  158A  	fcall	___xxtofl
  2808  0B70  0873               	movf	?___xxtofl+3,w
  2809  0B71  1283               	bcf	3,5	;RP0=0, select bank0
  2810  0B72  1303               	bcf	3,6	;RP1=0, select bank0
  2811  0B73  00BD               	movwf	___flmul@b+3
  2812  0B74  0872               	movf	?___xxtofl+2,w
  2813  0B75  00BC               	movwf	___flmul@b+2
  2814  0B76  0871               	movf	?___xxtofl+1,w
  2815  0B77  00BB               	movwf	___flmul@b+1
  2816  0B78  0870               	movf	?___xxtofl,w
  2817  0B79  00BA               	movwf	___flmul@b
  2818  0B7A  120A  118A  2025  120A  158A  	fcall	___flmul
  2819  0B7F  1283               	bcf	3,5	;RP0=0, select bank0
  2820  0B80  1303               	bcf	3,6	;RP1=0, select bank0
  2821  0B81  083D               	movf	?___flmul+3,w
  2822  0B82  00D7               	movwf	___fladd@b+3
  2823  0B83  083C               	movf	?___flmul+2,w
  2824  0B84  00D6               	movwf	___fladd@b+2
  2825  0B85  083B               	movf	?___flmul+1,w
  2826  0B86  00D5               	movwf	___fladd@b+1
  2827  0B87  083A               	movf	?___flmul,w
  2828  0B88  00D4               	movwf	___fladd@b
  2829  0B89  120A  118A  2386  120A  158A  	fcall	___fladd
  2830  0B8E  1283               	bcf	3,5	;RP0=0, select bank0
  2831  0B8F  1303               	bcf	3,6	;RP1=0, select bank0
  2832  0B90  0857               	movf	?___fladd+3,w
  2833  0B91  00EB               	movwf	___fltol@f1+3
  2834  0B92  0856               	movf	?___fladd+2,w
  2835  0B93  00EA               	movwf	___fltol@f1+2
  2836  0B94  0855               	movf	?___fladd+1,w
  2837  0B95  00E9               	movwf	___fltol@f1+1
  2838  0B96  0854               	movf	?___fladd,w
  2839  0B97  00E8               	movwf	___fltol@f1
  2840  0B98  120A  158A  21B7  120A  158A  	fcall	___fltol
  2841  0B9D  1283               	bcf	3,5	;RP0=0, select bank0
  2842  0B9E  1303               	bcf	3,6	;RP1=0, select bank0
  2843  0B9F  0869               	movf	?___fltol+1,w
  2844  0BA0  1683               	bsf	3,5	;RP0=1, select bank1
  2845  0BA1  1303               	bcf	3,6	;RP1=0, select bank1
  2846  0BA2  00A6               	movwf	(?_map+1)^(0+128)
  2847  0BA3  1283               	bcf	3,5	;RP0=0, select bank0
  2848  0BA4  1303               	bcf	3,6	;RP1=0, select bank0
  2849  0BA5  0868               	movf	?___fltol,w
  2850  0BA6  1683               	bsf	3,5	;RP0=1, select bank1
  2851  0BA7  1303               	bcf	3,6	;RP1=0, select bank1
  2852  0BA8  00A5               	movwf	?_map^(0+128)
  2853  0BA9                     i1l223:
  2854  0BA9  0008               	return
  2855  0BAA                     __end_of_map:
  2856                           
  2857                           	psect	text6
  2858  0BAA                     __ptext6:	
  2859 ;; *************** function ___xxtofl *****************
  2860 ;; Defined at:
  2861 ;;		line 10 in file "C:\Program Files\Microchip\xc8\v2.35\pic\sources\c90\common\xxtofl.c"
  2862 ;; Parameters:    Size  Location     Type
  2863 ;;  sign            1    wreg     unsigned char 
  2864 ;;  val             4    0[COMMON] long 
  2865 ;; Auto vars:     Size  Location     Type
  2866 ;;  sign            1    8[COMMON] unsigned char 
  2867 ;;  arg             4   10[COMMON] unsigned long 
  2868 ;;  exp             1    9[COMMON] unsigned char 
  2869 ;; Return value:  Size  Location     Type
  2870 ;;                  4    0[COMMON] unsigned char 
  2871 ;; Registers used:
  2872 ;;		wreg, status,2, status,0
  2873 ;; Tracked objects:
  2874 ;;		On entry : 0/0
  2875 ;;		On exit  : 0/0
  2876 ;;		Unchanged: 0/0
  2877 ;; Data sizes:     COMMON   BANK0   BANK1   BANK3   BANK2
  2878 ;;      Params:         4       0       0       0       0
  2879 ;;      Locals:         6       0       0       0       0
  2880 ;;      Temps:          4       0       0       0       0
  2881 ;;      Totals:        14       0       0       0       0
  2882 ;;Total ram usage:       14 bytes
  2883 ;; Hardware stack levels used: 1
  2884 ;; This function calls:
  2885 ;;		Nothing
  2886 ;; This function is called by:
  2887 ;;		_map
  2888 ;; This function uses a non-reentrant model
  2889 ;;
  2890                           
  2891  0BAA                     ___xxtofl:	
  2892                           ;psect for function ___xxtofl
  2893                           
  2894                           
  2895                           ;incstack = 0
  2896                           ; Regs used in ___xxtofl: [wreg+status,2+status,0]
  2897                           ;___xxtofl@sign stored from wreg
  2898  0BAA  00F8               	movwf	___xxtofl@sign
  2899  0BAB                     i1l2447:
  2900  0BAB  0878               	movf	___xxtofl@sign,w
  2901  0BAC  1903               	btfsc	3,2
  2902  0BAD  2BAF               	goto	u297_21
  2903  0BAE  2BB0               	goto	u297_20
  2904  0BAF                     u297_21:
  2905  0BAF  2BC4               	goto	i1l2453
  2906  0BB0                     u297_20:
  2907  0BB0                     i1l2449:
  2908  0BB0  1FF3               	btfss	___xxtofl@val+3,7
  2909  0BB1  2BB3               	goto	u298_21
  2910  0BB2  2BB4               	goto	u298_20
  2911  0BB3                     u298_21:
  2912  0BB3  2BC4               	goto	i1l2453
  2913  0BB4                     u298_20:
  2914  0BB4                     i1l2451:
  2915  0BB4  0970               	comf	___xxtofl@val,w
  2916  0BB5  00FA               	movwf	___xxtofl@arg
  2917  0BB6  0971               	comf	___xxtofl@val+1,w
  2918  0BB7  00FB               	movwf	___xxtofl@arg+1
  2919  0BB8  0972               	comf	___xxtofl@val+2,w
  2920  0BB9  00FC               	movwf	___xxtofl@arg+2
  2921  0BBA  0973               	comf	___xxtofl@val+3,w
  2922  0BBB  00FD               	movwf	___xxtofl@arg+3
  2923  0BBC  0AFA               	incf	___xxtofl@arg,f
  2924  0BBD  1903               	skipnz
  2925  0BBE  0AFB               	incf	___xxtofl@arg+1,f
  2926  0BBF  1903               	skipnz
  2927  0BC0  0AFC               	incf	___xxtofl@arg+2,f
  2928  0BC1  1903               	skipnz
  2929  0BC2  0AFD               	incf	___xxtofl@arg+3,f
  2930  0BC3  2BCC               	goto	i1l748
  2931  0BC4                     i1l2453:
  2932  0BC4  0873               	movf	___xxtofl@val+3,w
  2933  0BC5  00FD               	movwf	___xxtofl@arg+3
  2934  0BC6  0872               	movf	___xxtofl@val+2,w
  2935  0BC7  00FC               	movwf	___xxtofl@arg+2
  2936  0BC8  0871               	movf	___xxtofl@val+1,w
  2937  0BC9  00FB               	movwf	___xxtofl@arg+1
  2938  0BCA  0870               	movf	___xxtofl@val,w
  2939  0BCB  00FA               	movwf	___xxtofl@arg
  2940  0BCC                     i1l748:
  2941  0BCC  0873               	movf	___xxtofl@val+3,w
  2942  0BCD  0472               	iorwf	___xxtofl@val+2,w
  2943  0BCE  0471               	iorwf	___xxtofl@val+1,w
  2944  0BCF  0470               	iorwf	___xxtofl@val,w
  2945  0BD0  1D03               	skipz
  2946  0BD1  2BD3               	goto	u299_21
  2947  0BD2  2BD4               	goto	u299_20
  2948  0BD3                     u299_21:
  2949  0BD3  2BDD               	goto	i1l2459
  2950  0BD4                     u299_20:
  2951  0BD4                     i1l2455:
  2952  0BD4  3000               	movlw	0
  2953  0BD5  00F3               	movwf	?___xxtofl+3
  2954  0BD6  3000               	movlw	0
  2955  0BD7  00F2               	movwf	?___xxtofl+2
  2956  0BD8  3000               	movlw	0
  2957  0BD9  00F1               	movwf	?___xxtofl+1
  2958  0BDA  3000               	movlw	0
  2959  0BDB  00F0               	movwf	?___xxtofl
  2960  0BDC  2C63               	goto	i1l750
  2961  0BDD                     i1l2459:
  2962  0BDD  3096               	movlw	150
  2963  0BDE  00F4               	movwf	??___xxtofl
  2964  0BDF  0874               	movf	??___xxtofl,w
  2965  0BE0  00F9               	movwf	___xxtofl@exp
  2966  0BE1  2BEF               	goto	i1l2463
  2967  0BE2                     i1l2461:
  2968  0BE2  3001               	movlw	1
  2969  0BE3  00F4               	movwf	??___xxtofl
  2970  0BE4  0874               	movf	??___xxtofl,w
  2971  0BE5  07F9               	addwf	___xxtofl@exp,f
  2972  0BE6  3001               	movlw	1
  2973  0BE7                     u300_25:
  2974  0BE7  1003               	clrc
  2975  0BE8  0CFD               	rrf	___xxtofl@arg+3,f
  2976  0BE9  0CFC               	rrf	___xxtofl@arg+2,f
  2977  0BEA  0CFB               	rrf	___xxtofl@arg+1,f
  2978  0BEB  0CFA               	rrf	___xxtofl@arg,f
  2979  0BEC  3EFF               	addlw	-1
  2980  0BED  1D03               	skipz
  2981  0BEE  2BE7               	goto	u300_25
  2982  0BEF                     i1l2463:
  2983  0BEF  30FE               	movlw	254
  2984  0BF0  057D               	andwf	___xxtofl@arg+3,w
  2985  0BF1  1D03               	btfss	3,2
  2986  0BF2  2BF4               	goto	u301_21
  2987  0BF3  2BF5               	goto	u301_20
  2988  0BF4                     u301_21:
  2989  0BF4  2BE2               	goto	i1l2461
  2990  0BF5                     u301_20:
  2991  0BF5  2C11               	goto	i1l754
  2992  0BF6                     i1l2465:
  2993  0BF6  3001               	movlw	1
  2994  0BF7  00F4               	movwf	??___xxtofl
  2995  0BF8  0874               	movf	??___xxtofl,w
  2996  0BF9  07F9               	addwf	___xxtofl@exp,f
  2997  0BFA                     i1l2467:
  2998  0BFA  3001               	movlw	1
  2999  0BFB  07FA               	addwf	___xxtofl@arg,f
  3000  0BFC  3000               	movlw	0
  3001  0BFD  1803               	skipnc
  3002  0BFE  3001               	movlw	1
  3003  0BFF  07FB               	addwf	___xxtofl@arg+1,f
  3004  0C00  3000               	movlw	0
  3005  0C01  1803               	skipnc
  3006  0C02  3001               	movlw	1
  3007  0C03  07FC               	addwf	___xxtofl@arg+2,f
  3008  0C04  3000               	movlw	0
  3009  0C05  1803               	skipnc
  3010  0C06  3001               	movlw	1
  3011  0C07  07FD               	addwf	___xxtofl@arg+3,f
  3012  0C08                     i1l2469:
  3013  0C08  3001               	movlw	1
  3014  0C09                     u302_25:
  3015  0C09  1003               	clrc
  3016  0C0A  0CFD               	rrf	___xxtofl@arg+3,f
  3017  0C0B  0CFC               	rrf	___xxtofl@arg+2,f
  3018  0C0C  0CFB               	rrf	___xxtofl@arg+1,f
  3019  0C0D  0CFA               	rrf	___xxtofl@arg,f
  3020  0C0E  3EFF               	addlw	-1
  3021  0C0F  1D03               	skipz
  3022  0C10  2C09               	goto	u302_25
  3023  0C11                     i1l754:
  3024  0C11  30FF               	movlw	255
  3025  0C12  057D               	andwf	___xxtofl@arg+3,w
  3026  0C13  1D03               	btfss	3,2
  3027  0C14  2C16               	goto	u303_21
  3028  0C15  2C17               	goto	u303_20
  3029  0C16                     u303_21:
  3030  0C16  2BF6               	goto	i1l2465
  3031  0C17                     u303_20:
  3032  0C17  2C23               	goto	i1l2473
  3033  0C18                     i1l2471:
  3034  0C18  3001               	movlw	1
  3035  0C19  02F9               	subwf	___xxtofl@exp,f
  3036  0C1A  3001               	movlw	1
  3037  0C1B  00F4               	movwf	??___xxtofl
  3038  0C1C                     u304_25:
  3039  0C1C  1003               	clrc
  3040  0C1D  0DFA               	rlf	___xxtofl@arg,f
  3041  0C1E  0DFB               	rlf	___xxtofl@arg+1,f
  3042  0C1F  0DFC               	rlf	___xxtofl@arg+2,f
  3043  0C20  0DFD               	rlf	___xxtofl@arg+3,f
  3044  0C21  0BF4               	decfsz	??___xxtofl,f
  3045  0C22  2C1C               	goto	u304_25
  3046  0C23                     i1l2473:
  3047  0C23  1BFC               	btfsc	___xxtofl@arg+2,7
  3048  0C24  2C26               	goto	u305_21
  3049  0C25  2C27               	goto	u305_20
  3050  0C26                     u305_21:
  3051  0C26  2C2D               	goto	i1l761
  3052  0C27                     u305_20:
  3053  0C27                     i1l2475:
  3054  0C27  3002               	movlw	2
  3055  0C28  0279               	subwf	___xxtofl@exp,w
  3056  0C29  1803               	skipnc
  3057  0C2A  2C2C               	goto	u306_21
  3058  0C2B  2C2D               	goto	u306_20
  3059  0C2C                     u306_21:
  3060  0C2C  2C18               	goto	i1l2471
  3061  0C2D                     u306_20:
  3062  0C2D                     i1l761:
  3063  0C2D  1879               	btfsc	___xxtofl@exp,0
  3064  0C2E  2C30               	goto	u307_21
  3065  0C2F  2C31               	goto	u307_20
  3066  0C30                     u307_21:
  3067  0C30  2C39               	goto	i1l762
  3068  0C31                     u307_20:
  3069  0C31                     i1l2477:
  3070  0C31  30FF               	movlw	255
  3071  0C32  05FA               	andwf	___xxtofl@arg,f
  3072  0C33  30FF               	movlw	255
  3073  0C34  05FB               	andwf	___xxtofl@arg+1,f
  3074  0C35  307F               	movlw	127
  3075  0C36  05FC               	andwf	___xxtofl@arg+2,f
  3076  0C37  30FF               	movlw	255
  3077  0C38  05FD               	andwf	___xxtofl@arg+3,f
  3078  0C39                     i1l762:
  3079  0C39  1003               	clrc
  3080  0C3A  0CF9               	rrf	___xxtofl@exp,f
  3081  0C3B                     i1l2479:
  3082  0C3B  0879               	movf	___xxtofl@exp,w
  3083  0C3C  00F4               	movwf	??___xxtofl
  3084  0C3D  01F5               	clrf	??___xxtofl+1
  3085  0C3E  01F6               	clrf	??___xxtofl+2
  3086  0C3F  01F7               	clrf	??___xxtofl+3
  3087  0C40  3018               	movlw	24
  3088  0C41                     u308_25:
  3089  0C41  1003               	clrc
  3090  0C42  0DF4               	rlf	??___xxtofl,f
  3091  0C43  0DF5               	rlf	??___xxtofl+1,f
  3092  0C44  0DF6               	rlf	??___xxtofl+2,f
  3093  0C45  0DF7               	rlf	??___xxtofl+3,f
  3094  0C46                     u308_20:
  3095  0C46  3EFF               	addlw	-1
  3096  0C47  1D03               	skipz
  3097  0C48  2C41               	goto	u308_25
  3098  0C49  0874               	movf	??___xxtofl,w
  3099  0C4A  04FA               	iorwf	___xxtofl@arg,f
  3100  0C4B  0875               	movf	??___xxtofl+1,w
  3101  0C4C  04FB               	iorwf	___xxtofl@arg+1,f
  3102  0C4D  0876               	movf	??___xxtofl+2,w
  3103  0C4E  04FC               	iorwf	___xxtofl@arg+2,f
  3104  0C4F  0877               	movf	??___xxtofl+3,w
  3105  0C50  04FD               	iorwf	___xxtofl@arg+3,f
  3106  0C51                     i1l2481:
  3107  0C51  0878               	movf	___xxtofl@sign,w
  3108  0C52  1903               	btfsc	3,2
  3109  0C53  2C55               	goto	u309_21
  3110  0C54  2C56               	goto	u309_20
  3111  0C55                     u309_21:
  3112  0C55  2C5B               	goto	i1l2487
  3113  0C56                     u309_20:
  3114  0C56                     i1l2483:
  3115  0C56  1FF3               	btfss	___xxtofl@val+3,7
  3116  0C57  2C59               	goto	u310_21
  3117  0C58  2C5A               	goto	u310_20
  3118  0C59                     u310_21:
  3119  0C59  2C5B               	goto	i1l2487
  3120  0C5A                     u310_20:
  3121  0C5A                     i1l2485:
  3122  0C5A  17FD               	bsf	___xxtofl@arg+3,7
  3123  0C5B                     i1l2487:
  3124  0C5B  087D               	movf	___xxtofl@arg+3,w
  3125  0C5C  00F3               	movwf	?___xxtofl+3
  3126  0C5D  087C               	movf	___xxtofl@arg+2,w
  3127  0C5E  00F2               	movwf	?___xxtofl+2
  3128  0C5F  087B               	movf	___xxtofl@arg+1,w
  3129  0C60  00F1               	movwf	?___xxtofl+1
  3130  0C61  087A               	movf	___xxtofl@arg,w
  3131  0C62  00F0               	movwf	?___xxtofl
  3132  0C63                     i1l750:
  3133  0C63  0008               	return
  3134  0C64                     __end_of___xxtofl:
  3135                           
  3136                           	psect	text7
  3137  09B7                     __ptext7:	
  3138 ;; *************** function ___fltol *****************
  3139 ;; Defined at:
  3140 ;;		line 43 in file "C:\Program Files\Microchip\xc8\v2.35\pic\sources\c90\common\fltol.c"
  3141 ;; Parameters:    Size  Location     Type
  3142 ;;  f1              4   72[BANK0 ] unsigned char 
  3143 ;; Auto vars:     Size  Location     Type
  3144 ;;  exp1            1   77[BANK0 ] unsigned char 
  3145 ;;  sign1           1   76[BANK0 ] unsigned char 
  3146 ;; Return value:  Size  Location     Type
  3147 ;;                  4   72[BANK0 ] long 
  3148 ;; Registers used:
  3149 ;;		wreg, status,2, status,0
  3150 ;; Tracked objects:
  3151 ;;		On entry : 0/0
  3152 ;;		On exit  : 0/0
  3153 ;;		Unchanged: 0/0
  3154 ;; Data sizes:     COMMON   BANK0   BANK1   BANK3   BANK2
  3155 ;;      Params:         0       4       0       0       0
  3156 ;;      Locals:         0       2       0       0       0
  3157 ;;      Temps:          0       0       5       0       0
  3158 ;;      Totals:         0       6       5       0       0
  3159 ;;Total ram usage:       11 bytes
  3160 ;; Hardware stack levels used: 1
  3161 ;; This function calls:
  3162 ;;		Nothing
  3163 ;; This function is called by:
  3164 ;;		_map
  3165 ;; This function uses a non-reentrant model
  3166 ;;
  3167                           
  3168  09B7                     ___fltol:	
  3169                           ;psect for function ___fltol
  3170                           
  3171  09B7                     i1l1935:	
  3172                           ;incstack = 0
  3173                           ; Regs used in ___fltol: [wreg+status,2+status,0]
  3174                           
  3175  09B7  1003               	clrc
  3176  09B8  1283               	bcf	3,5	;RP0=0, select bank0
  3177  09B9  1303               	bcf	3,6	;RP1=0, select bank0
  3178  09BA  0D6A               	rlf	___fltol@f1+2,w
  3179  09BB  0D6B               	rlf	___fltol@f1+3,w
  3180  09BC  1683               	bsf	3,5	;RP0=1, select bank1
  3181  09BD  1303               	bcf	3,6	;RP1=0, select bank1
  3182  09BE  00A0               	movwf	??___fltol^(0+128)
  3183  09BF  0820               	movf	??___fltol^(0+128),w
  3184  09C0  1283               	bcf	3,5	;RP0=0, select bank0
  3185  09C1  1303               	bcf	3,6	;RP1=0, select bank0
  3186  09C2  00ED               	movwf	___fltol@exp1
  3187  09C3  086D               	movf	___fltol@exp1,w
  3188  09C4  1D03               	btfss	3,2
  3189  09C5  29C7               	goto	u175_21
  3190  09C6  29C8               	goto	u175_20
  3191  09C7                     u175_21:
  3192  09C7  29D1               	goto	i1l1941
  3193  09C8                     u175_20:
  3194  09C8                     i1l1937:
  3195  09C8  3000               	movlw	0
  3196  09C9  00EB               	movwf	?___fltol+3
  3197  09CA  3000               	movlw	0
  3198  09CB  00EA               	movwf	?___fltol+2
  3199  09CC  3000               	movlw	0
  3200  09CD  00E9               	movwf	?___fltol+1
  3201  09CE  3000               	movlw	0
  3202  09CF  00E8               	movwf	?___fltol
  3203  09D0  2A52               	goto	i1l501
  3204  09D1                     i1l1941:
  3205  09D1  0868               	movf	___fltol@f1,w
  3206  09D2  1683               	bsf	3,5	;RP0=1, select bank1
  3207  09D3  1303               	bcf	3,6	;RP1=0, select bank1
  3208  09D4  00A0               	movwf	??___fltol^(0+128)
  3209  09D5  1283               	bcf	3,5	;RP0=0, select bank0
  3210  09D6  1303               	bcf	3,6	;RP1=0, select bank0
  3211  09D7  0869               	movf	___fltol@f1+1,w
  3212  09D8  1683               	bsf	3,5	;RP0=1, select bank1
  3213  09D9  1303               	bcf	3,6	;RP1=0, select bank1
  3214  09DA  00A1               	movwf	(??___fltol^(0+128)+1)
  3215  09DB  1283               	bcf	3,5	;RP0=0, select bank0
  3216  09DC  1303               	bcf	3,6	;RP1=0, select bank0
  3217  09DD  086A               	movf	___fltol@f1+2,w
  3218  09DE  1683               	bsf	3,5	;RP0=1, select bank1
  3219  09DF  1303               	bcf	3,6	;RP1=0, select bank1
  3220  09E0  00A2               	movwf	(??___fltol^(0+128)+2)
  3221  09E1  1283               	bcf	3,5	;RP0=0, select bank0
  3222  09E2  1303               	bcf	3,6	;RP1=0, select bank0
  3223  09E3  086B               	movf	___fltol@f1+3,w
  3224  09E4  1683               	bsf	3,5	;RP0=1, select bank1
  3225  09E5  1303               	bcf	3,6	;RP1=0, select bank1
  3226  09E6  00A3               	movwf	(??___fltol^(0+128)+3)
  3227  09E7  301F               	movlw	31
  3228  09E8                     u176_25:
  3229  09E8  1003               	clrc
  3230  09E9  0CA3               	rrf	(??___fltol^(0+128)+3),f
  3231  09EA  0CA2               	rrf	(??___fltol^(0+128)+2),f
  3232  09EB  0CA1               	rrf	(??___fltol^(0+128)+1),f
  3233  09EC  0CA0               	rrf	??___fltol^(0+128),f
  3234  09ED                     u176_20:
  3235  09ED  3EFF               	addlw	-1
  3236  09EE  1D03               	skipz
  3237  09EF  29E8               	goto	u176_25
  3238  09F0  0820               	movf	??___fltol^(0+128),w
  3239  09F1  00A4               	movwf	(??___fltol+4)^(0+128)
  3240  09F2  0824               	movf	(??___fltol+4)^(0+128),w
  3241  09F3  1283               	bcf	3,5	;RP0=0, select bank0
  3242  09F4  1303               	bcf	3,6	;RP1=0, select bank0
  3243  09F5  00EC               	movwf	___fltol@sign1
  3244  09F6                     i1l1943:
  3245  09F6  17EA               	bsf	___fltol@f1+2,7
  3246  09F7                     i1l1945:
  3247  09F7  30FF               	movlw	255
  3248  09F8  05E8               	andwf	___fltol@f1,f
  3249  09F9  30FF               	movlw	255
  3250  09FA  05E9               	andwf	___fltol@f1+1,f
  3251  09FB  30FF               	movlw	255
  3252  09FC  05EA               	andwf	___fltol@f1+2,f
  3253  09FD  3000               	movlw	0
  3254  09FE  05EB               	andwf	___fltol@f1+3,f
  3255  09FF                     i1l1947:
  3256  09FF  3096               	movlw	150
  3257  0A00  02ED               	subwf	___fltol@exp1,f
  3258  0A01                     i1l1949:
  3259  0A01  1FED               	btfss	___fltol@exp1,7
  3260  0A02  2A04               	goto	u177_21
  3261  0A03  2A05               	goto	u177_20
  3262  0A04                     u177_21:
  3263  0A04  2A23               	goto	i1l1959
  3264  0A05                     u177_20:
  3265  0A05                     i1l1951:
  3266  0A05  086D               	movf	___fltol@exp1,w
  3267  0A06  3A80               	xorlw	128
  3268  0A07  3E97               	addlw	151
  3269  0A08  1803               	skipnc
  3270  0A09  2A0B               	goto	u178_21
  3271  0A0A  2A0C               	goto	u178_20
  3272  0A0B                     u178_21:
  3273  0A0B  2A0D               	goto	i1l1957
  3274  0A0C                     u178_20:
  3275  0A0C  29C8               	goto	i1l1937
  3276  0A0D                     i1l1957:
  3277  0A0D  3001               	movlw	1
  3278  0A0E                     u179_25:
  3279  0A0E  1003               	clrc
  3280  0A0F  0CEB               	rrf	___fltol@f1+3,f
  3281  0A10  0CEA               	rrf	___fltol@f1+2,f
  3282  0A11  0CE9               	rrf	___fltol@f1+1,f
  3283  0A12  0CE8               	rrf	___fltol@f1,f
  3284  0A13  3EFF               	addlw	-1
  3285  0A14  1D03               	skipz
  3286  0A15  2A0E               	goto	u179_25
  3287  0A16  3001               	movlw	1
  3288  0A17  1683               	bsf	3,5	;RP0=1, select bank1
  3289  0A18  1303               	bcf	3,6	;RP1=0, select bank1
  3290  0A19  00A0               	movwf	??___fltol^(0+128)
  3291  0A1A  0820               	movf	??___fltol^(0+128),w
  3292  0A1B  1283               	bcf	3,5	;RP0=0, select bank0
  3293  0A1C  1303               	bcf	3,6	;RP1=0, select bank0
  3294  0A1D  07ED               	addwf	___fltol@exp1,f
  3295  0A1E  1D03               	btfss	3,2
  3296  0A1F  2A21               	goto	u180_21
  3297  0A20  2A22               	goto	u180_20
  3298  0A21                     u180_21:
  3299  0A21  2A0D               	goto	i1l1957
  3300  0A22                     u180_20:
  3301  0A22  2A42               	goto	i1l1967
  3302  0A23                     i1l1959:
  3303  0A23  3020               	movlw	32
  3304  0A24  026D               	subwf	___fltol@exp1,w
  3305  0A25  1C03               	skipc
  3306  0A26  2A28               	goto	u181_21
  3307  0A27  2A29               	goto	u181_20
  3308  0A28                     u181_21:
  3309  0A28  2A3D               	goto	i1l508
  3310  0A29                     u181_20:
  3311  0A29  29C8               	goto	i1l1937
  3312  0A2A                     i1l1965:
  3313  0A2A  3001               	movlw	1
  3314  0A2B  1683               	bsf	3,5	;RP0=1, select bank1
  3315  0A2C  1303               	bcf	3,6	;RP1=0, select bank1
  3316  0A2D  00A0               	movwf	??___fltol^(0+128)
  3317  0A2E                     u182_25:
  3318  0A2E  1003               	clrc
  3319  0A2F  1283               	bcf	3,5	;RP0=0, select bank0
  3320  0A30  1303               	bcf	3,6	;RP1=0, select bank0
  3321  0A31  0DE8               	rlf	___fltol@f1,f
  3322  0A32  0DE9               	rlf	___fltol@f1+1,f
  3323  0A33  0DEA               	rlf	___fltol@f1+2,f
  3324  0A34  0DEB               	rlf	___fltol@f1+3,f
  3325  0A35  1683               	bsf	3,5	;RP0=1, select bank1
  3326  0A36  1303               	bcf	3,6	;RP1=0, select bank1
  3327  0A37  0BA0               	decfsz	??___fltol^(0+128),f
  3328  0A38  2A2E               	goto	u182_25
  3329  0A39  3001               	movlw	1
  3330  0A3A  1283               	bcf	3,5	;RP0=0, select bank0
  3331  0A3B  1303               	bcf	3,6	;RP1=0, select bank0
  3332  0A3C  02ED               	subwf	___fltol@exp1,f
  3333  0A3D                     i1l508:
  3334  0A3D  086D               	movf	___fltol@exp1,w
  3335  0A3E  1D03               	btfss	3,2
  3336  0A3F  2A41               	goto	u183_21
  3337  0A40  2A42               	goto	u183_20
  3338  0A41                     u183_21:
  3339  0A41  2A2A               	goto	i1l1965
  3340  0A42                     u183_20:
  3341  0A42                     i1l1967:
  3342  0A42  086C               	movf	___fltol@sign1,w
  3343  0A43  1903               	btfsc	3,2
  3344  0A44  2A46               	goto	u184_21
  3345  0A45  2A47               	goto	u184_20
  3346  0A46                     u184_21:
  3347  0A46  2A52               	goto	i1l511
  3348  0A47                     u184_20:
  3349  0A47                     i1l1969:
  3350  0A47  09E8               	comf	___fltol@f1,f
  3351  0A48  09E9               	comf	___fltol@f1+1,f
  3352  0A49  09EA               	comf	___fltol@f1+2,f
  3353  0A4A  09EB               	comf	___fltol@f1+3,f
  3354  0A4B  0AE8               	incf	___fltol@f1,f
  3355  0A4C  1903               	skipnz
  3356  0A4D  0AE9               	incf	___fltol@f1+1,f
  3357  0A4E  1903               	skipnz
  3358  0A4F  0AEA               	incf	___fltol@f1+2,f
  3359  0A50  1903               	skipnz
  3360  0A51  0AEB               	incf	___fltol@f1+3,f
  3361  0A52                     i1l511:
  3362  0A52                     i1l501:
  3363  0A52  0008               	return
  3364  0A53                     __end_of___fltol:
  3365                           
  3366                           	psect	text8
  3367  0025                     __ptext8:	
  3368 ;; *************** function ___flmul *****************
  3369 ;; Defined at:
  3370 ;;		line 8 in file "C:\Program Files\Microchip\xc8\v2.35\pic\sources\c90\common\sprcmul.c"
  3371 ;; Parameters:    Size  Location     Type
  3372 ;;  b               4   26[BANK0 ] long 
  3373 ;;  a               4   30[BANK0 ] long 
  3374 ;; Auto vars:     Size  Location     Type
  3375 ;;  prod            4   46[BANK0 ] struct .
  3376 ;;  grs             4   40[BANK0 ] unsigned long 
  3377 ;;  temp            2   50[BANK0 ] struct .
  3378 ;;  bexp            1   45[BANK0 ] unsigned char 
  3379 ;;  aexp            1   44[BANK0 ] unsigned char 
  3380 ;;  sign            1   39[BANK0 ] unsigned char 
  3381 ;; Return value:  Size  Location     Type
  3382 ;;                  4   26[BANK0 ] unsigned char 
  3383 ;; Registers used:
  3384 ;;		wreg, status,2, status,0, btemp+1, pclath, cstack
  3385 ;; Tracked objects:
  3386 ;;		On entry : 0/0
  3387 ;;		On exit  : 0/0
  3388 ;;		Unchanged: 0/0
  3389 ;; Data sizes:     COMMON   BANK0   BANK1   BANK3   BANK2
  3390 ;;      Params:         0       8       0       0       0
  3391 ;;      Locals:         0      13       0       0       0
  3392 ;;      Temps:          0       5       0       0       0
  3393 ;;      Totals:         0      26       0       0       0
  3394 ;;Total ram usage:       26 bytes
  3395 ;; Hardware stack levels used: 1
  3396 ;; Hardware stack levels required when called: 1
  3397 ;; This function calls:
  3398 ;;		__Umul8_16
  3399 ;; This function is called by:
  3400 ;;		_map
  3401 ;; This function uses a non-reentrant model
  3402 ;;
  3403                           
  3404  0025                     ___flmul:	
  3405                           ;psect for function ___flmul
  3406                           
  3407  0025                     i1l2307:	
  3408                           ;incstack = 0
  3409                           ; Regs used in ___flmul: [wreg+status,2+status,0+btemp+1+pclath+cstack]
  3410                           
  3411  0025  1283               	bcf	3,5	;RP0=0, select bank0
  3412  0026  1303               	bcf	3,6	;RP1=0, select bank0
  3413  0027  083D               	movf	___flmul@b+3,w
  3414  0028  3980               	andlw	128
  3415  0029  00C2               	movwf	??___flmul
  3416  002A  0842               	movf	??___flmul,w
  3417  002B  00C7               	movwf	___flmul@sign
  3418  002C                     i1l2309:
  3419  002C  083D               	movf	___flmul@b+3,w
  3420  002D  00C2               	movwf	??___flmul
  3421  002E  0742               	addwf	??___flmul,w
  3422  002F  00C3               	movwf	??___flmul+1
  3423  0030  0843               	movf	??___flmul+1,w
  3424  0031  00CD               	movwf	___flmul@bexp
  3425  0032                     i1l2311:
  3426  0032  1FBC               	btfss	___flmul@b+2,7
  3427  0033  2835               	goto	u260_21
  3428  0034  2836               	goto	u260_20
  3429  0035                     u260_21:
  3430  0035  2837               	goto	i1l2315
  3431  0036                     u260_20:
  3432  0036                     i1l2313:
  3433  0036  144D               	bsf	___flmul@bexp,0
  3434  0037                     i1l2315:
  3435  0037  084D               	movf	___flmul@bexp,w
  3436  0038  1903               	btfsc	3,2
  3437  0039  283B               	goto	u261_21
  3438  003A  283C               	goto	u261_20
  3439  003B                     u261_21:
  3440  003B  284B               	goto	i1l2323
  3441  003C                     u261_20:
  3442  003C                     i1l2317:
  3443  003C  0A4D               	incf	___flmul@bexp,w
  3444  003D  1D03               	btfss	3,2
  3445  003E  2840               	goto	u262_21
  3446  003F  2841               	goto	u262_20
  3447  0040                     u262_21:
  3448  0040  2849               	goto	i1l2321
  3449  0041                     u262_20:
  3450  0041                     i1l2319:
  3451  0041  3000               	movlw	0
  3452  0042  00BD               	movwf	___flmul@b+3
  3453  0043  3000               	movlw	0
  3454  0044  00BC               	movwf	___flmul@b+2
  3455  0045  3000               	movlw	0
  3456  0046  00BB               	movwf	___flmul@b+1
  3457  0047  3000               	movlw	0
  3458  0048  00BA               	movwf	___flmul@b
  3459  0049                     i1l2321:
  3460  0049  17BC               	bsf	___flmul@b+2,7
  3461  004A  2853               	goto	i1l2325
  3462  004B                     i1l2323:
  3463  004B  3000               	movlw	0
  3464  004C  00BD               	movwf	___flmul@b+3
  3465  004D  3000               	movlw	0
  3466  004E  00BC               	movwf	___flmul@b+2
  3467  004F  3000               	movlw	0
  3468  0050  00BB               	movwf	___flmul@b+1
  3469  0051  3000               	movlw	0
  3470  0052  00BA               	movwf	___flmul@b
  3471  0053                     i1l2325:
  3472  0053  0841               	movf	___flmul@a+3,w
  3473  0054  3980               	andlw	128
  3474  0055  00C2               	movwf	??___flmul
  3475  0056  0842               	movf	??___flmul,w
  3476  0057  06C7               	xorwf	___flmul@sign,f
  3477  0058                     i1l2327:
  3478  0058  0841               	movf	___flmul@a+3,w
  3479  0059  00C2               	movwf	??___flmul
  3480  005A  0742               	addwf	??___flmul,w
  3481  005B  00C3               	movwf	??___flmul+1
  3482  005C  0843               	movf	??___flmul+1,w
  3483  005D  00CC               	movwf	___flmul@aexp
  3484  005E                     i1l2329:
  3485  005E  1FC0               	btfss	___flmul@a+2,7
  3486  005F  2861               	goto	u263_21
  3487  0060  2862               	goto	u263_20
  3488  0061                     u263_21:
  3489  0061  2863               	goto	i1l2333
  3490  0062                     u263_20:
  3491  0062                     i1l2331:
  3492  0062  144C               	bsf	___flmul@aexp,0
  3493  0063                     i1l2333:
  3494  0063  084C               	movf	___flmul@aexp,w
  3495  0064  1903               	btfsc	3,2
  3496  0065  2867               	goto	u264_21
  3497  0066  2868               	goto	u264_20
  3498  0067                     u264_21:
  3499  0067  2877               	goto	i1l2341
  3500  0068                     u264_20:
  3501  0068                     i1l2335:
  3502  0068  0A4C               	incf	___flmul@aexp,w
  3503  0069  1D03               	btfss	3,2
  3504  006A  286C               	goto	u265_21
  3505  006B  286D               	goto	u265_20
  3506  006C                     u265_21:
  3507  006C  2875               	goto	i1l2339
  3508  006D                     u265_20:
  3509  006D                     i1l2337:
  3510  006D  3000               	movlw	0
  3511  006E  00C1               	movwf	___flmul@a+3
  3512  006F  3000               	movlw	0
  3513  0070  00C0               	movwf	___flmul@a+2
  3514  0071  3000               	movlw	0
  3515  0072  00BF               	movwf	___flmul@a+1
  3516  0073  3000               	movlw	0
  3517  0074  00BE               	movwf	___flmul@a
  3518  0075                     i1l2339:
  3519  0075  17C0               	bsf	___flmul@a+2,7
  3520  0076  287F               	goto	i1l2343
  3521  0077                     i1l2341:
  3522  0077  3000               	movlw	0
  3523  0078  00C1               	movwf	___flmul@a+3
  3524  0079  3000               	movlw	0
  3525  007A  00C0               	movwf	___flmul@a+2
  3526  007B  3000               	movlw	0
  3527  007C  00BF               	movwf	___flmul@a+1
  3528  007D  3000               	movlw	0
  3529  007E  00BE               	movwf	___flmul@a
  3530  007F                     i1l2343:
  3531  007F  084C               	movf	___flmul@aexp,w
  3532  0080  1903               	btfsc	3,2
  3533  0081  2883               	goto	u266_21
  3534  0082  2884               	goto	u266_20
  3535  0083                     u266_21:
  3536  0083  2889               	goto	i1l2347
  3537  0084                     u266_20:
  3538  0084                     i1l2345:
  3539  0084  084D               	movf	___flmul@bexp,w
  3540  0085  1D03               	btfss	3,2
  3541  0086  2888               	goto	u267_21
  3542  0087  2889               	goto	u267_20
  3543  0088                     u267_21:
  3544  0088  2892               	goto	i1l2351
  3545  0089                     u267_20:
  3546  0089                     i1l2347:
  3547  0089  3000               	movlw	0
  3548  008A  00BD               	movwf	?___flmul+3
  3549  008B  3000               	movlw	0
  3550  008C  00BC               	movwf	?___flmul+2
  3551  008D  3000               	movlw	0
  3552  008E  00BB               	movwf	?___flmul+1
  3553  008F  3000               	movlw	0
  3554  0090  00BA               	movwf	?___flmul
  3555  0091  2B85               	goto	i1l704
  3556  0092                     i1l2351:
  3557  0092  083A               	movf	___flmul@b,w
  3558  0093  00C2               	movwf	??___flmul
  3559  0094  0842               	movf	??___flmul,w
  3560  0095  00F0               	movwf	__Umul8_16@multiplicand
  3561  0096  0840               	movf	___flmul@a+2,w
  3562  0097  120A  158A  2190  120A  118A  	fcall	__Umul8_16
  3563  009C  0871               	movf	?__Umul8_16+1,w
  3564  009D  1283               	bcf	3,5	;RP0=0, select bank0
  3565  009E  1303               	bcf	3,6	;RP1=0, select bank0
  3566  009F  00D3               	movwf	___flmul@temp+1
  3567  00A0  0870               	movf	?__Umul8_16,w
  3568  00A1  00D2               	movwf	___flmul@temp
  3569  00A2                     i1l2353:
  3570  00A2  0852               	movf	___flmul@temp,w
  3571  00A3  00C2               	movwf	??___flmul
  3572  00A4  01C3               	clrf	??___flmul+1
  3573  00A5  01C4               	clrf	??___flmul+2
  3574  00A6  01C5               	clrf	??___flmul+3
  3575  00A7  0845               	movf	??___flmul+3,w
  3576  00A8  00CB               	movwf	___flmul@grs+3
  3577  00A9  0844               	movf	??___flmul+2,w
  3578  00AA  00CA               	movwf	___flmul@grs+2
  3579  00AB  0843               	movf	??___flmul+1,w
  3580  00AC  00C9               	movwf	___flmul@grs+1
  3581  00AD  0842               	movf	??___flmul,w
  3582  00AE  00C8               	movwf	___flmul@grs
  3583  00AF                     i1l2355:
  3584  00AF  0853               	movf	___flmul@temp+1,w
  3585  00B0  00C2               	movwf	??___flmul
  3586  00B1  01C3               	clrf	??___flmul+1
  3587  00B2  01C4               	clrf	??___flmul+2
  3588  00B3  01C5               	clrf	??___flmul+3
  3589  00B4  0845               	movf	??___flmul+3,w
  3590  00B5  00D1               	movwf	___flmul@prod+3
  3591  00B6  0844               	movf	??___flmul+2,w
  3592  00B7  00D0               	movwf	___flmul@prod+2
  3593  00B8  0843               	movf	??___flmul+1,w
  3594  00B9  00CF               	movwf	___flmul@prod+1
  3595  00BA  0842               	movf	??___flmul,w
  3596  00BB  00CE               	movwf	___flmul@prod
  3597  00BC  083B               	movf	___flmul@b+1,w
  3598  00BD  00C2               	movwf	??___flmul
  3599  00BE  0842               	movf	??___flmul,w
  3600  00BF  00F0               	movwf	__Umul8_16@multiplicand
  3601  00C0  083F               	movf	___flmul@a+1,w
  3602  00C1  120A  158A  2190  120A  118A  	fcall	__Umul8_16
  3603  00C6  0871               	movf	?__Umul8_16+1,w
  3604  00C7  1283               	bcf	3,5	;RP0=0, select bank0
  3605  00C8  1303               	bcf	3,6	;RP1=0, select bank0
  3606  00C9  00D3               	movwf	___flmul@temp+1
  3607  00CA  0870               	movf	?__Umul8_16,w
  3608  00CB  00D2               	movwf	___flmul@temp
  3609  00CC                     i1l2357:
  3610  00CC  0852               	movf	___flmul@temp,w
  3611  00CD  00C2               	movwf	??___flmul
  3612  00CE  01C3               	clrf	??___flmul+1
  3613  00CF  01C4               	clrf	??___flmul+2
  3614  00D0  01C5               	clrf	??___flmul+3
  3615  00D1  0842               	movf	??___flmul,w
  3616  00D2  07C8               	addwf	___flmul@grs,f
  3617  00D3  0843               	movf	??___flmul+1,w
  3618  00D4  1103               	clrz
  3619  00D5  1803               	skipnc
  3620  00D6  3E01               	addlw	1
  3621  00D7  1903               	skipnz
  3622  00D8  28DA               	goto	u268_21
  3623  00D9  07C9               	addwf	___flmul@grs+1,f
  3624  00DA                     u268_21:
  3625  00DA  0844               	movf	??___flmul+2,w
  3626  00DB  1103               	clrz
  3627  00DC  1803               	skipnc
  3628  00DD  3E01               	addlw	1
  3629  00DE  1903               	skipnz
  3630  00DF  28E1               	goto	u268_22
  3631  00E0  07CA               	addwf	___flmul@grs+2,f
  3632  00E1                     u268_22:
  3633  00E1  0845               	movf	??___flmul+3,w
  3634  00E2  1103               	clrz
  3635  00E3  1803               	skipnc
  3636  00E4  3E01               	addlw	1
  3637  00E5  1903               	skipnz
  3638  00E6  28E8               	goto	u268_23
  3639  00E7  07CB               	addwf	___flmul@grs+3,f
  3640  00E8                     u268_23:
  3641  00E8                     i1l2359:
  3642  00E8  0853               	movf	___flmul@temp+1,w
  3643  00E9  00C2               	movwf	??___flmul
  3644  00EA  01C3               	clrf	??___flmul+1
  3645  00EB  01C4               	clrf	??___flmul+2
  3646  00EC  01C5               	clrf	??___flmul+3
  3647  00ED  0842               	movf	??___flmul,w
  3648  00EE  07CE               	addwf	___flmul@prod,f
  3649  00EF  0843               	movf	??___flmul+1,w
  3650  00F0  1103               	clrz
  3651  00F1  1803               	skipnc
  3652  00F2  3E01               	addlw	1
  3653  00F3  1903               	skipnz
  3654  00F4  28F6               	goto	u269_21
  3655  00F5  07CF               	addwf	___flmul@prod+1,f
  3656  00F6                     u269_21:
  3657  00F6  0844               	movf	??___flmul+2,w
  3658  00F7  1103               	clrz
  3659  00F8  1803               	skipnc
  3660  00F9  3E01               	addlw	1
  3661  00FA  1903               	skipnz
  3662  00FB  28FD               	goto	u269_22
  3663  00FC  07D0               	addwf	___flmul@prod+2,f
  3664  00FD                     u269_22:
  3665  00FD  0845               	movf	??___flmul+3,w
  3666  00FE  1103               	clrz
  3667  00FF  1803               	skipnc
  3668  0100  3E01               	addlw	1
  3669  0101  1903               	skipnz
  3670  0102  2904               	goto	u269_23
  3671  0103  07D1               	addwf	___flmul@prod+3,f
  3672  0104                     u269_23:
  3673  0104  083C               	movf	___flmul@b+2,w
  3674  0105  00C2               	movwf	??___flmul
  3675  0106  0842               	movf	??___flmul,w
  3676  0107  00F0               	movwf	__Umul8_16@multiplicand
  3677  0108  083E               	movf	___flmul@a,w
  3678  0109  120A  158A  2190  120A  118A  	fcall	__Umul8_16
  3679  010E  0871               	movf	?__Umul8_16+1,w
  3680  010F  1283               	bcf	3,5	;RP0=0, select bank0
  3681  0110  1303               	bcf	3,6	;RP1=0, select bank0
  3682  0111  00D3               	movwf	___flmul@temp+1
  3683  0112  0870               	movf	?__Umul8_16,w
  3684  0113  00D2               	movwf	___flmul@temp
  3685  0114                     i1l2361:
  3686  0114  0852               	movf	___flmul@temp,w
  3687  0115  00C2               	movwf	??___flmul
  3688  0116  01C3               	clrf	??___flmul+1
  3689  0117  01C4               	clrf	??___flmul+2
  3690  0118  01C5               	clrf	??___flmul+3
  3691  0119  0842               	movf	??___flmul,w
  3692  011A  07C8               	addwf	___flmul@grs,f
  3693  011B  0843               	movf	??___flmul+1,w
  3694  011C  1103               	clrz
  3695  011D  1803               	skipnc
  3696  011E  3E01               	addlw	1
  3697  011F  1903               	skipnz
  3698  0120  2922               	goto	u270_21
  3699  0121  07C9               	addwf	___flmul@grs+1,f
  3700  0122                     u270_21:
  3701  0122  0844               	movf	??___flmul+2,w
  3702  0123  1103               	clrz
  3703  0124  1803               	skipnc
  3704  0125  3E01               	addlw	1
  3705  0126  1903               	skipnz
  3706  0127  2929               	goto	u270_22
  3707  0128  07CA               	addwf	___flmul@grs+2,f
  3708  0129                     u270_22:
  3709  0129  0845               	movf	??___flmul+3,w
  3710  012A  1103               	clrz
  3711  012B  1803               	skipnc
  3712  012C  3E01               	addlw	1
  3713  012D  1903               	skipnz
  3714  012E  2930               	goto	u270_23
  3715  012F  07CB               	addwf	___flmul@grs+3,f
  3716  0130                     u270_23:
  3717  0130                     i1l2363:
  3718  0130  0853               	movf	___flmul@temp+1,w
  3719  0131  00C2               	movwf	??___flmul
  3720  0132  01C3               	clrf	??___flmul+1
  3721  0133  01C4               	clrf	??___flmul+2
  3722  0134  01C5               	clrf	??___flmul+3
  3723  0135  0842               	movf	??___flmul,w
  3724  0136  07CE               	addwf	___flmul@prod,f
  3725  0137  0843               	movf	??___flmul+1,w
  3726  0138  1103               	clrz
  3727  0139  1803               	skipnc
  3728  013A  3E01               	addlw	1
  3729  013B  1903               	skipnz
  3730  013C  293E               	goto	u271_21
  3731  013D  07CF               	addwf	___flmul@prod+1,f
  3732  013E                     u271_21:
  3733  013E  0844               	movf	??___flmul+2,w
  3734  013F  1103               	clrz
  3735  0140  1803               	skipnc
  3736  0141  3E01               	addlw	1
  3737  0142  1903               	skipnz
  3738  0143  2945               	goto	u271_22
  3739  0144  07D0               	addwf	___flmul@prod+2,f
  3740  0145                     u271_22:
  3741  0145  0845               	movf	??___flmul+3,w
  3742  0146  1103               	clrz
  3743  0147  1803               	skipnc
  3744  0148  3E01               	addlw	1
  3745  0149  1903               	skipnz
  3746  014A  294C               	goto	u271_23
  3747  014B  07D1               	addwf	___flmul@prod+3,f
  3748  014C                     u271_23:
  3749  014C                     i1l2365:
  3750  014C  3008               	movlw	8
  3751  014D  00C2               	movwf	??___flmul
  3752  014E                     u272_25:
  3753  014E  1003               	clrc
  3754  014F  0DC8               	rlf	___flmul@grs,f
  3755  0150  0DC9               	rlf	___flmul@grs+1,f
  3756  0151  0DCA               	rlf	___flmul@grs+2,f
  3757  0152  0DCB               	rlf	___flmul@grs+3,f
  3758  0153  0BC2               	decfsz	??___flmul,f
  3759  0154  294E               	goto	u272_25
  3760  0155                     i1l2367:
  3761  0155  083B               	movf	___flmul@b+1,w
  3762  0156  00C2               	movwf	??___flmul
  3763  0157  0842               	movf	??___flmul,w
  3764  0158  00F0               	movwf	__Umul8_16@multiplicand
  3765  0159  083E               	movf	___flmul@a,w
  3766  015A  120A  158A  2190  120A  118A  	fcall	__Umul8_16
  3767  015F  0871               	movf	?__Umul8_16+1,w
  3768  0160  1283               	bcf	3,5	;RP0=0, select bank0
  3769  0161  1303               	bcf	3,6	;RP1=0, select bank0
  3770  0162  00D3               	movwf	___flmul@temp+1
  3771  0163  0870               	movf	?__Umul8_16,w
  3772  0164  00D2               	movwf	___flmul@temp
  3773  0165                     i1l2369:
  3774  0165  0852               	movf	___flmul@temp,w
  3775  0166  00C2               	movwf	??___flmul
  3776  0167  0853               	movf	___flmul@temp+1,w
  3777  0168  00C3               	movwf	??___flmul+1
  3778  0169  01C4               	clrf	??___flmul+2
  3779  016A  01C5               	clrf	??___flmul+3
  3780  016B  0842               	movf	??___flmul,w
  3781  016C  07C8               	addwf	___flmul@grs,f
  3782  016D  0843               	movf	??___flmul+1,w
  3783  016E  1103               	clrz
  3784  016F  1803               	skipnc
  3785  0170  3E01               	addlw	1
  3786  0171  1903               	skipnz
  3787  0172  2974               	goto	u273_21
  3788  0173  07C9               	addwf	___flmul@grs+1,f
  3789  0174                     u273_21:
  3790  0174  0844               	movf	??___flmul+2,w
  3791  0175  1103               	clrz
  3792  0176  1803               	skipnc
  3793  0177  3E01               	addlw	1
  3794  0178  1903               	skipnz
  3795  0179  297B               	goto	u273_22
  3796  017A  07CA               	addwf	___flmul@grs+2,f
  3797  017B                     u273_22:
  3798  017B  0845               	movf	??___flmul+3,w
  3799  017C  1103               	clrz
  3800  017D  1803               	skipnc
  3801  017E  3E01               	addlw	1
  3802  017F  1903               	skipnz
  3803  0180  2982               	goto	u273_23
  3804  0181  07CB               	addwf	___flmul@grs+3,f
  3805  0182                     u273_23:
  3806  0182                     i1l2371:
  3807  0182  083A               	movf	___flmul@b,w
  3808  0183  00C2               	movwf	??___flmul
  3809  0184  0842               	movf	??___flmul,w
  3810  0185  00F0               	movwf	__Umul8_16@multiplicand
  3811  0186  083F               	movf	___flmul@a+1,w
  3812  0187  120A  158A  2190  120A  118A  	fcall	__Umul8_16
  3813  018C  0871               	movf	?__Umul8_16+1,w
  3814  018D  1283               	bcf	3,5	;RP0=0, select bank0
  3815  018E  1303               	bcf	3,6	;RP1=0, select bank0
  3816  018F  00D3               	movwf	___flmul@temp+1
  3817  0190  0870               	movf	?__Umul8_16,w
  3818  0191  00D2               	movwf	___flmul@temp
  3819  0192                     i1l2373:
  3820  0192  0852               	movf	___flmul@temp,w
  3821  0193  00C2               	movwf	??___flmul
  3822  0194  0853               	movf	___flmul@temp+1,w
  3823  0195  00C3               	movwf	??___flmul+1
  3824  0196  01C4               	clrf	??___flmul+2
  3825  0197  01C5               	clrf	??___flmul+3
  3826  0198  0842               	movf	??___flmul,w
  3827  0199  07C8               	addwf	___flmul@grs,f
  3828  019A  0843               	movf	??___flmul+1,w
  3829  019B  1103               	clrz
  3830  019C  1803               	skipnc
  3831  019D  3E01               	addlw	1
  3832  019E  1903               	skipnz
  3833  019F  29A1               	goto	u274_21
  3834  01A0  07C9               	addwf	___flmul@grs+1,f
  3835  01A1                     u274_21:
  3836  01A1  0844               	movf	??___flmul+2,w
  3837  01A2  1103               	clrz
  3838  01A3  1803               	skipnc
  3839  01A4  3E01               	addlw	1
  3840  01A5  1903               	skipnz
  3841  01A6  29A8               	goto	u274_22
  3842  01A7  07CA               	addwf	___flmul@grs+2,f
  3843  01A8                     u274_22:
  3844  01A8  0845               	movf	??___flmul+3,w
  3845  01A9  1103               	clrz
  3846  01AA  1803               	skipnc
  3847  01AB  3E01               	addlw	1
  3848  01AC  1903               	skipnz
  3849  01AD  29AF               	goto	u274_23
  3850  01AE  07CB               	addwf	___flmul@grs+3,f
  3851  01AF                     u274_23:
  3852  01AF                     i1l2375:
  3853  01AF  3008               	movlw	8
  3854  01B0  00C2               	movwf	??___flmul
  3855  01B1                     u275_25:
  3856  01B1  1003               	clrc
  3857  01B2  0DC8               	rlf	___flmul@grs,f
  3858  01B3  0DC9               	rlf	___flmul@grs+1,f
  3859  01B4  0DCA               	rlf	___flmul@grs+2,f
  3860  01B5  0DCB               	rlf	___flmul@grs+3,f
  3861  01B6  0BC2               	decfsz	??___flmul,f
  3862  01B7  29B1               	goto	u275_25
  3863  01B8  083A               	movf	___flmul@b,w
  3864  01B9  00C2               	movwf	??___flmul
  3865  01BA  0842               	movf	??___flmul,w
  3866  01BB  00F0               	movwf	__Umul8_16@multiplicand
  3867  01BC  083E               	movf	___flmul@a,w
  3868  01BD  120A  158A  2190  120A  118A  	fcall	__Umul8_16
  3869  01C2  0871               	movf	?__Umul8_16+1,w
  3870  01C3  1283               	bcf	3,5	;RP0=0, select bank0
  3871  01C4  1303               	bcf	3,6	;RP1=0, select bank0
  3872  01C5  00D3               	movwf	___flmul@temp+1
  3873  01C6  0870               	movf	?__Umul8_16,w
  3874  01C7  00D2               	movwf	___flmul@temp
  3875  01C8                     i1l2377:
  3876  01C8  0852               	movf	___flmul@temp,w
  3877  01C9  00C2               	movwf	??___flmul
  3878  01CA  0853               	movf	___flmul@temp+1,w
  3879  01CB  00C3               	movwf	??___flmul+1
  3880  01CC  01C4               	clrf	??___flmul+2
  3881  01CD  01C5               	clrf	??___flmul+3
  3882  01CE  0842               	movf	??___flmul,w
  3883  01CF  07C8               	addwf	___flmul@grs,f
  3884  01D0  0843               	movf	??___flmul+1,w
  3885  01D1  1103               	clrz
  3886  01D2  1803               	skipnc
  3887  01D3  3E01               	addlw	1
  3888  01D4  1903               	skipnz
  3889  01D5  29D7               	goto	u276_21
  3890  01D6  07C9               	addwf	___flmul@grs+1,f
  3891  01D7                     u276_21:
  3892  01D7  0844               	movf	??___flmul+2,w
  3893  01D8  1103               	clrz
  3894  01D9  1803               	skipnc
  3895  01DA  3E01               	addlw	1
  3896  01DB  1903               	skipnz
  3897  01DC  29DE               	goto	u276_22
  3898  01DD  07CA               	addwf	___flmul@grs+2,f
  3899  01DE                     u276_22:
  3900  01DE  0845               	movf	??___flmul+3,w
  3901  01DF  1103               	clrz
  3902  01E0  1803               	skipnc
  3903  01E1  3E01               	addlw	1
  3904  01E2  1903               	skipnz
  3905  01E3  29E5               	goto	u276_23
  3906  01E4  07CB               	addwf	___flmul@grs+3,f
  3907  01E5                     u276_23:
  3908  01E5                     i1l2379:
  3909  01E5  083B               	movf	___flmul@b+1,w
  3910  01E6  00C2               	movwf	??___flmul
  3911  01E7  0842               	movf	??___flmul,w
  3912  01E8  00F0               	movwf	__Umul8_16@multiplicand
  3913  01E9  0840               	movf	___flmul@a+2,w
  3914  01EA  120A  158A  2190  120A  118A  	fcall	__Umul8_16
  3915  01EF  0871               	movf	?__Umul8_16+1,w
  3916  01F0  1283               	bcf	3,5	;RP0=0, select bank0
  3917  01F1  1303               	bcf	3,6	;RP1=0, select bank0
  3918  01F2  00D3               	movwf	___flmul@temp+1
  3919  01F3  0870               	movf	?__Umul8_16,w
  3920  01F4  00D2               	movwf	___flmul@temp
  3921  01F5  0852               	movf	___flmul@temp,w
  3922  01F6  00C2               	movwf	??___flmul
  3923  01F7  0853               	movf	___flmul@temp+1,w
  3924  01F8  00C3               	movwf	??___flmul+1
  3925  01F9  01C4               	clrf	??___flmul+2
  3926  01FA  01C5               	clrf	??___flmul+3
  3927  01FB  0842               	movf	??___flmul,w
  3928  01FC  07CE               	addwf	___flmul@prod,f
  3929  01FD  0843               	movf	??___flmul+1,w
  3930  01FE  1103               	clrz
  3931  01FF  1803               	skipnc
  3932  0200  3E01               	addlw	1
  3933  0201  1903               	skipnz
  3934  0202  2A04               	goto	u277_21
  3935  0203  07CF               	addwf	___flmul@prod+1,f
  3936  0204                     u277_21:
  3937  0204  0844               	movf	??___flmul+2,w
  3938  0205  1103               	clrz
  3939  0206  1803               	skipnc
  3940  0207  3E01               	addlw	1
  3941  0208  1903               	skipnz
  3942  0209  2A0B               	goto	u277_22
  3943  020A  07D0               	addwf	___flmul@prod+2,f
  3944  020B                     u277_22:
  3945  020B  0845               	movf	??___flmul+3,w
  3946  020C  1103               	clrz
  3947  020D  1803               	skipnc
  3948  020E  3E01               	addlw	1
  3949  020F  1903               	skipnz
  3950  0210  2A12               	goto	u277_23
  3951  0211  07D1               	addwf	___flmul@prod+3,f
  3952  0212                     u277_23:
  3953  0212                     i1l2381:
  3954  0212  083C               	movf	___flmul@b+2,w
  3955  0213  00C2               	movwf	??___flmul
  3956  0214  0842               	movf	??___flmul,w
  3957  0215  00F0               	movwf	__Umul8_16@multiplicand
  3958  0216  083F               	movf	___flmul@a+1,w
  3959  0217  120A  158A  2190  120A  118A  	fcall	__Umul8_16
  3960  021C  0871               	movf	?__Umul8_16+1,w
  3961  021D  1283               	bcf	3,5	;RP0=0, select bank0
  3962  021E  1303               	bcf	3,6	;RP1=0, select bank0
  3963  021F  00D3               	movwf	___flmul@temp+1
  3964  0220  0870               	movf	?__Umul8_16,w
  3965  0221  00D2               	movwf	___flmul@temp
  3966  0222                     i1l2383:
  3967  0222  0852               	movf	___flmul@temp,w
  3968  0223  00C2               	movwf	??___flmul
  3969  0224  0853               	movf	___flmul@temp+1,w
  3970  0225  00C3               	movwf	??___flmul+1
  3971  0226  01C4               	clrf	??___flmul+2
  3972  0227  01C5               	clrf	??___flmul+3
  3973  0228  0842               	movf	??___flmul,w
  3974  0229  07CE               	addwf	___flmul@prod,f
  3975  022A  0843               	movf	??___flmul+1,w
  3976  022B  1103               	clrz
  3977  022C  1803               	skipnc
  3978  022D  3E01               	addlw	1
  3979  022E  1903               	skipnz
  3980  022F  2A31               	goto	u278_21
  3981  0230  07CF               	addwf	___flmul@prod+1,f
  3982  0231                     u278_21:
  3983  0231  0844               	movf	??___flmul+2,w
  3984  0232  1103               	clrz
  3985  0233  1803               	skipnc
  3986  0234  3E01               	addlw	1
  3987  0235  1903               	skipnz
  3988  0236  2A38               	goto	u278_22
  3989  0237  07D0               	addwf	___flmul@prod+2,f
  3990  0238                     u278_22:
  3991  0238  0845               	movf	??___flmul+3,w
  3992  0239  1103               	clrz
  3993  023A  1803               	skipnc
  3994  023B  3E01               	addlw	1
  3995  023C  1903               	skipnz
  3996  023D  2A3F               	goto	u278_23
  3997  023E  07D1               	addwf	___flmul@prod+3,f
  3998  023F                     u278_23:
  3999  023F  083C               	movf	___flmul@b+2,w
  4000  0240  00C2               	movwf	??___flmul
  4001  0241  0842               	movf	??___flmul,w
  4002  0242  00F0               	movwf	__Umul8_16@multiplicand
  4003  0243  0840               	movf	___flmul@a+2,w
  4004  0244  120A  158A  2190  120A  118A  	fcall	__Umul8_16
  4005  0249  0871               	movf	?__Umul8_16+1,w
  4006  024A  1283               	bcf	3,5	;RP0=0, select bank0
  4007  024B  1303               	bcf	3,6	;RP1=0, select bank0
  4008  024C  00D3               	movwf	___flmul@temp+1
  4009  024D  0870               	movf	?__Umul8_16,w
  4010  024E  00D2               	movwf	___flmul@temp
  4011  024F                     i1l2385:
  4012  024F  0852               	movf	___flmul@temp,w
  4013  0250  00C2               	movwf	??___flmul
  4014  0251  0853               	movf	___flmul@temp+1,w
  4015  0252  00C3               	movwf	??___flmul+1
  4016  0253  01C4               	clrf	??___flmul+2
  4017  0254  01C5               	clrf	??___flmul+3
  4018  0255  3008               	movlw	8
  4019  0256                     u279_25:
  4020  0256  1003               	clrc
  4021  0257  0DC2               	rlf	??___flmul,f
  4022  0258  0DC3               	rlf	??___flmul+1,f
  4023  0259  0DC4               	rlf	??___flmul+2,f
  4024  025A  0DC5               	rlf	??___flmul+3,f
  4025  025B                     u279_20:
  4026  025B  3EFF               	addlw	-1
  4027  025C  1D03               	skipz
  4028  025D  2A56               	goto	u279_25
  4029  025E  0842               	movf	??___flmul,w
  4030  025F  07CE               	addwf	___flmul@prod,f
  4031  0260  0843               	movf	??___flmul+1,w
  4032  0261  1103               	clrz
  4033  0262  1803               	skipnc
  4034  0263  3E01               	addlw	1
  4035  0264  1903               	skipnz
  4036  0265  2A67               	goto	u280_21
  4037  0266  07CF               	addwf	___flmul@prod+1,f
  4038  0267                     u280_21:
  4039  0267  0844               	movf	??___flmul+2,w
  4040  0268  1103               	clrz
  4041  0269  1803               	skipnc
  4042  026A  3E01               	addlw	1
  4043  026B  1903               	skipnz
  4044  026C  2A6E               	goto	u280_22
  4045  026D  07D0               	addwf	___flmul@prod+2,f
  4046  026E                     u280_22:
  4047  026E  0845               	movf	??___flmul+3,w
  4048  026F  1103               	clrz
  4049  0270  1803               	skipnc
  4050  0271  3E01               	addlw	1
  4051  0272  1903               	skipnz
  4052  0273  2A75               	goto	u280_23
  4053  0274  07D1               	addwf	___flmul@prod+3,f
  4054  0275                     u280_23:
  4055  0275                     i1l2387:
  4056  0275  0848               	movf	___flmul@grs,w
  4057  0276  00C2               	movwf	??___flmul
  4058  0277  0849               	movf	___flmul@grs+1,w
  4059  0278  00C3               	movwf	??___flmul+1
  4060  0279  084A               	movf	___flmul@grs+2,w
  4061  027A  00C4               	movwf	??___flmul+2
  4062  027B  084B               	movf	___flmul@grs+3,w
  4063  027C  00C5               	movwf	??___flmul+3
  4064  027D  3018               	movlw	24
  4065  027E                     u281_25:
  4066  027E  1003               	clrc
  4067  027F  0CC5               	rrf	??___flmul+3,f
  4068  0280  0CC4               	rrf	??___flmul+2,f
  4069  0281  0CC3               	rrf	??___flmul+1,f
  4070  0282  0CC2               	rrf	??___flmul,f
  4071  0283                     u281_20:
  4072  0283  3EFF               	addlw	-1
  4073  0284  1D03               	skipz
  4074  0285  2A7E               	goto	u281_25
  4075  0286  0842               	movf	??___flmul,w
  4076  0287  07CE               	addwf	___flmul@prod,f
  4077  0288  0843               	movf	??___flmul+1,w
  4078  0289  1103               	clrz
  4079  028A  1803               	skipnc
  4080  028B  3E01               	addlw	1
  4081  028C  1903               	skipnz
  4082  028D  2A8F               	goto	u282_21
  4083  028E  07CF               	addwf	___flmul@prod+1,f
  4084  028F                     u282_21:
  4085  028F  0844               	movf	??___flmul+2,w
  4086  0290  1103               	clrz
  4087  0291  1803               	skipnc
  4088  0292  3E01               	addlw	1
  4089  0293  1903               	skipnz
  4090  0294  2A96               	goto	u282_22
  4091  0295  07D0               	addwf	___flmul@prod+2,f
  4092  0296                     u282_22:
  4093  0296  0845               	movf	??___flmul+3,w
  4094  0297  1103               	clrz
  4095  0298  1803               	skipnc
  4096  0299  3E01               	addlw	1
  4097  029A  1903               	skipnz
  4098  029B  2A9D               	goto	u282_23
  4099  029C  07D1               	addwf	___flmul@prod+3,f
  4100  029D                     u282_23:
  4101  029D                     i1l2389:
  4102  029D  3008               	movlw	8
  4103  029E  00C2               	movwf	??___flmul
  4104  029F                     u283_25:
  4105  029F  1003               	clrc
  4106  02A0  0DC8               	rlf	___flmul@grs,f
  4107  02A1  0DC9               	rlf	___flmul@grs+1,f
  4108  02A2  0DCA               	rlf	___flmul@grs+2,f
  4109  02A3  0DCB               	rlf	___flmul@grs+3,f
  4110  02A4  0BC2               	decfsz	??___flmul,f
  4111  02A5  2A9F               	goto	u283_25
  4112  02A6                     i1l2391:
  4113  02A6  084D               	movf	___flmul@bexp,w
  4114  02A7  074C               	addwf	___flmul@aexp,w
  4115  02A8  00C2               	movwf	??___flmul
  4116  02A9  01C3               	clrf	??___flmul+1
  4117  02AA  0DC3               	rlf	??___flmul+1,f
  4118  02AB  0842               	movf	??___flmul,w
  4119  02AC  3E82               	addlw	130
  4120  02AD  00D2               	movwf	___flmul@temp
  4121  02AE  0843               	movf	??___flmul+1,w
  4122  02AF  1803               	skipnc
  4123  02B0  3E01               	addlw	1
  4124  02B1  3EFF               	addlw	255
  4125  02B2  00D3               	movwf	___flmul@temp+1
  4126  02B3  2AD1               	goto	i1l2403
  4127  02B4                     i1l2393:
  4128  02B4  3001               	movlw	1
  4129  02B5  00C2               	movwf	??___flmul
  4130  02B6                     u284_25:
  4131  02B6  1003               	clrc
  4132  02B7  0DCE               	rlf	___flmul@prod,f
  4133  02B8  0DCF               	rlf	___flmul@prod+1,f
  4134  02B9  0DD0               	rlf	___flmul@prod+2,f
  4135  02BA  0DD1               	rlf	___flmul@prod+3,f
  4136  02BB  0BC2               	decfsz	??___flmul,f
  4137  02BC  2AB6               	goto	u284_25
  4138  02BD                     i1l2395:
  4139  02BD  1FCB               	btfss	___flmul@grs+3,7
  4140  02BE  2AC0               	goto	u285_21
  4141  02BF  2AC1               	goto	u285_20
  4142  02C0                     u285_21:
  4143  02C0  2AC2               	goto	i1l2399
  4144  02C1                     u285_20:
  4145  02C1                     i1l2397:
  4146  02C1  144E               	bsf	___flmul@prod,0
  4147  02C2                     i1l2399:
  4148  02C2  3001               	movlw	1
  4149  02C3  00C2               	movwf	??___flmul
  4150  02C4                     u286_25:
  4151  02C4  1003               	clrc
  4152  02C5  0DC8               	rlf	___flmul@grs,f
  4153  02C6  0DC9               	rlf	___flmul@grs+1,f
  4154  02C7  0DCA               	rlf	___flmul@grs+2,f
  4155  02C8  0DCB               	rlf	___flmul@grs+3,f
  4156  02C9  0BC2               	decfsz	??___flmul,f
  4157  02CA  2AC4               	goto	u286_25
  4158  02CB                     i1l2401:
  4159  02CB  30FF               	movlw	255
  4160  02CC  07D2               	addwf	___flmul@temp,f
  4161  02CD  1803               	skipnc
  4162  02CE  0AD3               	incf	___flmul@temp+1,f
  4163  02CF  30FF               	movlw	255
  4164  02D0  07D3               	addwf	___flmul@temp+1,f
  4165  02D1                     i1l2403:
  4166  02D1  1FD0               	btfss	___flmul@prod+2,7
  4167  02D2  2AD4               	goto	u287_21
  4168  02D3  2AD5               	goto	u287_20
  4169  02D4                     u287_21:
  4170  02D4  2AB4               	goto	i1l2393
  4171  02D5                     u287_20:
  4172  02D5                     i1l2405:
  4173  02D5  01CC               	clrf	___flmul@aexp
  4174  02D6                     i1l2407:
  4175  02D6  1FCB               	btfss	___flmul@grs+3,7
  4176  02D7  2AD9               	goto	u288_21
  4177  02D8  2ADA               	goto	u288_20
  4178  02D9                     u288_21:
  4179  02D9  2AF6               	goto	i1l2415
  4180  02DA                     u288_20:
  4181  02DA                     i1l2409:
  4182  02DA  30FF               	movlw	255
  4183  02DB  0548               	andwf	___flmul@grs,w
  4184  02DC  00C2               	movwf	??___flmul
  4185  02DD  30FF               	movlw	255
  4186  02DE  0549               	andwf	___flmul@grs+1,w
  4187  02DF  00C3               	movwf	??___flmul+1
  4188  02E0  30FF               	movlw	255
  4189  02E1  054A               	andwf	___flmul@grs+2,w
  4190  02E2  00C4               	movwf	??___flmul+2
  4191  02E3  307F               	movlw	127
  4192  02E4  054B               	andwf	___flmul@grs+3,w
  4193  02E5  00C5               	movwf	??___flmul+3
  4194  02E6  0845               	movf	??___flmul+3,w
  4195  02E7  0444               	iorwf	??___flmul+2,w
  4196  02E8  0443               	iorwf	??___flmul+1,w
  4197  02E9  0442               	iorwf	??___flmul,w
  4198  02EA  1903               	skipnz
  4199  02EB  2AED               	goto	u289_21
  4200  02EC  2AEE               	goto	u289_20
  4201  02ED                     u289_21:
  4202  02ED  2AF1               	goto	i1l710
  4203  02EE                     u289_20:
  4204  02EE                     i1l2411:
  4205  02EE  01CC               	clrf	___flmul@aexp
  4206  02EF  0ACC               	incf	___flmul@aexp,f
  4207  02F0  2AF6               	goto	i1l2415
  4208  02F1                     i1l710:
  4209  02F1  1C4E               	btfss	___flmul@prod,0
  4210  02F2  2AF4               	goto	u290_21
  4211  02F3  2AF5               	goto	u290_20
  4212  02F4                     u290_21:
  4213  02F4  2AF6               	goto	i1l2415
  4214  02F5                     u290_20:
  4215  02F5  2AEE               	goto	i1l2411
  4216  02F6                     i1l2415:
  4217  02F6  084C               	movf	___flmul@aexp,w
  4218  02F7  1903               	btfsc	3,2
  4219  02F8  2AFA               	goto	u291_21
  4220  02F9  2AFB               	goto	u291_20
  4221  02FA                     u291_21:
  4222  02FA  2B2C               	goto	i1l2425
  4223  02FB                     u291_20:
  4224  02FB                     i1l2417:
  4225  02FB  3001               	movlw	1
  4226  02FC  07CE               	addwf	___flmul@prod,f
  4227  02FD  3000               	movlw	0
  4228  02FE  1803               	skipnc
  4229  02FF  3001               	movlw	1
  4230  0300  07CF               	addwf	___flmul@prod+1,f
  4231  0301  3000               	movlw	0
  4232  0302  1803               	skipnc
  4233  0303  3001               	movlw	1
  4234  0304  07D0               	addwf	___flmul@prod+2,f
  4235  0305  3000               	movlw	0
  4236  0306  1803               	skipnc
  4237  0307  3001               	movlw	1
  4238  0308  07D1               	addwf	___flmul@prod+3,f
  4239  0309                     i1l2419:
  4240  0309  1C51               	btfss	___flmul@prod+3,0
  4241  030A  2B0C               	goto	u292_21
  4242  030B  2B0D               	goto	u292_20
  4243  030C                     u292_21:
  4244  030C  2B2C               	goto	i1l2425
  4245  030D                     u292_20:
  4246  030D                     i1l2421:
  4247  030D  084E               	movf	___flmul@prod,w
  4248  030E  00C2               	movwf	??___flmul
  4249  030F  084F               	movf	___flmul@prod+1,w
  4250  0310  00C3               	movwf	??___flmul+1
  4251  0311  0850               	movf	___flmul@prod+2,w
  4252  0312  00C4               	movwf	??___flmul+2
  4253  0313  0851               	movf	___flmul@prod+3,w
  4254  0314  00C5               	movwf	??___flmul+3
  4255  0315  3001               	movlw	1
  4256  0316  00C6               	movwf	??___flmul+4
  4257  0317                     u293_25:
  4258  0317  0D45               	rlf	??___flmul+3,w
  4259  0318  0CC5               	rrf	??___flmul+3,f
  4260  0319  0CC4               	rrf	??___flmul+2,f
  4261  031A  0CC3               	rrf	??___flmul+1,f
  4262  031B  0CC2               	rrf	??___flmul,f
  4263  031C                     u293_20:
  4264  031C  0BC6               	decfsz	??___flmul+4,f
  4265  031D  2B17               	goto	u293_25
  4266  031E  0845               	movf	??___flmul+3,w
  4267  031F  00D1               	movwf	___flmul@prod+3
  4268  0320  0844               	movf	??___flmul+2,w
  4269  0321  00D0               	movwf	___flmul@prod+2
  4270  0322  0843               	movf	??___flmul+1,w
  4271  0323  00CF               	movwf	___flmul@prod+1
  4272  0324  0842               	movf	??___flmul,w
  4273  0325  00CE               	movwf	___flmul@prod
  4274  0326                     i1l2423:
  4275  0326  3001               	movlw	1
  4276  0327  07D2               	addwf	___flmul@temp,f
  4277  0328  1803               	skipnc
  4278  0329  0AD3               	incf	___flmul@temp+1,f
  4279  032A  3000               	movlw	0
  4280  032B  07D3               	addwf	___flmul@temp+1,f
  4281  032C                     i1l2425:
  4282  032C  0853               	movf	___flmul@temp+1,w
  4283  032D  3A80               	xorlw	128
  4284  032E  00FF               	movwf	btemp+1
  4285  032F  3080               	movlw	128
  4286  0330  027F               	subwf	btemp+1,w
  4287  0331  1D03               	skipz
  4288  0332  2B35               	goto	u294_25
  4289  0333  30FF               	movlw	255
  4290  0334  0252               	subwf	___flmul@temp,w
  4291  0335                     u294_25:
  4292  0335  1C03               	skipc
  4293  0336  2B38               	goto	u294_21
  4294  0337  2B39               	goto	u294_20
  4295  0338                     u294_21:
  4296  0338  2B44               	goto	i1l2429
  4297  0339                     u294_20:
  4298  0339                     i1l2427:
  4299  0339  307F               	movlw	127
  4300  033A  1283               	bcf	3,5	;RP0=0, select bank0
  4301  033B  1303               	bcf	3,6	;RP1=0, select bank0
  4302  033C  00D1               	movwf	___flmul@prod+3
  4303  033D  3080               	movlw	128
  4304  033E  00D0               	movwf	___flmul@prod+2
  4305  033F  3000               	movlw	0
  4306  0340  00CF               	movwf	___flmul@prod+1
  4307  0341  3000               	movlw	0
  4308  0342  00CE               	movwf	___flmul@prod
  4309  0343  2B79               	goto	i1l716
  4310  0344                     i1l2429:
  4311  0344  1283               	bcf	3,5	;RP0=0, select bank0
  4312  0345  1303               	bcf	3,6	;RP1=0, select bank0
  4313  0346  0853               	movf	___flmul@temp+1,w
  4314  0347  3A80               	xorlw	128
  4315  0348  00FF               	movwf	btemp+1
  4316  0349  3080               	movlw	128
  4317  034A  027F               	subwf	btemp+1,w
  4318  034B  1D03               	skipz
  4319  034C  2B4F               	goto	u295_25
  4320  034D  3001               	movlw	1
  4321  034E  0252               	subwf	___flmul@temp,w
  4322  034F                     u295_25:
  4323  034F  1803               	skipnc
  4324  0350  2B52               	goto	u295_21
  4325  0351  2B53               	goto	u295_20
  4326  0352                     u295_21:
  4327  0352  2B5F               	goto	i1l2435
  4328  0353                     u295_20:
  4329  0353                     i1l2431:
  4330  0353  3000               	movlw	0
  4331  0354  1283               	bcf	3,5	;RP0=0, select bank0
  4332  0355  1303               	bcf	3,6	;RP1=0, select bank0
  4333  0356  00D1               	movwf	___flmul@prod+3
  4334  0357  3000               	movlw	0
  4335  0358  00D0               	movwf	___flmul@prod+2
  4336  0359  3000               	movlw	0
  4337  035A  00CF               	movwf	___flmul@prod+1
  4338  035B  3000               	movlw	0
  4339  035C  00CE               	movwf	___flmul@prod
  4340  035D                     i1l2433:
  4341  035D  01C7               	clrf	___flmul@sign
  4342  035E  2B79               	goto	i1l716
  4343  035F                     i1l2435:
  4344  035F  1283               	bcf	3,5	;RP0=0, select bank0
  4345  0360  1303               	bcf	3,6	;RP1=0, select bank0
  4346  0361  0852               	movf	___flmul@temp,w
  4347  0362  00C2               	movwf	??___flmul
  4348  0363  0842               	movf	??___flmul,w
  4349  0364  00CD               	movwf	___flmul@bexp
  4350  0365  30FF               	movlw	255
  4351  0366  05CE               	andwf	___flmul@prod,f
  4352  0367  30FF               	movlw	255
  4353  0368  05CF               	andwf	___flmul@prod+1,f
  4354  0369  307F               	movlw	127
  4355  036A  05D0               	andwf	___flmul@prod+2,f
  4356  036B  3000               	movlw	0
  4357  036C  05D1               	andwf	___flmul@prod+3,f
  4358  036D                     i1l2437:
  4359  036D  1C4D               	btfss	___flmul@bexp,0
  4360  036E  2B70               	goto	u296_21
  4361  036F  2B71               	goto	u296_20
  4362  0370                     u296_21:
  4363  0370  2B72               	goto	i1l2441
  4364  0371                     u296_20:
  4365  0371                     i1l2439:
  4366  0371  17D0               	bsf	___flmul@prod+2,7
  4367  0372                     i1l2441:
  4368  0372  084D               	movf	___flmul@bexp,w
  4369  0373  00C2               	movwf	??___flmul
  4370  0374  1003               	clrc
  4371  0375  0C42               	rrf	??___flmul,w
  4372  0376  00C3               	movwf	??___flmul+1
  4373  0377  0843               	movf	??___flmul+1,w
  4374  0378  00D1               	movwf	___flmul@prod+3
  4375  0379                     i1l716:
  4376  0379  0847               	movf	___flmul@sign,w
  4377  037A  00C2               	movwf	??___flmul
  4378  037B  0842               	movf	??___flmul,w
  4379  037C  04D1               	iorwf	___flmul@prod+3,f
  4380  037D                     i1l2443:
  4381  037D  0851               	movf	___flmul@prod+3,w
  4382  037E  00BD               	movwf	?___flmul+3
  4383  037F  0850               	movf	___flmul@prod+2,w
  4384  0380  00BC               	movwf	?___flmul+2
  4385  0381  084F               	movf	___flmul@prod+1,w
  4386  0382  00BB               	movwf	?___flmul+1
  4387  0383  084E               	movf	___flmul@prod,w
  4388  0384  00BA               	movwf	?___flmul
  4389  0385                     i1l704:
  4390  0385  0008               	return
  4391  0386                     __end_of___flmul:
  4392                           
  4393                           	psect	text9
  4394  0990                     __ptext9:	
  4395 ;; *************** function __Umul8_16 *****************
  4396 ;; Defined at:
  4397 ;;		line 4 in file "C:\Program Files\Microchip\xc8\v2.35\pic\sources\c90\common\Umul8_16.c"
  4398 ;; Parameters:    Size  Location     Type
  4399 ;;  multiplier      1    wreg     unsigned char 
  4400 ;;  multiplicand    1    0[COMMON] unsigned char 
  4401 ;; Auto vars:     Size  Location     Type
  4402 ;;  multiplier      1    8[COMMON] unsigned char 
  4403 ;;  word_mpld       2    6[COMMON] unsigned int 
  4404 ;;  product         2    4[COMMON] unsigned int 
  4405 ;; Return value:  Size  Location     Type
  4406 ;;                  2    0[COMMON] unsigned int 
  4407 ;; Registers used:
  4408 ;;		wreg, status,2, status,0
  4409 ;; Tracked objects:
  4410 ;;		On entry : 0/0
  4411 ;;		On exit  : 0/0
  4412 ;;		Unchanged: 0/0
  4413 ;; Data sizes:     COMMON   BANK0   BANK1   BANK3   BANK2
  4414 ;;      Params:         2       0       0       0       0
  4415 ;;      Locals:         5       0       0       0       0
  4416 ;;      Temps:          2       0       0       0       0
  4417 ;;      Totals:         9       0       0       0       0
  4418 ;;Total ram usage:        9 bytes
  4419 ;; Hardware stack levels used: 1
  4420 ;; This function calls:
  4421 ;;		Nothing
  4422 ;; This function is called by:
  4423 ;;		___flmul
  4424 ;; This function uses a non-reentrant model
  4425 ;;
  4426                           
  4427  0990                     __Umul8_16:	
  4428                           ;psect for function __Umul8_16
  4429                           
  4430                           
  4431                           ;incstack = 0
  4432                           ; Regs used in __Umul8_16: [wreg+status,2+status,0]
  4433                           ;__Umul8_16@multiplier stored from wreg
  4434  0990  00F8               	movwf	__Umul8_16@multiplier
  4435  0991                     i1l1921:
  4436  0991  01F4               	clrf	__Umul8_16@product
  4437  0992  01F5               	clrf	__Umul8_16@product+1
  4438  0993                     i1l1923:
  4439  0993  0870               	movf	__Umul8_16@multiplicand,w
  4440  0994  00F2               	movwf	??__Umul8_16
  4441  0995  01F3               	clrf	??__Umul8_16+1
  4442  0996  0872               	movf	??__Umul8_16,w
  4443  0997  00F6               	movwf	__Umul8_16@word_mpld
  4444  0998  0873               	movf	??__Umul8_16+1,w
  4445  0999  00F7               	movwf	__Umul8_16@word_mpld+1
  4446  099A                     i1l1925:
  4447  099A  1C78               	btfss	__Umul8_16@multiplier,0
  4448  099B  299D               	goto	u172_21
  4449  099C  299E               	goto	u172_20
  4450  099D                     u172_21:
  4451  099D  29A4               	goto	i1l723
  4452  099E                     u172_20:
  4453  099E                     i1l1927:
  4454  099E  0876               	movf	__Umul8_16@word_mpld,w
  4455  099F  07F4               	addwf	__Umul8_16@product,f
  4456  09A0  1803               	skipnc
  4457  09A1  0AF5               	incf	__Umul8_16@product+1,f
  4458  09A2  0877               	movf	__Umul8_16@word_mpld+1,w
  4459  09A3  07F5               	addwf	__Umul8_16@product+1,f
  4460  09A4                     i1l723:
  4461  09A4  3001               	movlw	1
  4462  09A5                     u173_25:
  4463  09A5  1003               	clrc
  4464  09A6  0DF6               	rlf	__Umul8_16@word_mpld,f
  4465  09A7  0DF7               	rlf	__Umul8_16@word_mpld+1,f
  4466  09A8  3EFF               	addlw	-1
  4467  09A9  1D03               	skipz
  4468  09AA  29A5               	goto	u173_25
  4469  09AB  1003               	clrc
  4470  09AC  0CF8               	rrf	__Umul8_16@multiplier,f
  4471  09AD                     i1l1929:
  4472  09AD  0878               	movf	__Umul8_16@multiplier,w
  4473  09AE  1D03               	btfss	3,2
  4474  09AF  29B1               	goto	u174_21
  4475  09B0  29B2               	goto	u174_20
  4476  09B1                     u174_21:
  4477  09B1  299A               	goto	i1l1925
  4478  09B2                     u174_20:
  4479  09B2                     i1l1931:
  4480  09B2  0875               	movf	__Umul8_16@product+1,w
  4481  09B3  00F1               	movwf	?__Umul8_16+1
  4482  09B4  0874               	movf	__Umul8_16@product,w
  4483  09B5  00F0               	movwf	?__Umul8_16
  4484  09B6                     i1l725:
  4485  09B6  0008               	return
  4486  09B7                     __end_of__Umul8_16:
  4487                           
  4488                           	psect	text10
  4489  060E                     __ptext10:	
  4490 ;; *************** function ___fldiv *****************
  4491 ;; Defined at:
  4492 ;;		line 8 in file "C:\Program Files\Microchip\xc8\v2.35\pic\sources\c90\common\sprcdiv.c"
  4493 ;; Parameters:    Size  Location     Type
  4494 ;;  a               4    0[BANK0 ] unsigned int 
  4495 ;;  b               4    4[BANK0 ] unsigned int 
  4496 ;; Auto vars:     Size  Location     Type
  4497 ;;  grs             4   20[BANK0 ] unsigned long 
  4498 ;;  rem             4   13[BANK0 ] unsigned long 
  4499 ;;  new_exp         2   18[BANK0 ] int 
  4500 ;;  aexp            1   25[BANK0 ] unsigned char 
  4501 ;;  bexp            1   24[BANK0 ] unsigned char 
  4502 ;;  sign            1   17[BANK0 ] unsigned char 
  4503 ;; Return value:  Size  Location     Type
  4504 ;;                  4    0[BANK0 ] unsigned char 
  4505 ;; Registers used:
  4506 ;;		wreg, status,2, status,0, btemp+1
  4507 ;; Tracked objects:
  4508 ;;		On entry : 0/0
  4509 ;;		On exit  : 0/0
  4510 ;;		Unchanged: 0/0
  4511 ;; Data sizes:     COMMON   BANK0   BANK1   BANK3   BANK2
  4512 ;;      Params:         0       8       0       0       0
  4513 ;;      Locals:         0      13       0       0       0
  4514 ;;      Temps:          0       5       0       0       0
  4515 ;;      Totals:         0      26       0       0       0
  4516 ;;Total ram usage:       26 bytes
  4517 ;; Hardware stack levels used: 1
  4518 ;; This function calls:
  4519 ;;		Nothing
  4520 ;; This function is called by:
  4521 ;;		_map
  4522 ;; This function uses a non-reentrant model
  4523 ;;
  4524                           
  4525  060E                     ___fldiv:	
  4526                           ;psect for function ___fldiv
  4527                           
  4528  060E                     i1l2165:	
  4529                           ;incstack = 0
  4530                           ; Regs used in ___fldiv: [wreg+status,2+status,0+btemp+1]
  4531                           
  4532  060E  1283               	bcf	3,5	;RP0=0, select bank0
  4533  060F  1303               	bcf	3,6	;RP1=0, select bank0
  4534  0610  0827               	movf	___fldiv@b+3,w
  4535  0611  3980               	andlw	128
  4536  0612  00A8               	movwf	??___fldiv
  4537  0613  0828               	movf	??___fldiv,w
  4538  0614  00B1               	movwf	___fldiv@sign
  4539  0615                     i1l2167:
  4540  0615  0827               	movf	___fldiv@b+3,w
  4541  0616  00A8               	movwf	??___fldiv
  4542  0617  0728               	addwf	??___fldiv,w
  4543  0618  00A9               	movwf	??___fldiv+1
  4544  0619  0829               	movf	??___fldiv+1,w
  4545  061A  00B8               	movwf	___fldiv@bexp
  4546  061B                     i1l2169:
  4547  061B  1FA6               	btfss	___fldiv@b+2,7
  4548  061C  2E1E               	goto	u231_21
  4549  061D  2E1F               	goto	u231_20
  4550  061E                     u231_21:
  4551  061E  2E20               	goto	i1l2173
  4552  061F                     u231_20:
  4553  061F                     i1l2171:
  4554  061F  1438               	bsf	___fldiv@bexp,0
  4555  0620                     i1l2173:
  4556  0620  0838               	movf	___fldiv@bexp,w
  4557  0621  1903               	btfsc	3,2
  4558  0622  2E24               	goto	u232_21
  4559  0623  2E25               	goto	u232_20
  4560  0624                     u232_21:
  4561  0624  2E35               	goto	i1l2183
  4562  0625                     u232_20:
  4563  0625                     i1l2175:
  4564  0625  0A38               	incf	___fldiv@bexp,w
  4565  0626  1D03               	btfss	3,2
  4566  0627  2E29               	goto	u233_21
  4567  0628  2E2A               	goto	u233_20
  4568  0629                     u233_21:
  4569  0629  2E32               	goto	i1l2179
  4570  062A                     u233_20:
  4571  062A                     i1l2177:
  4572  062A  3000               	movlw	0
  4573  062B  00A7               	movwf	___fldiv@b+3
  4574  062C  3000               	movlw	0
  4575  062D  00A6               	movwf	___fldiv@b+2
  4576  062E  3000               	movlw	0
  4577  062F  00A5               	movwf	___fldiv@b+1
  4578  0630  3000               	movlw	0
  4579  0631  00A4               	movwf	___fldiv@b
  4580  0632                     i1l2179:
  4581  0632  17A6               	bsf	___fldiv@b+2,7
  4582  0633                     i1l2181:
  4583  0633  01A7               	clrf	___fldiv@b+3
  4584  0634  2E3D               	goto	i1l2185
  4585  0635                     i1l2183:
  4586  0635  3000               	movlw	0
  4587  0636  00A7               	movwf	___fldiv@b+3
  4588  0637  3000               	movlw	0
  4589  0638  00A6               	movwf	___fldiv@b+2
  4590  0639  3000               	movlw	0
  4591  063A  00A5               	movwf	___fldiv@b+1
  4592  063B  3000               	movlw	0
  4593  063C  00A4               	movwf	___fldiv@b
  4594  063D                     i1l2185:
  4595  063D  0823               	movf	___fldiv@a+3,w
  4596  063E  3980               	andlw	128
  4597  063F  00A8               	movwf	??___fldiv
  4598  0640  0828               	movf	??___fldiv,w
  4599  0641  06B1               	xorwf	___fldiv@sign,f
  4600  0642                     i1l2187:
  4601  0642  0823               	movf	___fldiv@a+3,w
  4602  0643  00A8               	movwf	??___fldiv
  4603  0644  0728               	addwf	??___fldiv,w
  4604  0645  00A9               	movwf	??___fldiv+1
  4605  0646  0829               	movf	??___fldiv+1,w
  4606  0647  00B9               	movwf	___fldiv@aexp
  4607  0648                     i1l2189:
  4608  0648  1FA2               	btfss	___fldiv@a+2,7
  4609  0649  2E4B               	goto	u234_21
  4610  064A  2E4C               	goto	u234_20
  4611  064B                     u234_21:
  4612  064B  2E4D               	goto	i1l2193
  4613  064C                     u234_20:
  4614  064C                     i1l2191:
  4615  064C  1439               	bsf	___fldiv@aexp,0
  4616  064D                     i1l2193:
  4617  064D  0839               	movf	___fldiv@aexp,w
  4618  064E  1903               	btfsc	3,2
  4619  064F  2E51               	goto	u235_21
  4620  0650  2E52               	goto	u235_20
  4621  0651                     u235_21:
  4622  0651  2E62               	goto	i1l2203
  4623  0652                     u235_20:
  4624  0652                     i1l2195:
  4625  0652  0A39               	incf	___fldiv@aexp,w
  4626  0653  1D03               	btfss	3,2
  4627  0654  2E56               	goto	u236_21
  4628  0655  2E57               	goto	u236_20
  4629  0656                     u236_21:
  4630  0656  2E5F               	goto	i1l2199
  4631  0657                     u236_20:
  4632  0657                     i1l2197:
  4633  0657  3000               	movlw	0
  4634  0658  00A3               	movwf	___fldiv@a+3
  4635  0659  3000               	movlw	0
  4636  065A  00A2               	movwf	___fldiv@a+2
  4637  065B  3000               	movlw	0
  4638  065C  00A1               	movwf	___fldiv@a+1
  4639  065D  3000               	movlw	0
  4640  065E  00A0               	movwf	___fldiv@a
  4641  065F                     i1l2199:
  4642  065F  17A2               	bsf	___fldiv@a+2,7
  4643  0660                     i1l2201:
  4644  0660  01A3               	clrf	___fldiv@a+3
  4645  0661  2E6A               	goto	i1l664
  4646  0662                     i1l2203:
  4647  0662  3000               	movlw	0
  4648  0663  00A3               	movwf	___fldiv@a+3
  4649  0664  3000               	movlw	0
  4650  0665  00A2               	movwf	___fldiv@a+2
  4651  0666  3000               	movlw	0
  4652  0667  00A1               	movwf	___fldiv@a+1
  4653  0668  3000               	movlw	0
  4654  0669  00A0               	movwf	___fldiv@a
  4655  066A                     i1l664:
  4656  066A  0823               	movf	___fldiv@a+3,w
  4657  066B  0422               	iorwf	___fldiv@a+2,w
  4658  066C  0421               	iorwf	___fldiv@a+1,w
  4659  066D  0420               	iorwf	___fldiv@a,w
  4660  066E  1D03               	skipz
  4661  066F  2E71               	goto	u237_21
  4662  0670  2E72               	goto	u237_20
  4663  0671                     u237_21:
  4664  0671  2E8B               	goto	i1l2213
  4665  0672                     u237_20:
  4666  0672                     i1l2205:
  4667  0672  3000               	movlw	0
  4668  0673  00A7               	movwf	___fldiv@b+3
  4669  0674  3000               	movlw	0
  4670  0675  00A6               	movwf	___fldiv@b+2
  4671  0676  3000               	movlw	0
  4672  0677  00A5               	movwf	___fldiv@b+1
  4673  0678  3000               	movlw	0
  4674  0679  00A4               	movwf	___fldiv@b
  4675  067A  3080               	movlw	128
  4676  067B  04A6               	iorwf	___fldiv@b+2,f
  4677  067C  307F               	movlw	127
  4678  067D  04A7               	iorwf	___fldiv@b+3,f
  4679  067E                     i1l2207:
  4680  067E  0831               	movf	___fldiv@sign,w
  4681  067F  00A8               	movwf	??___fldiv
  4682  0680  0828               	movf	??___fldiv,w
  4683  0681  04A7               	iorwf	___fldiv@b+3,f
  4684  0682                     i1l2209:
  4685  0682  0827               	movf	___fldiv@b+3,w
  4686  0683  00A3               	movwf	?___fldiv+3
  4687  0684  0826               	movf	___fldiv@b+2,w
  4688  0685  00A2               	movwf	?___fldiv+2
  4689  0686  0825               	movf	___fldiv@b+1,w
  4690  0687  00A1               	movwf	?___fldiv+1
  4691  0688  0824               	movf	___fldiv@b,w
  4692  0689  00A0               	movwf	?___fldiv
  4693  068A  2FEA               	goto	i1l666
  4694  068B                     i1l2213:
  4695  068B  0838               	movf	___fldiv@bexp,w
  4696  068C  1D03               	btfss	3,2
  4697  068D  2E8F               	goto	u238_21
  4698  068E  2E90               	goto	u238_20
  4699  068F                     u238_21:
  4700  068F  2E99               	goto	i1l2219
  4701  0690                     u238_20:
  4702  0690                     i1l2215:
  4703  0690  3000               	movlw	0
  4704  0691  00A3               	movwf	?___fldiv+3
  4705  0692  3000               	movlw	0
  4706  0693  00A2               	movwf	?___fldiv+2
  4707  0694  3000               	movlw	0
  4708  0695  00A1               	movwf	?___fldiv+1
  4709  0696  3000               	movlw	0
  4710  0697  00A0               	movwf	?___fldiv
  4711  0698  2FEA               	goto	i1l666
  4712  0699                     i1l2219:
  4713  0699  0838               	movf	___fldiv@bexp,w
  4714  069A  00A8               	movwf	??___fldiv
  4715  069B  01A9               	clrf	??___fldiv+1
  4716  069C  0829               	movf	??___fldiv+1,w
  4717  069D  00AB               	movwf	??___fldiv+3
  4718  069E  0839               	movf	___fldiv@aexp,w
  4719  069F  0228               	subwf	??___fldiv,w
  4720  06A0  00AA               	movwf	??___fldiv+2
  4721  06A1  1C03               	skipc
  4722  06A2  03AB               	decf	??___fldiv+3,f
  4723  06A3  082A               	movf	??___fldiv+2,w
  4724  06A4  3E7F               	addlw	127
  4725  06A5  00B2               	movwf	___fldiv@new_exp
  4726  06A6  082B               	movf	??___fldiv+3,w
  4727  06A7  1803               	skipnc
  4728  06A8  3E01               	addlw	1
  4729  06A9  3E00               	addlw	0
  4730  06AA  00B3               	movwf	___fldiv@new_exp+1
  4731  06AB                     i1l2221:
  4732  06AB  0827               	movf	___fldiv@b+3,w
  4733  06AC  00B0               	movwf	___fldiv@rem+3
  4734  06AD  0826               	movf	___fldiv@b+2,w
  4735  06AE  00AF               	movwf	___fldiv@rem+2
  4736  06AF  0825               	movf	___fldiv@b+1,w
  4737  06B0  00AE               	movwf	___fldiv@rem+1
  4738  06B1  0824               	movf	___fldiv@b,w
  4739  06B2  00AD               	movwf	___fldiv@rem
  4740  06B3                     i1l2223:
  4741  06B3  3000               	movlw	0
  4742  06B4  00A7               	movwf	___fldiv@b+3
  4743  06B5  3000               	movlw	0
  4744  06B6  00A6               	movwf	___fldiv@b+2
  4745  06B7  3000               	movlw	0
  4746  06B8  00A5               	movwf	___fldiv@b+1
  4747  06B9  3000               	movlw	0
  4748  06BA  00A4               	movwf	___fldiv@b
  4749  06BB                     i1l2225:
  4750  06BB  3000               	movlw	0
  4751  06BC  00B7               	movwf	___fldiv@grs+3
  4752  06BD  3000               	movlw	0
  4753  06BE  00B6               	movwf	___fldiv@grs+2
  4754  06BF  3000               	movlw	0
  4755  06C0  00B5               	movwf	___fldiv@grs+1
  4756  06C1  3000               	movlw	0
  4757  06C2  00B4               	movwf	___fldiv@grs
  4758  06C3                     i1l2227:
  4759  06C3  01B9               	clrf	___fldiv@aexp
  4760  06C4  2F0F               	goto	i1l2247
  4761  06C5                     i1l2229:
  4762  06C5  0839               	movf	___fldiv@aexp,w
  4763  06C6  1903               	btfsc	3,2
  4764  06C7  2EC9               	goto	u239_21
  4765  06C8  2ECA               	goto	u239_20
  4766  06C9                     u239_21:
  4767  06C9  2EEA               	goto	i1l2239
  4768  06CA                     u239_20:
  4769  06CA                     i1l2231:
  4770  06CA  3001               	movlw	1
  4771  06CB  00A8               	movwf	??___fldiv
  4772  06CC                     u240_25:
  4773  06CC  1003               	clrc
  4774  06CD  0DAD               	rlf	___fldiv@rem,f
  4775  06CE  0DAE               	rlf	___fldiv@rem+1,f
  4776  06CF  0DAF               	rlf	___fldiv@rem+2,f
  4777  06D0  0DB0               	rlf	___fldiv@rem+3,f
  4778  06D1  0BA8               	decfsz	??___fldiv,f
  4779  06D2  2ECC               	goto	u240_25
  4780  06D3  3001               	movlw	1
  4781  06D4  00A8               	movwf	??___fldiv
  4782  06D5                     u241_25:
  4783  06D5  1003               	clrc
  4784  06D6  0DA4               	rlf	___fldiv@b,f
  4785  06D7  0DA5               	rlf	___fldiv@b+1,f
  4786  06D8  0DA6               	rlf	___fldiv@b+2,f
  4787  06D9  0DA7               	rlf	___fldiv@b+3,f
  4788  06DA  0BA8               	decfsz	??___fldiv,f
  4789  06DB  2ED5               	goto	u241_25
  4790  06DC                     i1l2233:
  4791  06DC  1FB7               	btfss	___fldiv@grs+3,7
  4792  06DD  2EDF               	goto	u242_21
  4793  06DE  2EE0               	goto	u242_20
  4794  06DF                     u242_21:
  4795  06DF  2EE1               	goto	i1l2237
  4796  06E0                     u242_20:
  4797  06E0                     i1l2235:
  4798  06E0  1424               	bsf	___fldiv@b,0
  4799  06E1                     i1l2237:
  4800  06E1  3001               	movlw	1
  4801  06E2  00A8               	movwf	??___fldiv
  4802  06E3                     u243_25:
  4803  06E3  1003               	clrc
  4804  06E4  0DB4               	rlf	___fldiv@grs,f
  4805  06E5  0DB5               	rlf	___fldiv@grs+1,f
  4806  06E6  0DB6               	rlf	___fldiv@grs+2,f
  4807  06E7  0DB7               	rlf	___fldiv@grs+3,f
  4808  06E8  0BA8               	decfsz	??___fldiv,f
  4809  06E9  2EE3               	goto	u243_25
  4810  06EA                     i1l2239:
  4811  06EA  0823               	movf	___fldiv@a+3,w
  4812  06EB  0230               	subwf	___fldiv@rem+3,w
  4813  06EC  1D03               	skipz
  4814  06ED  2EF8               	goto	u244_25
  4815  06EE  0822               	movf	___fldiv@a+2,w
  4816  06EF  022F               	subwf	___fldiv@rem+2,w
  4817  06F0  1D03               	skipz
  4818  06F1  2EF8               	goto	u244_25
  4819  06F2  0821               	movf	___fldiv@a+1,w
  4820  06F3  022E               	subwf	___fldiv@rem+1,w
  4821  06F4  1D03               	skipz
  4822  06F5  2EF8               	goto	u244_25
  4823  06F6  0820               	movf	___fldiv@a,w
  4824  06F7  022D               	subwf	___fldiv@rem,w
  4825  06F8                     u244_25:
  4826  06F8  1C03               	skipc
  4827  06F9  2EFB               	goto	u244_21
  4828  06FA  2EFC               	goto	u244_20
  4829  06FB                     u244_21:
  4830  06FB  2F0B               	goto	i1l2245
  4831  06FC                     u244_20:
  4832  06FC                     i1l2241:
  4833  06FC  1737               	bsf	___fldiv@grs+3,6
  4834  06FD                     i1l2243:
  4835  06FD  0820               	movf	___fldiv@a,w
  4836  06FE  02AD               	subwf	___fldiv@rem,f
  4837  06FF  0821               	movf	___fldiv@a+1,w
  4838  0700  1C03               	skipc
  4839  0701  0F21               	incfsz	___fldiv@a+1,w
  4840  0702  02AE               	subwf	___fldiv@rem+1,f
  4841  0703  0822               	movf	___fldiv@a+2,w
  4842  0704  1C03               	skipc
  4843  0705  0F22               	incfsz	___fldiv@a+2,w
  4844  0706  02AF               	subwf	___fldiv@rem+2,f
  4845  0707  0823               	movf	___fldiv@a+3,w
  4846  0708  1C03               	skipc
  4847  0709  0F23               	incfsz	___fldiv@a+3,w
  4848  070A  02B0               	subwf	___fldiv@rem+3,f
  4849  070B                     i1l2245:
  4850  070B  3001               	movlw	1
  4851  070C  00A8               	movwf	??___fldiv
  4852  070D  0828               	movf	??___fldiv,w
  4853  070E  07B9               	addwf	___fldiv@aexp,f
  4854  070F                     i1l2247:
  4855  070F  301A               	movlw	26
  4856  0710  0239               	subwf	___fldiv@aexp,w
  4857  0711  1C03               	skipc
  4858  0712  2F14               	goto	u245_21
  4859  0713  2F15               	goto	u245_20
  4860  0714                     u245_21:
  4861  0714  2EC5               	goto	i1l2229
  4862  0715                     u245_20:
  4863  0715                     i1l2249:
  4864  0715  0830               	movf	___fldiv@rem+3,w
  4865  0716  042F               	iorwf	___fldiv@rem+2,w
  4866  0717  042E               	iorwf	___fldiv@rem+1,w
  4867  0718  042D               	iorwf	___fldiv@rem,w
  4868  0719  1903               	skipnz
  4869  071A  2F1C               	goto	u246_21
  4870  071B  2F1D               	goto	u246_20
  4871  071C                     u246_21:
  4872  071C  2F3C               	goto	i1l2263
  4873  071D                     u246_20:
  4874  071D                     i1l2251:
  4875  071D  1434               	bsf	___fldiv@grs,0
  4876  071E  2F3C               	goto	i1l2263
  4877  071F                     i1l2253:
  4878  071F  3001               	movlw	1
  4879  0720  00A8               	movwf	??___fldiv
  4880  0721                     u247_25:
  4881  0721  1003               	clrc
  4882  0722  0DA4               	rlf	___fldiv@b,f
  4883  0723  0DA5               	rlf	___fldiv@b+1,f
  4884  0724  0DA6               	rlf	___fldiv@b+2,f
  4885  0725  0DA7               	rlf	___fldiv@b+3,f
  4886  0726  0BA8               	decfsz	??___fldiv,f
  4887  0727  2F21               	goto	u247_25
  4888  0728                     i1l2255:
  4889  0728  1FB7               	btfss	___fldiv@grs+3,7
  4890  0729  2F2B               	goto	u248_21
  4891  072A  2F2C               	goto	u248_20
  4892  072B                     u248_21:
  4893  072B  2F2D               	goto	i1l2259
  4894  072C                     u248_20:
  4895  072C                     i1l2257:
  4896  072C  1424               	bsf	___fldiv@b,0
  4897  072D                     i1l2259:
  4898  072D  3001               	movlw	1
  4899  072E  00A8               	movwf	??___fldiv
  4900  072F                     u249_25:
  4901  072F  1003               	clrc
  4902  0730  0DB4               	rlf	___fldiv@grs,f
  4903  0731  0DB5               	rlf	___fldiv@grs+1,f
  4904  0732  0DB6               	rlf	___fldiv@grs+2,f
  4905  0733  0DB7               	rlf	___fldiv@grs+3,f
  4906  0734  0BA8               	decfsz	??___fldiv,f
  4907  0735  2F2F               	goto	u249_25
  4908  0736                     i1l2261:
  4909  0736  30FF               	movlw	255
  4910  0737  07B2               	addwf	___fldiv@new_exp,f
  4911  0738  1803               	skipnc
  4912  0739  0AB3               	incf	___fldiv@new_exp+1,f
  4913  073A  30FF               	movlw	255
  4914  073B  07B3               	addwf	___fldiv@new_exp+1,f
  4915  073C                     i1l2263:
  4916  073C  1FA6               	btfss	___fldiv@b+2,7
  4917  073D  2F3F               	goto	u250_21
  4918  073E  2F40               	goto	u250_20
  4919  073F                     u250_21:
  4920  073F  2F1F               	goto	i1l2253
  4921  0740                     u250_20:
  4922  0740                     i1l2265:
  4923  0740  01B9               	clrf	___fldiv@aexp
  4924  0741                     i1l2267:
  4925  0741  1FB7               	btfss	___fldiv@grs+3,7
  4926  0742  2F44               	goto	u251_21
  4927  0743  2F45               	goto	u251_20
  4928  0744                     u251_21:
  4929  0744  2F61               	goto	i1l2275
  4930  0745                     u251_20:
  4931  0745                     i1l2269:
  4932  0745  30FF               	movlw	255
  4933  0746  0534               	andwf	___fldiv@grs,w
  4934  0747  00A8               	movwf	??___fldiv
  4935  0748  30FF               	movlw	255
  4936  0749  0535               	andwf	___fldiv@grs+1,w
  4937  074A  00A9               	movwf	??___fldiv+1
  4938  074B  30FF               	movlw	255
  4939  074C  0536               	andwf	___fldiv@grs+2,w
  4940  074D  00AA               	movwf	??___fldiv+2
  4941  074E  307F               	movlw	127
  4942  074F  0537               	andwf	___fldiv@grs+3,w
  4943  0750  00AB               	movwf	??___fldiv+3
  4944  0751  082B               	movf	??___fldiv+3,w
  4945  0752  042A               	iorwf	??___fldiv+2,w
  4946  0753  0429               	iorwf	??___fldiv+1,w
  4947  0754  0428               	iorwf	??___fldiv,w
  4948  0755  1903               	skipnz
  4949  0756  2F58               	goto	u252_21
  4950  0757  2F59               	goto	u252_20
  4951  0758                     u252_21:
  4952  0758  2F5C               	goto	i1l680
  4953  0759                     u252_20:
  4954  0759                     i1l2271:
  4955  0759  01B9               	clrf	___fldiv@aexp
  4956  075A  0AB9               	incf	___fldiv@aexp,f
  4957  075B  2F61               	goto	i1l2275
  4958  075C                     i1l680:
  4959  075C  1C24               	btfss	___fldiv@b,0
  4960  075D  2F5F               	goto	u253_21
  4961  075E  2F60               	goto	u253_20
  4962  075F                     u253_21:
  4963  075F  2F61               	goto	i1l2275
  4964  0760                     u253_20:
  4965  0760  2F59               	goto	i1l2271
  4966  0761                     i1l2275:
  4967  0761  0839               	movf	___fldiv@aexp,w
  4968  0762  1903               	btfsc	3,2
  4969  0763  2F65               	goto	u254_21
  4970  0764  2F66               	goto	u254_20
  4971  0765                     u254_21:
  4972  0765  2F97               	goto	i1l2285
  4973  0766                     u254_20:
  4974  0766                     i1l2277:
  4975  0766  3001               	movlw	1
  4976  0767  07A4               	addwf	___fldiv@b,f
  4977  0768  3000               	movlw	0
  4978  0769  1803               	skipnc
  4979  076A  3001               	movlw	1
  4980  076B  07A5               	addwf	___fldiv@b+1,f
  4981  076C  3000               	movlw	0
  4982  076D  1803               	skipnc
  4983  076E  3001               	movlw	1
  4984  076F  07A6               	addwf	___fldiv@b+2,f
  4985  0770  3000               	movlw	0
  4986  0771  1803               	skipnc
  4987  0772  3001               	movlw	1
  4988  0773  07A7               	addwf	___fldiv@b+3,f
  4989  0774                     i1l2279:
  4990  0774  1C27               	btfss	___fldiv@b+3,0
  4991  0775  2F77               	goto	u255_21
  4992  0776  2F78               	goto	u255_20
  4993  0777                     u255_21:
  4994  0777  2F97               	goto	i1l2285
  4995  0778                     u255_20:
  4996  0778                     i1l2281:
  4997  0778  0824               	movf	___fldiv@b,w
  4998  0779  00A8               	movwf	??___fldiv
  4999  077A  0825               	movf	___fldiv@b+1,w
  5000  077B  00A9               	movwf	??___fldiv+1
  5001  077C  0826               	movf	___fldiv@b+2,w
  5002  077D  00AA               	movwf	??___fldiv+2
  5003  077E  0827               	movf	___fldiv@b+3,w
  5004  077F  00AB               	movwf	??___fldiv+3
  5005  0780  3001               	movlw	1
  5006  0781  00AC               	movwf	??___fldiv+4
  5007  0782                     u256_25:
  5008  0782  0D2B               	rlf	??___fldiv+3,w
  5009  0783  0CAB               	rrf	??___fldiv+3,f
  5010  0784  0CAA               	rrf	??___fldiv+2,f
  5011  0785  0CA9               	rrf	??___fldiv+1,f
  5012  0786  0CA8               	rrf	??___fldiv,f
  5013  0787                     u256_20:
  5014  0787  0BAC               	decfsz	??___fldiv+4,f
  5015  0788  2F82               	goto	u256_25
  5016  0789  082B               	movf	??___fldiv+3,w
  5017  078A  00A7               	movwf	___fldiv@b+3
  5018  078B  082A               	movf	??___fldiv+2,w
  5019  078C  00A6               	movwf	___fldiv@b+2
  5020  078D  0829               	movf	??___fldiv+1,w
  5021  078E  00A5               	movwf	___fldiv@b+1
  5022  078F  0828               	movf	??___fldiv,w
  5023  0790  00A4               	movwf	___fldiv@b
  5024  0791                     i1l2283:
  5025  0791  3001               	movlw	1
  5026  0792  07B2               	addwf	___fldiv@new_exp,f
  5027  0793  1803               	skipnc
  5028  0794  0AB3               	incf	___fldiv@new_exp+1,f
  5029  0795  3000               	movlw	0
  5030  0796  07B3               	addwf	___fldiv@new_exp+1,f
  5031  0797                     i1l2285:
  5032  0797  0833               	movf	___fldiv@new_exp+1,w
  5033  0798  3A80               	xorlw	128
  5034  0799  00FF               	movwf	btemp+1
  5035  079A  3080               	movlw	128
  5036  079B  027F               	subwf	btemp+1,w
  5037  079C  1D03               	skipz
  5038  079D  2FA0               	goto	u257_25
  5039  079E  30FF               	movlw	255
  5040  079F  0232               	subwf	___fldiv@new_exp,w
  5041  07A0                     u257_25:
  5042  07A0  1C03               	skipc
  5043  07A1  2FA3               	goto	u257_21
  5044  07A2  2FA4               	goto	u257_20
  5045  07A3                     u257_21:
  5046  07A3  2FB2               	goto	i1l2289
  5047  07A4                     u257_20:
  5048  07A4                     i1l2287:
  5049  07A4  30FF               	movlw	255
  5050  07A5  1283               	bcf	3,5	;RP0=0, select bank0
  5051  07A6  1303               	bcf	3,6	;RP1=0, select bank0
  5052  07A7  00B2               	movwf	___fldiv@new_exp
  5053  07A8  3000               	movlw	0
  5054  07A9  00B3               	movwf	___fldiv@new_exp+1
  5055  07AA  3000               	movlw	0
  5056  07AB  00A7               	movwf	___fldiv@b+3
  5057  07AC  3000               	movlw	0
  5058  07AD  00A6               	movwf	___fldiv@b+2
  5059  07AE  3000               	movlw	0
  5060  07AF  00A5               	movwf	___fldiv@b+1
  5061  07B0  3000               	movlw	0
  5062  07B1  00A4               	movwf	___fldiv@b
  5063  07B2                     i1l2289:
  5064  07B2  1283               	bcf	3,5	;RP0=0, select bank0
  5065  07B3  1303               	bcf	3,6	;RP1=0, select bank0
  5066  07B4  0833               	movf	___fldiv@new_exp+1,w
  5067  07B5  3A80               	xorlw	128
  5068  07B6  00FF               	movwf	btemp+1
  5069  07B7  3080               	movlw	128
  5070  07B8  027F               	subwf	btemp+1,w
  5071  07B9  1D03               	skipz
  5072  07BA  2FBD               	goto	u258_25
  5073  07BB  3001               	movlw	1
  5074  07BC  0232               	subwf	___fldiv@new_exp,w
  5075  07BD                     u258_25:
  5076  07BD  1803               	skipnc
  5077  07BE  2FC0               	goto	u258_21
  5078  07BF  2FC1               	goto	u258_20
  5079  07C0                     u258_21:
  5080  07C0  2FCE               	goto	i1l686
  5081  07C1                     u258_20:
  5082  07C1                     i1l2291:
  5083  07C1  1283               	bcf	3,5	;RP0=0, select bank0
  5084  07C2  1303               	bcf	3,6	;RP1=0, select bank0
  5085  07C3  01B2               	clrf	___fldiv@new_exp
  5086  07C4  01B3               	clrf	___fldiv@new_exp+1
  5087  07C5                     i1l2293:
  5088  07C5  3000               	movlw	0
  5089  07C6  00A7               	movwf	___fldiv@b+3
  5090  07C7  3000               	movlw	0
  5091  07C8  00A6               	movwf	___fldiv@b+2
  5092  07C9  3000               	movlw	0
  5093  07CA  00A5               	movwf	___fldiv@b+1
  5094  07CB  3000               	movlw	0
  5095  07CC  00A4               	movwf	___fldiv@b
  5096  07CD                     i1l2295:
  5097  07CD  01B1               	clrf	___fldiv@sign
  5098  07CE                     i1l686:
  5099  07CE  1283               	bcf	3,5	;RP0=0, select bank0
  5100  07CF  1303               	bcf	3,6	;RP1=0, select bank0
  5101  07D0  0832               	movf	___fldiv@new_exp,w
  5102  07D1  00A8               	movwf	??___fldiv
  5103  07D2  0828               	movf	??___fldiv,w
  5104  07D3  00B8               	movwf	___fldiv@bexp
  5105  07D4                     i1l2297:
  5106  07D4  1C38               	btfss	___fldiv@bexp,0
  5107  07D5  2FD7               	goto	u259_21
  5108  07D6  2FD8               	goto	u259_20
  5109  07D7                     u259_21:
  5110  07D7  2FDA               	goto	i1l2301
  5111  07D8                     u259_20:
  5112  07D8                     i1l2299:
  5113  07D8  17A6               	bsf	___fldiv@b+2,7
  5114  07D9  2FDE               	goto	i1l688
  5115  07DA                     i1l2301:
  5116  07DA  307F               	movlw	127
  5117  07DB  00A8               	movwf	??___fldiv
  5118  07DC  0828               	movf	??___fldiv,w
  5119  07DD  05A6               	andwf	___fldiv@b+2,f
  5120  07DE                     i1l688:
  5121  07DE  0838               	movf	___fldiv@bexp,w
  5122  07DF  00A8               	movwf	??___fldiv
  5123  07E0  1003               	clrc
  5124  07E1  0C28               	rrf	??___fldiv,w
  5125  07E2  00A9               	movwf	??___fldiv+1
  5126  07E3  0829               	movf	??___fldiv+1,w
  5127  07E4  00A7               	movwf	___fldiv@b+3
  5128  07E5  0831               	movf	___fldiv@sign,w
  5129  07E6  00A8               	movwf	??___fldiv
  5130  07E7  0828               	movf	??___fldiv,w
  5131  07E8  04A7               	iorwf	___fldiv@b+3,f
  5132  07E9  2E82               	goto	i1l2209
  5133  07EA                     i1l666:
  5134  07EA  0008               	return
  5135  07EB                     __end_of___fldiv:
  5136                           
  5137                           	psect	text11
  5138  0386                     __ptext11:	
  5139 ;; *************** function ___fladd *****************
  5140 ;; Defined at:
  5141 ;;		line 10 in file "C:\Program Files\Microchip\xc8\v2.35\pic\sources\c90\common\sprcadd.c"
  5142 ;; Parameters:    Size  Location     Type
  5143 ;;  b               4   52[BANK0 ] unsigned char 
  5144 ;;  a               4   56[BANK0 ] unsigned char 
  5145 ;; Auto vars:     Size  Location     Type
  5146 ;;  grs             1   71[BANK0 ] unsigned char 
  5147 ;;  bexp            1   70[BANK0 ] unsigned char 
  5148 ;;  aexp            1   69[BANK0 ] unsigned char 
  5149 ;;  signs           1   68[BANK0 ] unsigned char 
  5150 ;; Return value:  Size  Location     Type
  5151 ;;                  4   52[BANK0 ] unsigned char 
  5152 ;; Registers used:
  5153 ;;		wreg, status,2, status,0, btemp+1
  5154 ;; Tracked objects:
  5155 ;;		On entry : 0/0
  5156 ;;		On exit  : 0/0
  5157 ;;		Unchanged: 0/0
  5158 ;; Data sizes:     COMMON   BANK0   BANK1   BANK3   BANK2
  5159 ;;      Params:         0       8       0       0       0
  5160 ;;      Locals:         0       4       0       0       0
  5161 ;;      Temps:          0       8       0       0       0
  5162 ;;      Totals:         0      20       0       0       0
  5163 ;;Total ram usage:       20 bytes
  5164 ;; Hardware stack levels used: 1
  5165 ;; This function calls:
  5166 ;;		Nothing
  5167 ;; This function is called by:
  5168 ;;		_map
  5169 ;; This function uses a non-reentrant model
  5170 ;;
  5171                           
  5172  0386                     ___fladd:	
  5173                           ;psect for function ___fladd
  5174                           
  5175  0386                     i1l1971:	
  5176                           ;incstack = 0
  5177                           ; Regs used in ___fladd: [wreg+status,2+status,0+btemp+1]
  5178                           
  5179  0386  1283               	bcf	3,5	;RP0=0, select bank0
  5180  0387  1303               	bcf	3,6	;RP1=0, select bank0
  5181  0388  0857               	movf	___fladd@b+3,w
  5182  0389  3980               	andlw	128
  5183  038A  00DC               	movwf	??___fladd
  5184  038B  085C               	movf	??___fladd,w
  5185  038C  00E4               	movwf	___fladd@signs
  5186  038D                     i1l1973:
  5187  038D  0857               	movf	___fladd@b+3,w
  5188  038E  00DC               	movwf	??___fladd
  5189  038F  075C               	addwf	??___fladd,w
  5190  0390  00DD               	movwf	??___fladd+1
  5191  0391  085D               	movf	??___fladd+1,w
  5192  0392  00E6               	movwf	___fladd@bexp
  5193  0393                     i1l1975:
  5194  0393  1FD6               	btfss	___fladd@b+2,7
  5195  0394  2B96               	goto	u185_21
  5196  0395  2B97               	goto	u185_20
  5197  0396                     u185_21:
  5198  0396  2B98               	goto	i1l1979
  5199  0397                     u185_20:
  5200  0397                     i1l1977:
  5201  0397  1466               	bsf	___fladd@bexp,0
  5202  0398                     i1l1979:
  5203  0398  0866               	movf	___fladd@bexp,w
  5204  0399  1903               	btfsc	3,2
  5205  039A  2B9C               	goto	u186_21
  5206  039B  2B9D               	goto	u186_20
  5207  039C                     u186_21:
  5208  039C  2BAD               	goto	i1l1989
  5209  039D                     u186_20:
  5210  039D                     i1l1981:
  5211  039D  0A66               	incf	___fladd@bexp,w
  5212  039E  1D03               	btfss	3,2
  5213  039F  2BA1               	goto	u187_21
  5214  03A0  2BA2               	goto	u187_20
  5215  03A1                     u187_21:
  5216  03A1  2BAA               	goto	i1l1985
  5217  03A2                     u187_20:
  5218  03A2                     i1l1983:
  5219  03A2  3000               	movlw	0
  5220  03A3  00D7               	movwf	___fladd@b+3
  5221  03A4  3000               	movlw	0
  5222  03A5  00D6               	movwf	___fladd@b+2
  5223  03A6  3000               	movlw	0
  5224  03A7  00D5               	movwf	___fladd@b+1
  5225  03A8  3000               	movlw	0
  5226  03A9  00D4               	movwf	___fladd@b
  5227  03AA                     i1l1985:
  5228  03AA  17D6               	bsf	___fladd@b+2,7
  5229  03AB                     i1l1987:
  5230  03AB  01D7               	clrf	___fladd@b+3
  5231  03AC  2BB5               	goto	i1l1991
  5232  03AD                     i1l1989:
  5233  03AD  3000               	movlw	0
  5234  03AE  00D7               	movwf	___fladd@b+3
  5235  03AF  3000               	movlw	0
  5236  03B0  00D6               	movwf	___fladd@b+2
  5237  03B1  3000               	movlw	0
  5238  03B2  00D5               	movwf	___fladd@b+1
  5239  03B3  3000               	movlw	0
  5240  03B4  00D4               	movwf	___fladd@b
  5241  03B5                     i1l1991:
  5242  03B5  085B               	movf	___fladd@a+3,w
  5243  03B6  3980               	andlw	128
  5244  03B7  00DC               	movwf	??___fladd
  5245  03B8  085C               	movf	??___fladd,w
  5246  03B9  00E5               	movwf	___fladd@aexp
  5247  03BA                     i1l1993:
  5248  03BA  0865               	movf	___fladd@aexp,w
  5249  03BB  0664               	xorwf	___fladd@signs,w
  5250  03BC  1903               	skipnz
  5251  03BD  2BBF               	goto	u188_21
  5252  03BE  2BC0               	goto	u188_20
  5253  03BF                     u188_21:
  5254  03BF  2BC1               	goto	i1l1997
  5255  03C0                     u188_20:
  5256  03C0                     i1l1995:
  5257  03C0  1764               	bsf	___fladd@signs,6
  5258  03C1                     i1l1997:
  5259  03C1  085B               	movf	___fladd@a+3,w
  5260  03C2  00DC               	movwf	??___fladd
  5261  03C3  075C               	addwf	??___fladd,w
  5262  03C4  00DD               	movwf	??___fladd+1
  5263  03C5  085D               	movf	??___fladd+1,w
  5264  03C6  00E5               	movwf	___fladd@aexp
  5265  03C7                     i1l1999:
  5266  03C7  1FDA               	btfss	___fladd@a+2,7
  5267  03C8  2BCA               	goto	u189_21
  5268  03C9  2BCB               	goto	u189_20
  5269  03CA                     u189_21:
  5270  03CA  2BCC               	goto	i1l2003
  5271  03CB                     u189_20:
  5272  03CB                     i1l2001:
  5273  03CB  1465               	bsf	___fladd@aexp,0
  5274  03CC                     i1l2003:
  5275  03CC  0865               	movf	___fladd@aexp,w
  5276  03CD  1903               	btfsc	3,2
  5277  03CE  2BD0               	goto	u190_21
  5278  03CF  2BD1               	goto	u190_20
  5279  03D0                     u190_21:
  5280  03D0  2BE1               	goto	i1l2013
  5281  03D1                     u190_20:
  5282  03D1                     i1l2005:
  5283  03D1  0A65               	incf	___fladd@aexp,w
  5284  03D2  1D03               	btfss	3,2
  5285  03D3  2BD5               	goto	u191_21
  5286  03D4  2BD6               	goto	u191_20
  5287  03D5                     u191_21:
  5288  03D5  2BDE               	goto	i1l2009
  5289  03D6                     u191_20:
  5290  03D6                     i1l2007:
  5291  03D6  3000               	movlw	0
  5292  03D7  00DB               	movwf	___fladd@a+3
  5293  03D8  3000               	movlw	0
  5294  03D9  00DA               	movwf	___fladd@a+2
  5295  03DA  3000               	movlw	0
  5296  03DB  00D9               	movwf	___fladd@a+1
  5297  03DC  3000               	movlw	0
  5298  03DD  00D8               	movwf	___fladd@a
  5299  03DE                     i1l2009:
  5300  03DE  17DA               	bsf	___fladd@a+2,7
  5301  03DF                     i1l2011:
  5302  03DF  01DB               	clrf	___fladd@a+3
  5303  03E0  2BE9               	goto	i1l608
  5304  03E1                     i1l2013:
  5305  03E1  3000               	movlw	0
  5306  03E2  00DB               	movwf	___fladd@a+3
  5307  03E3  3000               	movlw	0
  5308  03E4  00DA               	movwf	___fladd@a+2
  5309  03E5  3000               	movlw	0
  5310  03E6  00D9               	movwf	___fladd@a+1
  5311  03E7  3000               	movlw	0
  5312  03E8  00D8               	movwf	___fladd@a
  5313  03E9                     i1l608:
  5314  03E9  0866               	movf	___fladd@bexp,w
  5315  03EA  0265               	subwf	___fladd@aexp,w
  5316  03EB  1803               	skipnc
  5317  03EC  2BEE               	goto	u192_21
  5318  03ED  2BEF               	goto	u192_20
  5319  03EE                     u192_21:
  5320  03EE  2C33               	goto	i1l2049
  5321  03EF                     u192_20:
  5322  03EF                     i1l2015:
  5323  03EF  1F64               	btfss	___fladd@signs,6
  5324  03F0  2BF2               	goto	u193_21
  5325  03F1  2BF3               	goto	u193_20
  5326  03F2                     u193_21:
  5327  03F2  2BF7               	goto	i1l2019
  5328  03F3                     u193_20:
  5329  03F3                     i1l2017:
  5330  03F3  3080               	movlw	128
  5331  03F4  00DC               	movwf	??___fladd
  5332  03F5  085C               	movf	??___fladd,w
  5333  03F6  06E4               	xorwf	___fladd@signs,f
  5334  03F7                     i1l2019:
  5335  03F7  0866               	movf	___fladd@bexp,w
  5336  03F8  00DC               	movwf	??___fladd
  5337  03F9  085C               	movf	??___fladd,w
  5338  03FA  00E7               	movwf	___fladd@grs
  5339  03FB                     i1l2021:
  5340  03FB  0865               	movf	___fladd@aexp,w
  5341  03FC  00DC               	movwf	??___fladd
  5342  03FD  085C               	movf	??___fladd,w
  5343  03FE  00E6               	movwf	___fladd@bexp
  5344  03FF                     i1l2023:
  5345  03FF  0867               	movf	___fladd@grs,w
  5346  0400  00DC               	movwf	??___fladd
  5347  0401  085C               	movf	??___fladd,w
  5348  0402  00E5               	movwf	___fladd@aexp
  5349  0403                     i1l2025:
  5350  0403  0854               	movf	___fladd@b,w
  5351  0404  00DC               	movwf	??___fladd
  5352  0405  085C               	movf	??___fladd,w
  5353  0406  00E7               	movwf	___fladd@grs
  5354  0407                     i1l2027:
  5355  0407  0858               	movf	___fladd@a,w
  5356  0408  00DC               	movwf	??___fladd
  5357  0409  085C               	movf	??___fladd,w
  5358  040A  00D4               	movwf	___fladd@b
  5359  040B                     i1l2029:
  5360  040B  0867               	movf	___fladd@grs,w
  5361  040C  00DC               	movwf	??___fladd
  5362  040D  085C               	movf	??___fladd,w
  5363  040E  00D8               	movwf	___fladd@a
  5364  040F                     i1l2031:
  5365  040F  0855               	movf	___fladd@b+1,w
  5366  0410  00DC               	movwf	??___fladd
  5367  0411  085C               	movf	??___fladd,w
  5368  0412  00E7               	movwf	___fladd@grs
  5369  0413                     i1l2033:
  5370  0413  0859               	movf	___fladd@a+1,w
  5371  0414  00DC               	movwf	??___fladd
  5372  0415  085C               	movf	??___fladd,w
  5373  0416  00D5               	movwf	___fladd@b+1
  5374  0417                     i1l2035:
  5375  0417  0867               	movf	___fladd@grs,w
  5376  0418  00DC               	movwf	??___fladd
  5377  0419  085C               	movf	??___fladd,w
  5378  041A  00D9               	movwf	___fladd@a+1
  5379  041B                     i1l2037:
  5380  041B  0856               	movf	___fladd@b+2,w
  5381  041C  00DC               	movwf	??___fladd
  5382  041D  085C               	movf	??___fladd,w
  5383  041E  00E7               	movwf	___fladd@grs
  5384  041F                     i1l2039:
  5385  041F  085A               	movf	___fladd@a+2,w
  5386  0420  00DC               	movwf	??___fladd
  5387  0421  085C               	movf	??___fladd,w
  5388  0422  00D6               	movwf	___fladd@b+2
  5389  0423                     i1l2041:
  5390  0423  0867               	movf	___fladd@grs,w
  5391  0424  00DC               	movwf	??___fladd
  5392  0425  085C               	movf	??___fladd,w
  5393  0426  00DA               	movwf	___fladd@a+2
  5394  0427                     i1l2043:
  5395  0427  0857               	movf	___fladd@b+3,w
  5396  0428  00DC               	movwf	??___fladd
  5397  0429  085C               	movf	??___fladd,w
  5398  042A  00E7               	movwf	___fladd@grs
  5399  042B                     i1l2045:
  5400  042B  085B               	movf	___fladd@a+3,w
  5401  042C  00DC               	movwf	??___fladd
  5402  042D  085C               	movf	??___fladd,w
  5403  042E  00D7               	movwf	___fladd@b+3
  5404  042F                     i1l2047:
  5405  042F  0867               	movf	___fladd@grs,w
  5406  0430  00DC               	movwf	??___fladd
  5407  0431  085C               	movf	??___fladd,w
  5408  0432  00DB               	movwf	___fladd@a+3
  5409  0433                     i1l2049:
  5410  0433  01E7               	clrf	___fladd@grs
  5411  0434                     i1l2051:
  5412  0434  0865               	movf	___fladd@aexp,w
  5413  0435  00DC               	movwf	??___fladd
  5414  0436  01DD               	clrf	??___fladd+1
  5415  0437  085D               	movf	??___fladd+1,w
  5416  0438  00DF               	movwf	??___fladd+3
  5417  0439  0866               	movf	___fladd@bexp,w
  5418  043A  025C               	subwf	??___fladd,w
  5419  043B  00DE               	movwf	??___fladd+2
  5420  043C  1C03               	skipc
  5421  043D  03DF               	decf	??___fladd+3,f
  5422  043E  085F               	movf	??___fladd+3,w
  5423  043F  3A80               	xorlw	128
  5424  0440  00FF               	movwf	btemp+1
  5425  0441  3080               	movlw	128
  5426  0442  027F               	subwf	btemp+1,w
  5427  0443  1D03               	skipz
  5428  0444  2C47               	goto	u194_25
  5429  0445  301A               	movlw	26
  5430  0446  025E               	subwf	??___fladd+2,w
  5431  0447                     u194_25:
  5432  0447  1C03               	skipc
  5433  0448  2C4A               	goto	u194_21
  5434  0449  2C4B               	goto	u194_20
  5435  044A                     u194_21:
  5436  044A  2C88               	goto	i1l2067
  5437  044B                     u194_20:
  5438  044B                     i1l2053:
  5439  044B  1283               	bcf	3,5	;RP0=0, select bank0
  5440  044C  1303               	bcf	3,6	;RP1=0, select bank0
  5441  044D  0857               	movf	___fladd@b+3,w
  5442  044E  0456               	iorwf	___fladd@b+2,w
  5443  044F  0455               	iorwf	___fladd@b+1,w
  5444  0450  0454               	iorwf	___fladd@b,w
  5445  0451  1D03               	skipz
  5446  0452  2C54               	goto	u195_21
  5447  0453  2C56               	goto	u195_20
  5448  0454                     u195_21:
  5449  0454  3001               	movlw	1
  5450  0455  2C57               	goto	u196_20
  5451  0456                     u195_20:
  5452  0456  3000               	movlw	0
  5453  0457                     u196_20:
  5454  0457  00DC               	movwf	??___fladd
  5455  0458  085C               	movf	??___fladd,w
  5456  0459  00E7               	movwf	___fladd@grs
  5457  045A  3000               	movlw	0
  5458  045B  00D7               	movwf	___fladd@b+3
  5459  045C  3000               	movlw	0
  5460  045D  00D6               	movwf	___fladd@b+2
  5461  045E  3000               	movlw	0
  5462  045F  00D5               	movwf	___fladd@b+1
  5463  0460  3000               	movlw	0
  5464  0461  00D4               	movwf	___fladd@b
  5465  0462  0865               	movf	___fladd@aexp,w
  5466  0463  00DC               	movwf	??___fladd
  5467  0464  085C               	movf	??___fladd,w
  5468  0465  00E6               	movwf	___fladd@bexp
  5469  0466  2C90               	goto	i1l612
  5470  0467                     i1l614:
  5471  0467  1C67               	btfss	___fladd@grs,0
  5472  0468  2C6A               	goto	u197_21
  5473  0469  2C6B               	goto	u197_20
  5474  046A                     u197_21:
  5475  046A  2C74               	goto	i1l2057
  5476  046B                     u197_20:
  5477  046B                     i1l2055:
  5478  046B  0867               	movf	___fladd@grs,w
  5479  046C  00DC               	movwf	??___fladd
  5480  046D  1003               	clrc
  5481  046E  0C5C               	rrf	??___fladd,w
  5482  046F  3801               	iorlw	1
  5483  0470  00DD               	movwf	??___fladd+1
  5484  0471  085D               	movf	??___fladd+1,w
  5485  0472  00E7               	movwf	___fladd@grs
  5486  0473  2C76               	goto	i1l2059
  5487  0474                     i1l2057:
  5488  0474  1003               	clrc
  5489  0475  0CE7               	rrf	___fladd@grs,f
  5490  0476                     i1l2059:
  5491  0476  1C54               	btfss	___fladd@b,0
  5492  0477  2C79               	goto	u198_21
  5493  0478  2C7A               	goto	u198_20
  5494  0479                     u198_21:
  5495  0479  2C7B               	goto	i1l2063
  5496  047A                     u198_20:
  5497  047A                     i1l2061:
  5498  047A  17E7               	bsf	___fladd@grs,7
  5499  047B                     i1l2063:
  5500  047B  3001               	movlw	1
  5501  047C  00DC               	movwf	??___fladd
  5502  047D                     u199_25:
  5503  047D  0D57               	rlf	___fladd@b+3,w
  5504  047E  0CD7               	rrf	___fladd@b+3,f
  5505  047F  0CD6               	rrf	___fladd@b+2,f
  5506  0480  0CD5               	rrf	___fladd@b+1,f
  5507  0481  0CD4               	rrf	___fladd@b,f
  5508  0482  0BDC               	decfsz	??___fladd& (0+127),f
  5509  0483  2C7D               	goto	u199_25
  5510  0484                     i1l2065:
  5511  0484  3001               	movlw	1
  5512  0485  00DC               	movwf	??___fladd
  5513  0486  085C               	movf	??___fladd,w
  5514  0487  07E6               	addwf	___fladd@bexp,f
  5515  0488                     i1l2067:
  5516  0488  1283               	bcf	3,5	;RP0=0, select bank0
  5517  0489  1303               	bcf	3,6	;RP1=0, select bank0
  5518  048A  0865               	movf	___fladd@aexp,w
  5519  048B  0266               	subwf	___fladd@bexp,w
  5520  048C  1C03               	skipc
  5521  048D  2C8F               	goto	u200_21
  5522  048E  2C90               	goto	u200_20
  5523  048F                     u200_21:
  5524  048F  2C67               	goto	i1l614
  5525  0490                     u200_20:
  5526  0490                     i1l612:
  5527  0490  1B64               	btfsc	___fladd@signs,6
  5528  0491  2C93               	goto	u201_21
  5529  0492  2C94               	goto	u201_20
  5530  0493                     u201_21:
  5531  0493  2CDF               	goto	i1l2093
  5532  0494                     u201_20:
  5533  0494                     i1l2069:
  5534  0494  0866               	movf	___fladd@bexp,w
  5535  0495  1D03               	btfss	3,2
  5536  0496  2C98               	goto	u202_21
  5537  0497  2C99               	goto	u202_20
  5538  0498                     u202_21:
  5539  0498  2CA2               	goto	i1l2075
  5540  0499                     u202_20:
  5541  0499                     i1l2071:
  5542  0499  3000               	movlw	0
  5543  049A  00D7               	movwf	?___fladd+3
  5544  049B  3000               	movlw	0
  5545  049C  00D6               	movwf	?___fladd+2
  5546  049D  3000               	movlw	0
  5547  049E  00D5               	movwf	?___fladd+1
  5548  049F  3000               	movlw	0
  5549  04A0  00D4               	movwf	?___fladd
  5550  04A1  2E0D               	goto	i1l621
  5551  04A2                     i1l2075:
  5552  04A2  0858               	movf	___fladd@a,w
  5553  04A3  07D4               	addwf	___fladd@b,f
  5554  04A4  0859               	movf	___fladd@a+1,w
  5555  04A5  1103               	clrz
  5556  04A6  1803               	skipnc
  5557  04A7  3E01               	addlw	1
  5558  04A8  1903               	skipnz
  5559  04A9  2CAB               	goto	u203_21
  5560  04AA  07D5               	addwf	___fladd@b+1,f
  5561  04AB                     u203_21:
  5562  04AB  085A               	movf	___fladd@a+2,w
  5563  04AC  1103               	clrz
  5564  04AD  1803               	skipnc
  5565  04AE  3E01               	addlw	1
  5566  04AF  1903               	skipnz
  5567  04B0  2CB2               	goto	u203_22
  5568  04B1  07D6               	addwf	___fladd@b+2,f
  5569  04B2                     u203_22:
  5570  04B2  085B               	movf	___fladd@a+3,w
  5571  04B3  1103               	clrz
  5572  04B4  1803               	skipnc
  5573  04B5  3E01               	addlw	1
  5574  04B6  1903               	skipnz
  5575  04B7  2CB9               	goto	u203_23
  5576  04B8  07D7               	addwf	___fladd@b+3,f
  5577  04B9                     u203_23:
  5578  04B9                     i1l2077:
  5579  04B9  1C57               	btfss	___fladd@b+3,0
  5580  04BA  2CBC               	goto	u204_21
  5581  04BB  2CBD               	goto	u204_20
  5582  04BC                     u204_21:
  5583  04BC  2D93               	goto	i1l2127
  5584  04BD                     u204_20:
  5585  04BD                     i1l2079:
  5586  04BD  1C67               	btfss	___fladd@grs,0
  5587  04BE  2CC0               	goto	u205_21
  5588  04BF  2CC1               	goto	u205_20
  5589  04C0                     u205_21:
  5590  04C0  2CCA               	goto	i1l2083
  5591  04C1                     u205_20:
  5592  04C1                     i1l2081:
  5593  04C1  0867               	movf	___fladd@grs,w
  5594  04C2  00DC               	movwf	??___fladd
  5595  04C3  1003               	clrc
  5596  04C4  0C5C               	rrf	??___fladd,w
  5597  04C5  3801               	iorlw	1
  5598  04C6  00DD               	movwf	??___fladd+1
  5599  04C7  085D               	movf	??___fladd+1,w
  5600  04C8  00E7               	movwf	___fladd@grs
  5601  04C9  2CCC               	goto	i1l2085
  5602  04CA                     i1l2083:
  5603  04CA  1003               	clrc
  5604  04CB  0CE7               	rrf	___fladd@grs,f
  5605  04CC                     i1l2085:
  5606  04CC  1C54               	btfss	___fladd@b,0
  5607  04CD  2CCF               	goto	u206_21
  5608  04CE  2CD0               	goto	u206_20
  5609  04CF                     u206_21:
  5610  04CF  2CD1               	goto	i1l2089
  5611  04D0                     u206_20:
  5612  04D0                     i1l2087:
  5613  04D0  17E7               	bsf	___fladd@grs,7
  5614  04D1                     i1l2089:
  5615  04D1  3001               	movlw	1
  5616  04D2  00DC               	movwf	??___fladd
  5617  04D3                     u207_25:
  5618  04D3  0D57               	rlf	___fladd@b+3,w
  5619  04D4  0CD7               	rrf	___fladd@b+3,f
  5620  04D5  0CD6               	rrf	___fladd@b+2,f
  5621  04D6  0CD5               	rrf	___fladd@b+1,f
  5622  04D7  0CD4               	rrf	___fladd@b,f
  5623  04D8  0BDC               	decfsz	??___fladd& (0+127),f
  5624  04D9  2CD3               	goto	u207_25
  5625  04DA                     i1l2091:
  5626  04DA  3001               	movlw	1
  5627  04DB  00DC               	movwf	??___fladd
  5628  04DC  085C               	movf	??___fladd,w
  5629  04DD  07E6               	addwf	___fladd@bexp,f
  5630  04DE  2D93               	goto	i1l2127
  5631  04DF                     i1l2093:
  5632  04DF  0857               	movf	___fladd@b+3,w
  5633  04E0  3A80               	xorlw	128
  5634  04E1  00FF               	movwf	btemp+1
  5635  04E2  085B               	movf	___fladd@a+3,w
  5636  04E3  3A80               	xorlw	128
  5637  04E4  027F               	subwf	btemp+1,w
  5638  04E5  1D03               	skipz
  5639  04E6  2CF1               	goto	u208_23
  5640  04E7  085A               	movf	___fladd@a+2,w
  5641  04E8  0256               	subwf	___fladd@b+2,w
  5642  04E9  1D03               	skipz
  5643  04EA  2CF1               	goto	u208_23
  5644  04EB  0859               	movf	___fladd@a+1,w
  5645  04EC  0255               	subwf	___fladd@b+1,w
  5646  04ED  1D03               	skipz
  5647  04EE  2CF1               	goto	u208_23
  5648  04EF  0858               	movf	___fladd@a,w
  5649  04F0  0254               	subwf	___fladd@b,w
  5650  04F1                     u208_23:
  5651  04F1  1803               	skipnc
  5652  04F2  2CF4               	goto	u208_21
  5653  04F3  2CF5               	goto	u208_20
  5654  04F4                     u208_21:
  5655  04F4  2D4D               	goto	i1l2103
  5656  04F5                     u208_20:
  5657  04F5                     i1l2095:
  5658  04F5  30FF               	movlw	255
  5659  04F6  00DC               	movwf	??___fladd
  5660  04F7  30FF               	movlw	255
  5661  04F8  00DD               	movwf	??___fladd+1
  5662  04F9  30FF               	movlw	255
  5663  04FA  00DE               	movwf	??___fladd+2
  5664  04FB  30FF               	movlw	255
  5665  04FC  00DF               	movwf	??___fladd+3
  5666  04FD  0858               	movf	___fladd@a,w
  5667  04FE  00E0               	movwf	??___fladd+4
  5668  04FF  0859               	movf	___fladd@a+1,w
  5669  0500  00E1               	movwf	??___fladd+5
  5670  0501  085A               	movf	___fladd@a+2,w
  5671  0502  00E2               	movwf	??___fladd+6
  5672  0503  085B               	movf	___fladd@a+3,w
  5673  0504  00E3               	movwf	??___fladd+7
  5674  0505  0854               	movf	___fladd@b,w
  5675  0506  02E0               	subwf	??___fladd+4,f
  5676  0507  0855               	movf	___fladd@b+1,w
  5677  0508  1C03               	skipc
  5678  0509  0F55               	incfsz	___fladd@b+1,w
  5679  050A  2D0C               	goto	u209_21
  5680  050B  2D0D               	goto	u209_22
  5681  050C                     u209_21:
  5682  050C  02E1               	subwf	??___fladd+5,f
  5683  050D                     u209_22:
  5684  050D  0856               	movf	___fladd@b+2,w
  5685  050E  1C03               	skipc
  5686  050F  0F56               	incfsz	___fladd@b+2,w
  5687  0510  2D12               	goto	u209_23
  5688  0511  2D13               	goto	u209_24
  5689  0512                     u209_23:
  5690  0512  02E2               	subwf	??___fladd+6,f
  5691  0513                     u209_24:
  5692  0513  0857               	movf	___fladd@b+3,w
  5693  0514  1C03               	skipc
  5694  0515  0F57               	incfsz	___fladd@b+3,w
  5695  0516  2D18               	goto	u209_25
  5696  0517  2D19               	goto	u209_26
  5697  0518                     u209_25:
  5698  0518  02E3               	subwf	??___fladd+7,f
  5699  0519                     u209_26:
  5700  0519  0860               	movf	??___fladd+4,w
  5701  051A  07DC               	addwf	??___fladd,f
  5702  051B  0861               	movf	??___fladd+5,w
  5703  051C  1803               	skipnc
  5704  051D  0F61               	incfsz	??___fladd+5,w
  5705  051E  2D20               	goto	u210_20
  5706  051F  2D21               	goto	u210_21
  5707  0520                     u210_20:
  5708  0520  07DD               	addwf	??___fladd+1,f
  5709  0521                     u210_21:
  5710  0521  0862               	movf	??___fladd+6,w
  5711  0522  1803               	skipnc
  5712  0523  0F62               	incfsz	??___fladd+6,w
  5713  0524  2D26               	goto	u210_22
  5714  0525  2D27               	goto	u210_23
  5715  0526                     u210_22:
  5716  0526  07DE               	addwf	??___fladd+2,f
  5717  0527                     u210_23:
  5718  0527  0863               	movf	??___fladd+7,w
  5719  0528  1803               	skipnc
  5720  0529  0A63               	incf	??___fladd+7,w
  5721  052A  07DF               	addwf	??___fladd+3,f
  5722  052B  085F               	movf	??___fladd+3,w
  5723  052C  00D7               	movwf	___fladd@b+3
  5724  052D  085E               	movf	??___fladd+2,w
  5725  052E  00D6               	movwf	___fladd@b+2
  5726  052F  085D               	movf	??___fladd+1,w
  5727  0530  00D5               	movwf	___fladd@b+1
  5728  0531  085C               	movf	??___fladd,w
  5729  0532  00D4               	movwf	___fladd@b
  5730  0533                     i1l2097:
  5731  0533  3080               	movlw	128
  5732  0534  00DC               	movwf	??___fladd
  5733  0535  085C               	movf	??___fladd,w
  5734  0536  06E4               	xorwf	___fladd@signs,f
  5735  0537  09E7               	comf	___fladd@grs,f
  5736  0538  0AE7               	incf	___fladd@grs,f
  5737  0539                     i1l2099:
  5738  0539  0867               	movf	___fladd@grs,w
  5739  053A  1D03               	btfss	3,2
  5740  053B  2D3D               	goto	u211_21
  5741  053C  2D3E               	goto	u211_20
  5742  053D                     u211_21:
  5743  053D  2D5B               	goto	i1l629
  5744  053E                     u211_20:
  5745  053E                     i1l2101:
  5746  053E  3001               	movlw	1
  5747  053F  07D4               	addwf	___fladd@b,f
  5748  0540  3000               	movlw	0
  5749  0541  1803               	skipnc
  5750  0542  3001               	movlw	1
  5751  0543  07D5               	addwf	___fladd@b+1,f
  5752  0544  3000               	movlw	0
  5753  0545  1803               	skipnc
  5754  0546  3001               	movlw	1
  5755  0547  07D6               	addwf	___fladd@b+2,f
  5756  0548  3000               	movlw	0
  5757  0549  1803               	skipnc
  5758  054A  3001               	movlw	1
  5759  054B  07D7               	addwf	___fladd@b+3,f
  5760  054C  2D5B               	goto	i1l629
  5761  054D                     i1l2103:
  5762  054D  0858               	movf	___fladd@a,w
  5763  054E  02D4               	subwf	___fladd@b,f
  5764  054F  0859               	movf	___fladd@a+1,w
  5765  0550  1C03               	skipc
  5766  0551  0F59               	incfsz	___fladd@a+1,w
  5767  0552  02D5               	subwf	___fladd@b+1,f
  5768  0553  085A               	movf	___fladd@a+2,w
  5769  0554  1C03               	skipc
  5770  0555  0F5A               	incfsz	___fladd@a+2,w
  5771  0556  02D6               	subwf	___fladd@b+2,f
  5772  0557  085B               	movf	___fladd@a+3,w
  5773  0558  1C03               	skipc
  5774  0559  0F5B               	incfsz	___fladd@a+3,w
  5775  055A  02D7               	subwf	___fladd@b+3,f
  5776  055B                     i1l629:
  5777  055B  0857               	movf	___fladd@b+3,w
  5778  055C  0456               	iorwf	___fladd@b+2,w
  5779  055D  0455               	iorwf	___fladd@b+1,w
  5780  055E  0454               	iorwf	___fladd@b,w
  5781  055F  1D03               	skipz
  5782  0560  2D62               	goto	u212_21
  5783  0561  2D63               	goto	u212_20
  5784  0562                     u212_21:
  5785  0562  2D8F               	goto	i1l2125
  5786  0563                     u212_20:
  5787  0563                     i1l2105:
  5788  0563  0867               	movf	___fladd@grs,w
  5789  0564  1D03               	btfss	3,2
  5790  0565  2D67               	goto	u213_21
  5791  0566  2D68               	goto	u213_20
  5792  0567                     u213_21:
  5793  0567  2D8F               	goto	i1l2125
  5794  0568                     u213_20:
  5795  0568                     i1l2107:
  5796  0568  3000               	movlw	0
  5797  0569  00D7               	movwf	?___fladd+3
  5798  056A  3000               	movlw	0
  5799  056B  00D6               	movwf	?___fladd+2
  5800  056C  3000               	movlw	0
  5801  056D  00D5               	movwf	?___fladd+1
  5802  056E  3000               	movlw	0
  5803  056F  00D4               	movwf	?___fladd
  5804  0570  2E0D               	goto	i1l621
  5805  0571                     i1l2111:
  5806  0571  3001               	movlw	1
  5807  0572  00DC               	movwf	??___fladd
  5808  0573                     u214_25:
  5809  0573  1003               	clrc
  5810  0574  0DD4               	rlf	___fladd@b,f
  5811  0575  0DD5               	rlf	___fladd@b+1,f
  5812  0576  0DD6               	rlf	___fladd@b+2,f
  5813  0577  0DD7               	rlf	___fladd@b+3,f
  5814  0578  0BDC               	decfsz	??___fladd,f
  5815  0579  2D73               	goto	u214_25
  5816  057A                     i1l2113:
  5817  057A  1FE7               	btfss	___fladd@grs,7
  5818  057B  2D7D               	goto	u215_21
  5819  057C  2D7E               	goto	u215_20
  5820  057D                     u215_21:
  5821  057D  2D7F               	goto	i1l633
  5822  057E                     u215_20:
  5823  057E                     i1l2115:
  5824  057E  1454               	bsf	___fladd@b,0
  5825  057F                     i1l633:
  5826  057F  1C67               	btfss	___fladd@grs,0
  5827  0580  2D82               	goto	u216_21
  5828  0581  2D83               	goto	u216_20
  5829  0582                     u216_21:
  5830  0582  2D86               	goto	i1l2119
  5831  0583                     u216_20:
  5832  0583                     i1l2117:
  5833  0583  1403               	setc
  5834  0584  0DE7               	rlf	___fladd@grs,f
  5835  0585  2D88               	goto	i1l2121
  5836  0586                     i1l2119:
  5837  0586  1003               	clrc
  5838  0587  0DE7               	rlf	___fladd@grs,f
  5839  0588                     i1l2121:
  5840  0588  0866               	movf	___fladd@bexp,w
  5841  0589  1903               	btfsc	3,2
  5842  058A  2D8C               	goto	u217_21
  5843  058B  2D8D               	goto	u217_20
  5844  058C                     u217_21:
  5845  058C  2D8F               	goto	i1l2125
  5846  058D                     u217_20:
  5847  058D                     i1l2123:
  5848  058D  3001               	movlw	1
  5849  058E  02E6               	subwf	___fladd@bexp,f
  5850  058F                     i1l2125:
  5851  058F  1FD6               	btfss	___fladd@b+2,7
  5852  0590  2D92               	goto	u218_21
  5853  0591  2D93               	goto	u218_20
  5854  0592                     u218_21:
  5855  0592  2D71               	goto	i1l2111
  5856  0593                     u218_20:
  5857  0593                     i1l2127:
  5858  0593  01E5               	clrf	___fladd@aexp
  5859  0594                     i1l2129:
  5860  0594  1FE7               	btfss	___fladd@grs,7
  5861  0595  2D97               	goto	u219_21
  5862  0596  2D98               	goto	u219_20
  5863  0597                     u219_21:
  5864  0597  2DA6               	goto	i1l2137
  5865  0598                     u219_20:
  5866  0598                     i1l2131:
  5867  0598  0867               	movf	___fladd@grs,w
  5868  0599  397F               	andlw	127
  5869  059A  1903               	btfsc	3,2
  5870  059B  2D9D               	goto	u220_21
  5871  059C  2D9E               	goto	u220_20
  5872  059D                     u220_21:
  5873  059D  2DA1               	goto	i1l639
  5874  059E                     u220_20:
  5875  059E                     i1l2133:
  5876  059E  01E5               	clrf	___fladd@aexp
  5877  059F  0AE5               	incf	___fladd@aexp,f
  5878  05A0  2DA6               	goto	i1l2137
  5879  05A1                     i1l639:
  5880  05A1  1C54               	btfss	___fladd@b,0
  5881  05A2  2DA4               	goto	u221_21
  5882  05A3  2DA5               	goto	u221_20
  5883  05A4                     u221_21:
  5884  05A4  2DA6               	goto	i1l2137
  5885  05A5                     u221_20:
  5886  05A5  2D9E               	goto	i1l2133
  5887  05A6                     i1l2137:
  5888  05A6  0865               	movf	___fladd@aexp,w
  5889  05A7  1903               	btfsc	3,2
  5890  05A8  2DAA               	goto	u222_21
  5891  05A9  2DAB               	goto	u222_20
  5892  05AA                     u222_21:
  5893  05AA  2DDF               	goto	i1l642
  5894  05AB                     u222_20:
  5895  05AB                     i1l2139:
  5896  05AB  3001               	movlw	1
  5897  05AC  07D4               	addwf	___fladd@b,f
  5898  05AD  3000               	movlw	0
  5899  05AE  1803               	skipnc
  5900  05AF  3001               	movlw	1
  5901  05B0  07D5               	addwf	___fladd@b+1,f
  5902  05B1  3000               	movlw	0
  5903  05B2  1803               	skipnc
  5904  05B3  3001               	movlw	1
  5905  05B4  07D6               	addwf	___fladd@b+2,f
  5906  05B5  3000               	movlw	0
  5907  05B6  1803               	skipnc
  5908  05B7  3001               	movlw	1
  5909  05B8  07D7               	addwf	___fladd@b+3,f
  5910  05B9                     i1l2141:
  5911  05B9  1C57               	btfss	___fladd@b+3,0
  5912  05BA  2DBC               	goto	u223_21
  5913  05BB  2DBD               	goto	u223_20
  5914  05BC                     u223_21:
  5915  05BC  2DDF               	goto	i1l642
  5916  05BD                     u223_20:
  5917  05BD                     i1l2143:
  5918  05BD  0854               	movf	___fladd@b,w
  5919  05BE  00DC               	movwf	??___fladd
  5920  05BF  0855               	movf	___fladd@b+1,w
  5921  05C0  00DD               	movwf	??___fladd+1
  5922  05C1  0856               	movf	___fladd@b+2,w
  5923  05C2  00DE               	movwf	??___fladd+2
  5924  05C3  0857               	movf	___fladd@b+3,w
  5925  05C4  00DF               	movwf	??___fladd+3
  5926  05C5  3001               	movlw	1
  5927  05C6  00E0               	movwf	??___fladd+4
  5928  05C7                     u224_25:
  5929  05C7  0D5F               	rlf	??___fladd+3,w
  5930  05C8  0CDF               	rrf	??___fladd+3,f
  5931  05C9  0CDE               	rrf	??___fladd+2,f
  5932  05CA  0CDD               	rrf	??___fladd+1,f
  5933  05CB  0CDC               	rrf	??___fladd,f
  5934  05CC                     u224_20:
  5935  05CC  0BE0               	decfsz	??___fladd+4,f
  5936  05CD  2DC7               	goto	u224_25
  5937  05CE  085F               	movf	??___fladd+3,w
  5938  05CF  00D7               	movwf	___fladd@b+3
  5939  05D0  085E               	movf	??___fladd+2,w
  5940  05D1  00D6               	movwf	___fladd@b+2
  5941  05D2  085D               	movf	??___fladd+1,w
  5942  05D3  00D5               	movwf	___fladd@b+1
  5943  05D4  085C               	movf	??___fladd,w
  5944  05D5  00D4               	movwf	___fladd@b
  5945  05D6  0A66               	incf	___fladd@bexp,w
  5946  05D7  1903               	btfsc	3,2
  5947  05D8  2DDA               	goto	u225_21
  5948  05D9  2DDB               	goto	u225_20
  5949  05DA                     u225_21:
  5950  05DA  2DDF               	goto	i1l642
  5951  05DB                     u225_20:
  5952  05DB                     i1l2145:
  5953  05DB  3001               	movlw	1
  5954  05DC  00DC               	movwf	??___fladd
  5955  05DD  085C               	movf	??___fladd,w
  5956  05DE  07E6               	addwf	___fladd@bexp,f
  5957  05DF                     i1l642:
  5958  05DF  0A66               	incf	___fladd@bexp,w
  5959  05E0  1903               	btfsc	3,2
  5960  05E1  2DE3               	goto	u226_21
  5961  05E2  2DE4               	goto	u226_20
  5962  05E3                     u226_21:
  5963  05E3  2DE9               	goto	i1l2149
  5964  05E4                     u226_20:
  5965  05E4                     i1l2147:
  5966  05E4  0866               	movf	___fladd@bexp,w
  5967  05E5  1D03               	btfss	3,2
  5968  05E6  2DE8               	goto	u227_21
  5969  05E7  2DE9               	goto	u227_20
  5970  05E8                     u227_21:
  5971  05E8  2DF7               	goto	i1l2155
  5972  05E9                     u227_20:
  5973  05E9                     i1l2149:
  5974  05E9  3000               	movlw	0
  5975  05EA  00D7               	movwf	___fladd@b+3
  5976  05EB  3000               	movlw	0
  5977  05EC  00D6               	movwf	___fladd@b+2
  5978  05ED  3000               	movlw	0
  5979  05EE  00D5               	movwf	___fladd@b+1
  5980  05EF  3000               	movlw	0
  5981  05F0  00D4               	movwf	___fladd@b
  5982  05F1                     i1l2151:
  5983  05F1  0866               	movf	___fladd@bexp,w
  5984  05F2  1D03               	btfss	3,2
  5985  05F3  2DF5               	goto	u228_21
  5986  05F4  2DF6               	goto	u228_20
  5987  05F5                     u228_21:
  5988  05F5  2DF7               	goto	i1l2155
  5989  05F6                     u228_20:
  5990  05F6                     i1l2153:
  5991  05F6  01E4               	clrf	___fladd@signs
  5992  05F7                     i1l2155:
  5993  05F7  1C66               	btfss	___fladd@bexp,0
  5994  05F8  2DFA               	goto	u229_21
  5995  05F9  2DFB               	goto	u229_20
  5996  05FA                     u229_21:
  5997  05FA  2DFD               	goto	i1l2159
  5998  05FB                     u229_20:
  5999  05FB                     i1l2157:
  6000  05FB  17D6               	bsf	___fladd@b+2,7
  6001  05FC  2E01               	goto	i1l650
  6002  05FD                     i1l2159:
  6003  05FD  307F               	movlw	127
  6004  05FE  00DC               	movwf	??___fladd
  6005  05FF  085C               	movf	??___fladd,w
  6006  0600  05D6               	andwf	___fladd@b+2,f
  6007  0601                     i1l650:
  6008  0601  0866               	movf	___fladd@bexp,w
  6009  0602  00DC               	movwf	??___fladd
  6010  0603  1003               	clrc
  6011  0604  0C5C               	rrf	??___fladd,w
  6012  0605  00DD               	movwf	??___fladd+1
  6013  0606  085D               	movf	??___fladd+1,w
  6014  0607  00D7               	movwf	___fladd@b+3
  6015  0608                     i1l2161:
  6016  0608  1FE4               	btfss	___fladd@signs,7
  6017  0609  2E0B               	goto	u230_21
  6018  060A  2E0C               	goto	u230_20
  6019  060B                     u230_21:
  6020  060B  2E0D               	goto	i1l651
  6021  060C                     u230_20:
  6022  060C                     i1l2163:
  6023  060C  17D7               	bsf	___fladd@b+3,7
  6024  060D                     i1l651:
  6025  060D                     i1l621:
  6026  060D  0008               	return
  6027  060E                     __end_of___fladd:
  6028  007E                     btemp	set	126	;btemp
  6029  007E                     wtemp0	set	126
  6030                           
  6031                           	psect	idloc
  6032                           
  6033                           ;Config register IDLOC0 @ 0x2000
  6034                           ;	unspecified, using default values
  6035  2000                     	org	8192
  6036  2000  3FFF               	dw	16383
  6037                           
  6038                           ;Config register IDLOC1 @ 0x2001
  6039                           ;	unspecified, using default values
  6040  2001                     	org	8193
  6041  2001  3FFF               	dw	16383
  6042                           
  6043                           ;Config register IDLOC2 @ 0x2002
  6044                           ;	unspecified, using default values
  6045  2002                     	org	8194
  6046  2002  3FFF               	dw	16383
  6047                           
  6048                           ;Config register IDLOC3 @ 0x2003
  6049                           ;	unspecified, using default values
  6050  2003                     	org	8195
  6051  2003  3FFF               	dw	16383
  6052                           
  6053                           	psect	config
  6054                           
  6055                           ;Config register CONFIG1 @ 0x2007
  6056                           ;	Oscillator Selection bits
  6057                           ;	FOSC = INTRC_NOCLKOUT, INTOSCIO oscillator: I/O function on RA6/OSC2/CLKOUT pin, I/O f
      +                          unction on RA7/OSC1/CLKIN
  6058                           ;	Watchdog Timer Enable bit
  6059                           ;	WDTE = OFF, WDT disabled and can be enabled by SWDTEN bit of the WDTCON register
  6060                           ;	Power-up Timer Enable bit
  6061                           ;	PWRTE = OFF, PWRT disabled
  6062                           ;	RE3/MCLR pin function select bit
  6063                           ;	MCLRE = OFF, RE3/MCLR pin function is digital input, MCLR internally tied to VDD
  6064                           ;	Code Protection bit
  6065                           ;	CP = OFF, Program memory code protection is disabled
  6066                           ;	Data Code Protection bit
  6067                           ;	CPD = OFF, Data memory code protection is disabled
  6068                           ;	Brown Out Reset Selection bits
  6069                           ;	BOREN = OFF, BOR disabled
  6070                           ;	Internal External Switchover bit
  6071                           ;	IESO = OFF, Internal/External Switchover mode is disabled
  6072                           ;	Fail-Safe Clock Monitor Enabled bit
  6073                           ;	FCMEN = OFF, Fail-Safe Clock Monitor is disabled
  6074                           ;	Low Voltage Programming Enable bit
  6075                           ;	LVP = OFF, RB3 pin has digital I/O, HV on MCLR must be used for programming
  6076                           ;	In-Circuit Debugger Mode bit
  6077                           ;	DEBUG = 0x1, unprogrammed default
  6078  2007                     	org	8199
  6079  2007  20D4               	dw	8404
  6080                           
  6081                           ;Config register CONFIG2 @ 0x2008
  6082                           ;	Brown-out Reset Selection bit
  6083                           ;	BOR4V = BOR40V, Brown-out Reset set to 4.0V
  6084                           ;	Flash Program Memory Self Write Enable bits
  6085                           ;	WRT = OFF, Write protection off
  6086  2008                     	org	8200
  6087  2008  3FFF               	dw	16383

Data Sizes:
    Strings     0
    Constant    0
    Data        0
    BSS         21
    Persistent  0
    Stack       0

Auto Spaces:
    Space          Size  Autos    Used
    COMMON           14     14      14
    BANK0            80     79      80
    BANK1            80     26      46
    BANK3            96      0       0
    BANK2            96      0       0

Pointer List with Targets:

    None.

Critical Paths under _main in COMMON

    None.

Critical Paths under _isr in COMMON

    _map->___xxtofl
    ___fltol->___xxtofl
    ___flmul->___xxtofl
    ___fldiv->___xxtofl
    ___fladd->___xxtofl

Critical Paths under _main in BANK0

    None.

Critical Paths under _isr in BANK0

    _isr->_map
    _map->___fltol
    ___fltol->___fladd
    ___flmul->___fldiv
    ___fladd->___flmul

Critical Paths under _main in BANK1

    _main->_write_EEPROM

Critical Paths under _isr in BANK1

    _isr->_map
    _map->___fltol

Critical Paths under _main in BANK3

    None.

Critical Paths under _isr in BANK3

    None.

Critical Paths under _main in BANK2

    None.

Critical Paths under _isr in BANK2

    None.

Call Graph Tables:

 ---------------------------------------------------------------------------------
 (Depth) Function   	        Calls       Base Space   Used Autos Params    Refs
 ---------------------------------------------------------------------------------
 (0) _main                                                 6     6      0     278
                                             20 BANK1      6     6      0
                        _read_EEPROM
                              _setup
                       _write_EEPROM
 ---------------------------------------------------------------------------------
 (1) _write_EEPROM                                         2     1      1     120
                                             18 BANK1      2     1      1
 ---------------------------------------------------------------------------------
 (1) _setup                                                1     1      0       0
                                             18 BANK1      1     1      0
 ---------------------------------------------------------------------------------
 (1) _read_EEPROM                                          1     1      0      22
                                             18 BANK1      1     1      0
 ---------------------------------------------------------------------------------
 Estimated maximum stack depth 1
 ---------------------------------------------------------------------------------
 (Depth) Function   	        Calls       Base Space   Used Autos Params    Refs
 ---------------------------------------------------------------------------------
 (2) _isr                                                  7     7      0    7645
                                             11 BANK1      7     7      0
                                _map
 ---------------------------------------------------------------------------------
 (3) _map                                                  7     1      6    7645
                                             78 BANK0      1     1      0
                                              5 BANK1      6     0      6
                            ___fladd
                            ___fldiv
                            ___flmul
                            ___fltol
                           ___xxtofl
 ---------------------------------------------------------------------------------
 (4) ___xxtofl                                            14    10      4     626
                                              0 COMMON    14    10      4
 ---------------------------------------------------------------------------------
 (4) ___fltol                                             11     7      4     305
                                             72 BANK0      6     2      4
                                              0 BANK1      5     5      0
                            ___fladd (ARG)
                            ___fldiv (ARG)
                            ___flmul (ARG)
                           ___xxtofl (ARG)
 ---------------------------------------------------------------------------------
 (4) ___flmul                                             26    18      8    2417
                                             26 BANK0     26    18      8
                          __Umul8_16
                            ___fldiv (ARG)
                           ___xxtofl (ARG)
 ---------------------------------------------------------------------------------
 (5) __Umul8_16                                            9     7      2     799
                                              0 COMMON     9     7      2
 ---------------------------------------------------------------------------------
 (4) ___fldiv                                             26    18      8    1273
                                              0 BANK0     26    18      8
                           ___xxtofl (ARG)
 ---------------------------------------------------------------------------------
 (4) ___fladd                                             20    12      8    2262
                                             52 BANK0     20    12      8
                            ___fldiv (ARG)
                            ___flmul (ARG)
                           ___xxtofl (ARG)
 ---------------------------------------------------------------------------------
 Estimated maximum stack depth 5
 ---------------------------------------------------------------------------------

 Call Graph Graphs:

 _main (ROOT)
   _read_EEPROM
   _setup
   _write_EEPROM

 _isr (ROOT)
   _map
     ___fladd
       ___fldiv (ARG)
         ___xxtofl (ARG)
       ___flmul (ARG)
         __Umul8_16
         ___fldiv (ARG)
         ___xxtofl (ARG)
       ___xxtofl (ARG)
     ___fldiv
     ___flmul
     ___fltol
       ___fladd (ARG)
       ___fldiv (ARG)
       ___flmul (ARG)
       ___xxtofl (ARG)
     ___xxtofl

 Address spaces:
Name               Size   Autos  Total    Cost      Usage
BITCOMMON            E      0       0       0        0.0%
EEDATA             100      0       0       0        0.0%
NULL                 0      0       0       0        0.0%
CODE                 0      0       0       0        0.0%
COMMON               E      E       E       1      100.0%
BITSFR0              0      0       0       1        0.0%
SFR0                 0      0       0       1        0.0%
BITSFR1              0      0       0       2        0.0%
SFR1                 0      0       0       2        0.0%
STACK                0      0       0       2        0.0%
ABS                  0      0      8C       3        0.0%
BITBANK0            50      0       0       4        0.0%
BITSFR3              0      0       0       4        0.0%
SFR3                 0      0       0       4        0.0%
BANK0               50     4F      50       5      100.0%
BITSFR2              0      0       0       5        0.0%
SFR2                 0      0       0       5        0.0%
BITBANK1            50      0       0       6        0.0%
BANK1               50     1A      2E       7       57.5%
BITBANK3            60      0       0       8        0.0%
BANK3               60      0       0       9        0.0%
BITBANK2            60      0       0      10        0.0%
BANK2               60      0       0      11        0.0%
DATA                 0      0      8C      12        0.0%


Microchip Technology PIC Macro Assembler V2.35 build 20211206165544 
Symbol Table                                                                                   Mon May 30 16:08:06 2022

           ___fldiv@aexp 0039             ___fldiv@bexp 0038             ___fldiv@sign 0031  
            _SSPSTATbits 0094                       fsr 0004      __Umul8_16@word_mpld 0076  
                    l201 0F68                      l220 0AF7                      l217 0ABB  
                    l226 07F9                      l219 0ABF                      l229 098F  
                    l181 0E4F                      l174 0E29                      l192 0F34  
                    l169 0DC4                      l178 0E39                      l187 0FFC  
                    l195 0F4A                      _PR2 0092                      _map 0AF8  
                    _isr 0C64                      fsr0 0004                      indf 0000  
           ___flmul@aexp 004C             ___flmul@bexp 004D             ___flmul@sign 0047  
           ___flmul@temp 0052             ___flmul@prod 004E             ___fltol@exp1 006D  
                   l2501 0A6B                     l2511 0A7E                     l2503 0A6F  
                   l2521 0A8F                     l2513 0A84                     l2505 0A72  
                   l2601 0978                     l2531 0A9F                     l2523 0A92  
                   l2515 0A87                     l2507 0A79                     l2611 098C  
                   l2603 0982                     l2621 07F5                     l2541 0AAF  
                   l2533 0AA2                     l2525 0A99                     l2517 0A88  
                   l2509 0A7D                     l2613 098D                     l2605 0985  
                   l2551 0AB8                     l2543 0AB3                     l2535 0AA4  
                   l2527 0A9C                     l2519 0A8C                     l2615 098E  
                   l2607 0986                     l2711 0DDB                     l2703 0DB8  
                   l2617 07EE                     l2561 0ACD                     l2553 0ABA  
                   l2545 0AB5                     l2537 0AA8                     l2529 0A9D  
                   l2609 098B                     l2801 0F7D                     l2721 0E07  
                   l2713 0DE0                     l2705 0DBD                     l2619 07F2  
                   l2571 0AD9                     l2563 0ACE                     l2555 0AC7  
                   l2547 0AB6                     l2539 0AAA                     l2803 0F81  
                   l2723 0E0D                     l2715 0DED                     l2731 0E29  
                   l2707 0DCA                     l2581 0AE5                     l2573 0ADA  
                   l2565 0AD1                     l2557 0ACA                     l2549 0AB7  
                   l2813 0FD7                     l2741 0E5F                     l2733 0E30  
                   l2725 0E14                     l2717 0DF3                     l2709 0DD5  
                   l2591 0AEE                     l2583 0AE6                     l2575 0ADD  
                   l2567 0AD2                     l2559 0ACC                     l2495 0A53  
                   l2807 0F87                     l2751 0E78                     l2743 0E66  
                   l2727 0E21                     l2719 0DFA                     l2735 0E33  
                   l2815 0FE7                     l2593 0AF1                     l2585 0AE9  
                   l2577 0AE1                     l2569 0AD6                     l2497 0A57  
                   l2809 0FA5                     l2761 0EA0                     l2753 0E83  
                   l2737 0E3F                     l2729 0E25                     l2595 0AF2  
                   l2587 0AEC                     l2579 0AE2                     l2499 0A58  
                   l2771 0EB8                     l2763 0EA5                     l2755 0E89  
                   l2739 0E55                     l2597 0AF5                     l2589 0AED  
                   l2925 0FDF                     l2781 0F2E                     l2773 0EC3  
                   l2757 0E8F                     l2749 0E68                     ?_map 00A5  
                   l2599 0AF6                     l2927 0FF1                     l2791 0F63  
                   l2783 0F3A                     l2775 0EC9                     l2759 0E9C  
                   l2793 0F6A                     l2785 0F50                     l2777 0ECF  
                   l2769 0EA7                     l2795 0F6F                     l2787 0F5A  
                   l2779 0EDC                     l2797 0F75                     l2789 0F5E  
                   l2799 0F7B                     ?_isr 0070                     _CCPR 00C0  
                   _IOCB 0096                     u3110 0ABF                     u3111 0ABE  
                   u3210 0DCA                     u3211 0DC9                     u3300 0EA5  
                   u3220 0DD5                     u3301 0EA4                     u3221 0DD4  
                   u3310 0EDC                     u3230 0DED                     u3311 0EDB  
                   u3231 0DEC                     u3400 0F86                     u3240 0E07  
                   u3401 0F85                     u3241 0E06                     u3250 0E21  
                   u3315 0ED8                     u3251 0E20                     u3340 0F3A  
                   u3260 0E3F                     u3341 0F39                     u3325 0EE1  
                   u3261 0E3E                     u3350 0F50                     u3270 0E55  
                   u3415 0F8A                     u3351 0F4F                     u3335 0F00  
                   u3271 0E54                     u3360 0F63                     u3280 0E66  
                   u3425 0FA8                     u3361 0F62                     u3281 0E65  
                   u3370 0F68                     u3290 0E9C                     u3507 0A96  
                   u3371 0F67                     u3291 0E9B                     u3380 0F75  
                   u3381 0F74                     u3437 0E2D                     u3390 0F7B  
                   u3391 0F7A                     u3295 0E98                     u3447 0E45  
                   u3457 0E5B                     u3467 0E7E                     u3477 0EBE  
                   u3487 0F40                     u3497 0F56                     _MODO 00C7  
                   _POTc 00C3                     _WPUB 0095                     _flag 00C2  
                   _main 0DB8                     map@x 006E                     btemp 007E  
                   start 0012          ___fldiv@new_exp 0032             ?_read_EEPROM 0070  
                  ??_map 007E                    ??_isr 00AB            ___fltol@sign1 006C  
        __end_of___fladd 060E                    ?_main 0070          __end_of___fldiv 07EB  
                  _EEADR 010D                    _EEDAT 010C          __end_of___flmul 0386  
        __end_of___fltol 0A53                    _ANSEL 0188                    i1l150 0D5F  
                  i1l223 0BA9                    i1l135 0C6B                    i1l152 0D63  
                  i1l144 0DA0                    i1l136 0D44                    i1l145 0D5A  
                  i1l137 0D41                    i1l162 0DAB                    i1l147 0D9F  
                  i1l148 0D7B                    i1l501 0A52                    i1l157 0D80  
                  i1l511 0A52                    i1l159 0D87                    i1l612 0490  
                  i1l508 0A3D                    i1l621 060D                    i1l614 0467  
                  i1l710 02F1                    i1l608 03E9                    i1l704 0385  
                  i1l633 057F                    i1l650 0601                    i1l642 05DF  
                  i1l651 060D                    i1l723 09A4                    i1l716 0379  
                  i1l629 055B                    i1l725 09B6                    i1l750 0C63  
                  i1l639 05A1                    i1l680 075C                    i1l664 066A  
                  i1l761 0C2D                    i1l666 07EA                    i1l762 0C39  
                  i1l754 0C11                    i1l748 0BCC                    i1l686 07CE  
                  i1l688 07DE                    _RCREG 001A                    _SPBRG 0099  
                  _PORTA 0005                    _PORTB 0006                    _PORTC 0007  
                  _PORTD 0008                    _PORTE 0009                    _TRISA 0085  
                  _TRISB 0086                    _TRISD 0088                    _TRISE 0089  
                  _canal 00C9                    _array 00BA                    map@x0 00A5  
                  map@x1 00A6                    map@y0 00A7                    map@y1 00A9  
                  _setup 0A53                    main@i 00B6                    main@j 00B8  
                  pclath 000A                    status 0003                    wtemp0 007E  
        __initialization 0015             __end_of_main 1000                   ??_main 00B4  
           _write_EEPROM 0975                   _ADRESH 001E                   _CCPR1L 0015  
                 _CCPR2L 001B                   _EECON2 018D                   _CCPR_2 00BE  
                 ?_setup 0070                   _ANSELH 0189                   i1l2001 03CB  
                 i1l2011 03DF                   i1l2003 03CC                   i1l2101 053E  
                 i1l2021 03FB                   i1l2005 03D1                   i1l2013 03E1  
                 i1l2111 0571                   i1l2103 054D                   i1l2031 040F  
                 i1l2023 03FF                   i1l2015 03EF                   i1l2007 03D6  
                 i1l2121 0588                   i1l2113 057A                   i1l2105 0563  
                 i1l2041 0423                   i1l2033 0413                   i1l2025 0403  
                 i1l2017 03F3                   i1l2009 03DE                   i1l2201 0660  
                 i1l2131 0598                   i1l2123 058D                   i1l2115 057E  
                 i1l2107 0568                   i1l2051 0434                   i1l2043 0427  
                 i1l2035 0417                   i1l2027 0407                   i1l2019 03F7  
                 i1l2203 0662                   i1l2141 05B9                   i1l2133 059E  
                 i1l2117 0583                   i1l2125 058F                   i1l2061 047A  
                 i1l2053 044B                   i1l2045 042B                   i1l2037 041B  
                 i1l2029 040B                   i1l2301 07DA                   i1l2221 06AB  
                 i1l2205 0672                   i1l2213 068B                   i1l2151 05F1  
                 i1l2143 05BD                   i1l2119 0586                   i1l2127 0593  
                 i1l2071 0499                   i1l2063 047B                   i1l2055 046B  
                 i1l2047 042F                   i1l2039 041F                   i1l2231 06CA  
                 i1l2223 06B3                   i1l2215 0690                   i1l2207 067E  
                 i1l2311 0032                   u200_20 0490                   i1l2161 0608  
                 i1l2153 05F6                   i1l2145 05DB                   i1l2137 05A6  
                 i1l2129 0594                   i1l2081 04C1                   u200_21 048F  
                 i1l2065 0484                   i1l2057 0474                   i1l2049 0433  
                 i1l2241 06FC                   i1l2233 06DC                   i1l2225 06BB  
                 i1l2209 0682                   i1l2401 02CB                   i1l2321 0049  
                 i1l2313 0036                   i1l2163 060C                   i1l2155 05F7  
                 i1l2147 05E4                   i1l2139 05AB                   i1l2091 04DA  
                 i1l2083 04CA                   i1l2075 04A2                   i1l2059 0476  
                 i1l2067 0488                   i1l2251 071D                   i1l2243 06FD  
                 i1l2235 06E0                   i1l2227 06C3                   i1l2219 0699  
                 i1l2171 061F                   i1l2411 02EE                   i1l2403 02D1  
                 i1l2331 0062                   i1l2323 004B                   i1l2315 0037  
                 i1l2307 0025                   i1l2157 05FB                   i1l2149 05E9  
                 i1l2085 04CC                   i1l2077 04B9                   i1l2069 0494  
                 i1l2093 04DF                   i1l2261 0736                   i1l2253 071F  
                 i1l2245 070B                   i1l2237 06E1                   i1l2229 06C5  
                 i1l2181 0633                   i1l2173 0620                   i1l2165 060E  
                 i1l2421 030D                   i1l2405 02D5                   i1l2341 0077  
                 i1l2333 0063                   i1l2325 0053                   i1l2317 003C  
                 i1l2309 002C                   i1l2159 05FD                   i1l2095 04F5  
                 i1l2087 04D0                   i1l2079 04BD                   i1l2271 0759  
                 i1l2255 0728                   i1l2263 073C                   i1l2239 06EA  
                 i1l2247 070F                   i1l2191 064C                   i1l2175 0625  
                 i1l2183 0635                   i1l2167 0615                   i1l2431 0353  
                 i1l2423 0326                   i1l2415 02F6                   i1l2407 02D6  
                 i1l2351 0092                   i1l2343 007F                   i1l2335 0068  
                 i1l2327 0058                   i1l2319 0041                   u201_20 0494  
                 i1l2097 0533                   i1l2089 04D1                   u201_21 0493  
                 i1l2281 0778                   i1l2265 0740                   i1l2257 072C  
                 i1l2249 0715                   i1l2193 064D                   i1l2185 063D  
                 i1l2177 062A                   i1l2169 061B                   i1l2441 0372  
                 i1l2433 035D                   i1l2417 02FB                   i1l2425 032C  
                 i1l2409 02DA                   i1l2361 0114                   i1l2353 00A2  
                 i1l2345 0084                   i1l2337 006D                   i1l2329 005E  
                 i1l2099 0539                   i1l2291 07C1                   i1l2283 0791  
                 i1l2275 0761                   i1l2267 0741                   i1l2259 072D  
                 i1l2195 0652                   i1l2187 0642                   i1l2179 0632  
                 i1l2443 037D                   i1l2435 035F                   i1l2427 0339  
                 i1l2419 0309                   i1l2371 0182                   i1l2363 0130  
                 i1l2355 00AF                   i1l2347 0089                   i1l2339 0075  
                 i1l2451 0BB4                   i1l2293 07C5                   i1l2277 0766  
                 i1l2285 0797                   i1l2269 0745                   i1l2197 0657  
                 i1l2189 0648                   i1l2437 036D                   i1l2429 0344  
                 i1l2381 0212                   i1l2373 0192                   i1l2365 014C  
                 i1l2357 00CC                   i1l2461 0BE2                   i1l2453 0BC4  
                 i1l2295 07CD                   i1l2287 07A4                   i1l2279 0774  
                 i1l2199 065F                   i1l2439 0371                   i1l2391 02A6  
                 i1l2383 0222                   i1l2375 01AF                   i1l2367 0155  
                 i1l2359 00E8                   i1l2471 0C18                   i1l2463 0BEF  
                 i1l2455 0BD4                   i1l2447 0BAB                   u210_20 0520  
                 u202_20 0499                   u210_21 0521                   u202_21 0498  
                 i1l2297 07D4                   i1l2289 07B2                   i1l1921 0991  
                 i1l2393 02B4                   i1l2385 024F                   i1l2377 01C8  
                 i1l2369 0165                   i1l2481 0C51                   i1l2473 0C23  
                 i1l2465 0BF6                   i1l2449 0BB0                   i1l2641 0CB8  
                 i1l2633 0C77                   i1l2625 0C64                   u210_22 0526  
                 u210_23 0527                   i1l2299 07D8                   i1l1931 09B2  
                 i1l1923 0993                   i1l2395 02BD                   i1l2387 0275  
                 i1l2379 01E5                   i1l2483 0C56                   i1l2475 0C27  
                 i1l2467 0BFA                   i1l2459 0BDD                   i1l2491 0AFB  
                 i1l2651 0D11                   i1l2643 0CD3                   i1l2635 0C92  
                 i1l2627 0C6A                   i1l1925 099A                   i1l2397 02C1  
                 i1l2389 029D                   i1l1941 09D1                   i1l2485 0C5A  
                 i1l2477 0C31                   i1l2469 0C08                   i1l2661 0D4C  
                 i1l2653 0D1E                   i1l2645 0CE1                   i1l2637 0CA0  
                 i1l2629 0C6F                   i1l1927 099E                   i1l2399 02C2  
                 i1l1951 0A05                   i1l1943 09F6                   i1l1935 09B7  
                 i1l2487 0C5B                   i1l2479 0C3B                   i1l2663 0D52  
                 i1l2647 0CF2                   i1l2639 0CB1                   u211_20 053E  
                 u211_21 053D                   u203_21 04AB                   i1l1929 09AD  
                 i1l1945 09F7                   i1l1937 09C8                   i1l2665 0D58  
                 i1l2649 0D0A                   i1l2657 0D2B                   u203_22 04B2  
                 u203_23 04B9                   i1l1971 0386                   i1l1947 09FF  
                 i1l2931 0D70                   i1l2675 0D66                   i1l2659 0D48  
                 i1l1981 039D                   i1l1973 038D                   i1l1965 0A2A  
                 i1l1957 0A0D                   i1l1949 0A01                   i1l2933 0D94  
                 i1l2685 0D8A                   i1l2669 0D61                   i1l1991 03B5  
                 i1l1983 03A2                   i1l1975 0393                   i1l1967 0A42  
                 i1l1959 0A23                   i1l2687 0DA5                   i1l2679 0D82  
                 u220_20 059E                   u212_20 0563                   u204_20 04BD  
                 u220_21 059D                   u212_21 0562                   u204_21 04BC  
                 i1l1993 03BA                   i1l1985 03AA                   i1l1977 0397  
                 i1l1969 0A47                   i1l2929 0D33                   i1l1995 03C0  
                 i1l1987 03AB                   i1l1979 0398                   i1l1997 03C1  
                 i1l1989 03AD                   u300_25 0BE7                   i1l1999 03C7  
                 u221_20 05A5                   u213_20 0568                   u205_20 04C1  
                 u301_20 0BF5                   u221_21 05A4                   u213_21 0567  
                 u205_21 04C0                   u301_21 0BF4                   u230_20 060C  
                 u222_20 05AB                   u206_20 04D0                   u310_20 0C5A  
                 u230_21 060B                   u222_21 05AA                   u206_21 04CF  
                 u310_21 0C59                   u214_25 0573                   u302_25 0C09  
                 u223_20 05BD                   u215_20 057E                   u231_20 061F  
                 u303_20 0C17                   u223_21 05BC                   u215_21 057D  
                 u231_21 061E                   u303_21 0C16                   u207_25 04D3  
                 u224_20 05CC                   u216_20 0583                   u208_20 04F5  
                 u232_20 0625                   u320_20 0DA5                   u312_20 0C6A  
                 u216_21 0582                   u208_21 04F4                   u232_21 0624  
                 u320_21 0DA4                   u312_21 0C69                   u208_23 04F1  
                 u224_25 05C7                   u240_25 06CC                   u304_25 0C1C  
                 u225_20 05DB                   u217_20 058D                   u233_20 062A  
                 u305_20 0C27                   u313_20 0C6F                   u225_21 05DA  
                 u217_21 058C                   u209_21 050C                   u233_21 0629  
                 u305_21 0C26                   u313_21 0C6E                   u209_22 050D  
                 u209_23 0512                   u209_24 0513                   u209_25 0518  
                 u241_25 06D5                   u209_26 0519                   u226_20 05E4  
                 u218_20 0593                   u250_20 0740                   u242_20 06E0  
                 u234_20 064C                   u306_20 0C2D                   u314_20 0C76  
                 u226_21 05E3                   u218_21 0592                   u250_21 073F  
                 u242_21 06DF                   u234_21 064B                   u306_21 0C2C  
                 u314_21 0C75                   u227_20 05E9                   u219_20 0598  
                 u251_20 0745                   u235_20 0652                   u307_20 0C31  
                 u315_20 0D48                   u227_21 05E8                   u219_21 0597  
                 u251_21 0744                   u235_21 0651                   u307_21 0C30  
                 u315_21 0D47                   u243_25 06E3                   u228_20 05F6  
                 u252_20 0759                   u244_20 06FC                   u236_20 0657  
                 u172_20 099E                   u260_20 0036                   u180_20 0A22  
                 u308_20 0C46                   u316_20 0D4C                   u228_21 05F5  
                 u252_21 0758                   u244_21 06FB                   u236_21 0656  
                 u172_21 099D                   u260_21 0035                   u180_21 0A21  
                 u316_21 0D4B                   u244_25 06F8                   u308_25 0C41  
                 u229_20 05FB                   u253_20 0760                   u245_20 0715  
                 u237_20 0672                   u261_20 003C                   u181_20 0A29  
                 u309_20 0C56                   u317_20 0D58                   u229_21 05FA  
                 u253_21 075F                   u245_21 0714                   u237_21 0671  
                 u261_21 003B                   u181_21 0A28                   u309_21 0C55  
                 u317_21 0D57                   u173_25 09A5                   u190_20 03D1  
                 u254_20 0766                   u246_20 071D                   u238_20 0690  
                 u174_20 09B2                   u262_20 0041                   u318_20 0D5E  
                 u190_21 03D0                   u254_21 0765                   u246_21 071C  
                 u238_21 068F                   u174_21 09B1                   u270_21 0122  
                 u262_21 0040                   u318_21 0D5D                   u270_22 0129  
                 u270_23 0130                   u182_25 0A2E                   u191_20 03D6  
                 u255_20 0778                   u239_20 06CA                   u263_20 0062  
                 u183_20 0A42                   u175_20 09C8                   u319_20 0D7F  
                 u191_21 03D5                   u255_21 0777                   u239_21 06C9  
                 u271_21 013E                   u263_21 0061                   u183_21 0A41  
                 u175_21 09C7                   u319_21 0D7E                   u271_22 0145  
                 u271_23 014C                   u247_25 0721                   u192_20 03EF  
                 u256_20 0787                   u248_20 072C                   u264_20 0068  
                 u184_20 0A47                   u176_20 09ED                   u192_21 03EE  
                 u248_21 072B                   u280_21 0267                   u264_21 0067  
                 u184_21 0A46                   u280_22 026E                   u280_23 0275  
                 u256_25 0782                   u272_25 014E                   u176_25 09E8  
                 u193_20 03F3                   u185_20 0397                   u257_20 07A4  
                 u281_20 0283                   u265_20 006D                   u177_20 0A05  
                 u193_21 03F2                   u185_21 0396                   u257_21 07A3  
                 u273_21 0174                   u265_21 006C                   u177_21 0A04  
                 u273_22 017B                   u273_23 0182                   u257_25 07A0  
                 u249_25 072F                   u281_25 027E                   u194_20 044B  
                 u186_20 039D                   u258_20 07C1                   u290_20 02F5  
                 u266_20 0084                   u178_20 0A0C                   u194_21 044A  
                 u186_21 039C                   u258_21 07C0                   u290_21 02F4  
                 u282_21 028F                   u274_21 01A1                   u266_21 0083  
                 u178_21 0A0B                   u282_22 0296                   u274_22 01A8  
                 u282_23 029D                   u274_23 01AF                   u194_25 0447  
                 u258_25 07BD                   u195_20 0456                   u187_20 03A2  
                 u259_20 07D8                   u291_20 02FB                   u267_20 0089  
                 u195_21 0454                   u187_21 03A1                   u259_21 07D7  
                 u291_21 02FA                   u267_21 0088                   u283_25 029F  
                 u275_25 01B1                   u179_25 0A0E                   u196_20 0457  
                 u188_20 03C0                   u292_20 030D                   u188_21 03BF  
                 u292_21 030C                   u276_21 01D7                   u268_21 00DA  
                 u276_22 01DE                   u268_22 00E1                   u276_23 01E5  
                 u268_23 00E8                   u284_25 02B6                   u197_20 046B  
                 u189_20 03CB                   u293_20 031C                   u285_20 02C1  
                 u197_21 046A                   u189_21 03CA                   u285_21 02C0  
                 u277_21 0204                   u269_21 00F6                   u277_22 020B  
                 u269_22 00FD                   u277_23 0212                   u269_23 0104  
                 u293_25 0317                   u198_20 047A                   u294_20 0339  
                 u198_21 0479                   u294_21 0338                   u278_21 0231  
                 u278_22 0238                   u278_23 023F                   u294_25 0335  
                 u286_25 02C4                   u295_20 0353                   u287_20 02D5  
                 u279_20 025B                   u295_21 0352                   u287_21 02D4  
                 u199_25 047D                   u295_25 034F                   u279_25 0256  
                 u296_20 0371                   u288_20 02DA                   u296_21 0370  
                 u288_21 02D9                   u289_20 02EE                   u297_20 0BB0  
                 u289_21 02ED                   u297_21 0BAF                   u298_20 0BB4  
                 u298_21 0BB3                   u299_20 0BD4                   u299_21 0BD3  
                 _SERIAL 00CB                   _SPBRGH 009A                   _SSPBUF 0013  
       __end_of___xxtofl 0C64                ??___fladd 005C                ??___fldiv 0028  
              ??___flmul 0042                ??___fltol 00A0                   saved_w 007E  
           ___xxtofl@arg 007A             ___xxtofl@exp 0079             ___xxtofl@val 0070  
__end_of__initialization 0021               ___fltol@f1 0068           __pcstackCOMMON 0070  
          __end_of_setup 0AF8       read_EEPROM@address 00B2           _OPTION_REGbits 0081  
       write_EEPROM@data 00B2                  ??_setup 00B2               __pbssBANK0 006F  
             __pbssBANK1 00BA        __end_of__Umul8_16 09B7               __pmaintext 0DB8  
             __pintentry 0004                  _CCP1CON 0017                  _CCP2CON 001D  
              ?___xxtofl 0070                  ___fladd 0386                  ___fldiv 060E  
                ___flmul 0025                  ___fltol 09B7                  _address 00C8  
                __ptext1 0975                  __ptext2 0A53                  __ptext3 07EB  
                __ptext4 0C64                  __ptext5 0AF8                  __ptext6 0BAA  
                __ptext7 09B7                  __ptext8 0025                  __ptext9 0990  
              _T2CONbits 0012                  _read_fg 00C5               ??___xxtofl 0074  
                clrloop0 096E     end_of_initialization 0021      write_EEPROM@address 00B3  
              _RCSTAbits 0018                _PORTBbits 0006              ___fladd@grs 0067  
          ___xxtofl@sign 0078                _TRISCbits 0087              ___fldiv@grs 0034  
            ___fldiv@rem 002D                _POT_compu 00CA              ___flmul@grs 0048  
            _CCP1CONbits 0017              _CCP2CONbits 001D                _TXSTAbits 0098  
            _BAUDCTLbits 0187      start_initialization 0015              __end_of_map 0BAA  
            __end_of_isr 0DB8            ??_read_EEPROM 00B2                __Umul8_16 0990  
              ___fladd@a 0058                ___fladd@b 0054                ___fldiv@a 0020  
              ___fldiv@b 0024                ___flmul@a 003E                ___flmul@b 003A  
              ___latbits 0002            __pcstackBANK0 0020            __pcstackBANK1 00A0  
               ?___fladd 0054                 ?___fldiv 0020                 ?___flmul 003A  
               ?___fltol 0068               ?__Umul8_16 0070      __end_of_read_EEPROM 07FA  
          ?_write_EEPROM 00B2        interrupt_function 0004                clear_ram0 096D  
               _PIE1bits 008C                 _PIR1bits 000C               _ADCON0bits 001F  
             _ADCON1bits 009F           ??_write_EEPROM 00B3               _EECON1bits 018C  
            _read_EEPROM 07EB              ??__Umul8_16 0072                 ___xxtofl 0BAA  
               __ptext10 060E                 __ptext11 0386                 _selector 00C4  
               _val_temp 006F                 _write_fg 00C6               _INTCONbits 000B  
               intlevel1 0000     __end_of_write_EEPROM 0990               _OSCCONbits 008F  
 __Umul8_16@multiplicand 0070               _POT1_slave 00CD               _POT2_slave 00CC  
          ___fladd@signs 0064             ___fladd@aexp 0065             ___fladd@bexp 0066  
   __Umul8_16@multiplier 0078               _SSPCONbits 0014        __Umul8_16@product 0074  
